
bootrom_64.elf:     file format elf64-littleriscv


Disassembly of section .text.init:

0000000000010000 <_prog_start>:
   10000:	0210049b          	addiw	s1,zero,33
   10004:	01a49493          	slli	s1,s1,0x1a
   10008:	04048493          	addi	s1,s1,64
   1000c:	00000913          	li	s2,0
   10010:	0924a4af          	amoswap.w	s1,s2,(s1)
   10014:	00000493          	li	s1,0
   10018:	f1402973          	csrr	s2,mhartid
   1001c:	03249863          	bne	s1,s2,1004c <_prog_start+0x4c>
   10020:	0210011b          	addiw	sp,zero,33
   10024:	01a11113          	slli	sp,sp,0x1a
   10028:	00000013          	nop
   1002c:	00000013          	nop
   10030:	00000013          	nop
   10034:	00000013          	nop
   10038:	00000013          	nop
   1003c:	00000013          	nop
   10040:	00000013          	nop
   10044:	00000013          	nop
   10048:	00000013          	nop
   1004c:	0210049b          	addiw	s1,zero,33
   10050:	01a49493          	slli	s1,s1,0x1a
   10054:	04048493          	addi	s1,s1,64
   10058:	0004a903          	lw	s2,0(s1)
   1005c:	f14024f3          	csrr	s1,mhartid
   10060:	ff2496e3          	bne	s1,s2,1004c <_prog_start+0x4c>
   10064:	0210049b          	addiw	s1,zero,33
   10068:	01a49493          	slli	s1,s1,0x1a
   1006c:	04048493          	addi	s1,s1,64
   10070:	00190913          	addi	s2,s2,1
   10074:	0924a4af          	amoswap.w	s1,s2,(s1)
   10078:	f1402573          	csrr	a0,mhartid
   1007c:	00001597          	auipc	a1,0x1
   10080:	b8458593          	addi	a1,a1,-1148 # 10c00 <_BSS_END_>
   10084:	0010049b          	addiw	s1,zero,1
   10088:	01f49493          	slli	s1,s1,0x1f
   1008c:	00048067          	jr	s1

Disassembly of section .text:

0000000000010100 <handle_trap>:
   10100:	8082                	ret

0000000000010102 <write_reg_u8>:
   10102:	00b50023          	sb	a1,0(a0)
   10106:	8082                	ret

0000000000010108 <read_reg_u8>:
   10108:	00054503          	lbu	a0,0(a0)
   1010c:	8082                	ret

000000000001010e <is_transmit_empty>:
   1010e:	100007b7          	lui	a5,0x10000
   10112:	0147c503          	lbu	a0,20(a5) # 10000014 <_RODATA_END_+0xffee3eb>
   10116:	02057513          	andi	a0,a0,32
   1011a:	8082                	ret

000000000001011c <write_serial>:
   1011c:	10000737          	lui	a4,0x10000
   10120:	01474783          	lbu	a5,20(a4) # 10000014 <_RODATA_END_+0xffee3eb>
   10124:	0207f793          	andi	a5,a5,32
   10128:	dfe5                	beqz	a5,10120 <write_serial+0x4>
   1012a:	00a70023          	sb	a0,0(a4)
   1012e:	8082                	ret

0000000000010130 <init_uart>:
   10130:	0045959b          	slliw	a1,a1,0x4
   10134:	02b5553b          	divuw	a0,a0,a1
   10138:	100007b7          	lui	a5,0x10000
   1013c:	00078223          	sb	zero,4(a5) # 10000004 <_RODATA_END_+0xffee3db>
   10140:	f8000713          	li	a4,-128
   10144:	00e78623          	sb	a4,12(a5)
   10148:	0ff57713          	zext.b	a4,a0
   1014c:	0085551b          	srliw	a0,a0,0x8
   10150:	00e78023          	sb	a4,0(a5)
   10154:	0ff57513          	zext.b	a0,a0
   10158:	00a78223          	sb	a0,4(a5)
   1015c:	470d                	li	a4,3
   1015e:	00e78623          	sb	a4,12(a5)
   10162:	fc700713          	li	a4,-57
   10166:	00e78423          	sb	a4,8(a5)
   1016a:	02000713          	li	a4,32
   1016e:	00e78823          	sb	a4,16(a5)
   10172:	8082                	ret

0000000000010174 <print_uart>:
   10174:	1141                	addi	sp,sp,-16
   10176:	e022                	sd	s0,0(sp)
   10178:	e406                	sd	ra,8(sp)
   1017a:	842a                	mv	s0,a0
   1017c:	00044503          	lbu	a0,0(s0)
   10180:	e509                	bnez	a0,1018a <print_uart+0x16>
   10182:	60a2                	ld	ra,8(sp)
   10184:	6402                	ld	s0,0(sp)
   10186:	0141                	addi	sp,sp,16
   10188:	8082                	ret
   1018a:	f93ff0ef          	jal	ra,1011c <write_serial>
   1018e:	0405                	addi	s0,s0,1
   10190:	b7f5                	j	1017c <print_uart+0x8>

0000000000010192 <bin_to_hex>:
   10192:	00001797          	auipc	a5,0x1
   10196:	96e78793          	addi	a5,a5,-1682 # 10b00 <bin_to_hex_table>
   1019a:	00f57713          	andi	a4,a0,15
   1019e:	973e                	add	a4,a4,a5
   101a0:	00074703          	lbu	a4,0(a4)
   101a4:	8111                	srli	a0,a0,0x4
   101a6:	97aa                	add	a5,a5,a0
   101a8:	00e580a3          	sb	a4,1(a1)
   101ac:	0007c783          	lbu	a5,0(a5)
   101b0:	00f58023          	sb	a5,0(a1)
   101b4:	8082                	ret

00000000000101b6 <print_uart_int>:
   101b6:	7179                	addi	sp,sp,-48
   101b8:	f022                	sd	s0,32(sp)
   101ba:	ec26                	sd	s1,24(sp)
   101bc:	e84a                	sd	s2,16(sp)
   101be:	f406                	sd	ra,40(sp)
   101c0:	84aa                	mv	s1,a0
   101c2:	4461                	li	s0,24
   101c4:	5961                	li	s2,-8
   101c6:	0084d53b          	srlw	a0,s1,s0
   101ca:	002c                	addi	a1,sp,8
   101cc:	0ff57513          	zext.b	a0,a0
   101d0:	fc3ff0ef          	jal	ra,10192 <bin_to_hex>
   101d4:	00814503          	lbu	a0,8(sp)
   101d8:	3461                	addiw	s0,s0,-8
   101da:	f43ff0ef          	jal	ra,1011c <write_serial>
   101de:	00914503          	lbu	a0,9(sp)
   101e2:	f3bff0ef          	jal	ra,1011c <write_serial>
   101e6:	ff2410e3          	bne	s0,s2,101c6 <print_uart_int+0x10>
   101ea:	70a2                	ld	ra,40(sp)
   101ec:	7402                	ld	s0,32(sp)
   101ee:	64e2                	ld	s1,24(sp)
   101f0:	6942                	ld	s2,16(sp)
   101f2:	6145                	addi	sp,sp,48
   101f4:	8082                	ret

00000000000101f6 <print_uart_addr>:
   101f6:	7179                	addi	sp,sp,-48
   101f8:	f022                	sd	s0,32(sp)
   101fa:	ec26                	sd	s1,24(sp)
   101fc:	e84a                	sd	s2,16(sp)
   101fe:	f406                	sd	ra,40(sp)
   10200:	84aa                	mv	s1,a0
   10202:	03800413          	li	s0,56
   10206:	5961                	li	s2,-8
   10208:	0084d533          	srl	a0,s1,s0
   1020c:	002c                	addi	a1,sp,8
   1020e:	0ff57513          	zext.b	a0,a0
   10212:	f81ff0ef          	jal	ra,10192 <bin_to_hex>
   10216:	00814503          	lbu	a0,8(sp)
   1021a:	3461                	addiw	s0,s0,-8
   1021c:	f01ff0ef          	jal	ra,1011c <write_serial>
   10220:	00914503          	lbu	a0,9(sp)
   10224:	ef9ff0ef          	jal	ra,1011c <write_serial>
   10228:	ff2410e3          	bne	s0,s2,10208 <print_uart_addr+0x12>
   1022c:	70a2                	ld	ra,40(sp)
   1022e:	7402                	ld	s0,32(sp)
   10230:	64e2                	ld	s1,24(sp)
   10232:	6942                	ld	s2,16(sp)
   10234:	6145                	addi	sp,sp,48
   10236:	8082                	ret

0000000000010238 <print_uart_byte>:
   10238:	1101                	addi	sp,sp,-32
   1023a:	002c                	addi	a1,sp,8
   1023c:	ec06                	sd	ra,24(sp)
   1023e:	f55ff0ef          	jal	ra,10192 <bin_to_hex>
   10242:	00814503          	lbu	a0,8(sp)
   10246:	ed7ff0ef          	jal	ra,1011c <write_serial>
   1024a:	00914503          	lbu	a0,9(sp)
   1024e:	60e2                	ld	ra,24(sp)
   10250:	6105                	addi	sp,sp,32
   10252:	b5e9                	j	1011c <write_serial>

0000000000010254 <write_reg>:
   10254:	c10c                	sw	a1,0(a0)
   10256:	8082                	ret

0000000000010258 <read_reg>:
   10258:	4108                	lw	a0,0(a0)
   1025a:	8082                	ret

000000000001025c <spi_init>:
   1025c:	00001517          	auipc	a0,0x1
   10260:	1101                	addi	sp,sp,-32
   10262:	6e450513          	addi	a0,a0,1764 # 11940 <_BSS_END_+0xd40>
   10266:	ec06                	sd	ra,24(sp)
   10268:	e822                	sd	s0,16(sp)
   1026a:	e426                	sd	s1,8(sp)
   1026c:	f09ff0ef          	jal	ra,10174 <print_uart>
   10270:	200007b7          	lui	a5,0x20000
   10274:	4729                	li	a4,10
   10276:	c3b8                	sw	a4,64(a5)
   10278:	47a9                	li	a5,10
   1027a:	0001                	nop
   1027c:	37fd                	addiw	a5,a5,-1 # 1fffffff <_RODATA_END_+0x1ffee3d6>
   1027e:	fff5                	bnez	a5,1027a <spi_init+0x1e>
   10280:	20000437          	lui	s0,0x20000
   10284:	10400793          	li	a5,260
   10288:	d03c                	sw	a5,96(s0)
   1028a:	5064                	lw	s1,100(s0)
   1028c:	00001517          	auipc	a0,0x1
   10290:	6c450513          	addi	a0,a0,1732 # 11950 <_BSS_END_+0xd50>
   10294:	ee1ff0ef          	jal	ra,10174 <print_uart>
   10298:	2481                	sext.w	s1,s1
   1029a:	02049513          	slli	a0,s1,0x20
   1029e:	9101                	srli	a0,a0,0x20
   102a0:	f57ff0ef          	jal	ra,101f6 <print_uart_addr>
   102a4:	00001517          	auipc	a0,0x1
   102a8:	6cc50513          	addi	a0,a0,1740 # 11970 <_BSS_END_+0xd70>
   102ac:	ec9ff0ef          	jal	ra,10174 <print_uart>
   102b0:	16600793          	li	a5,358
   102b4:	d03c                	sw	a5,96(s0)
   102b6:	5064                	lw	s1,100(s0)
   102b8:	00001517          	auipc	a0,0x1
   102bc:	69850513          	addi	a0,a0,1688 # 11950 <_BSS_END_+0xd50>
   102c0:	eb5ff0ef          	jal	ra,10174 <print_uart>
   102c4:	2481                	sext.w	s1,s1
   102c6:	02049513          	slli	a0,s1,0x20
   102ca:	9101                	srli	a0,a0,0x20
   102cc:	f2bff0ef          	jal	ra,101f6 <print_uart_addr>
   102d0:	00001517          	auipc	a0,0x1
   102d4:	6a050513          	addi	a0,a0,1696 # 11970 <_BSS_END_+0xd70>
   102d8:	e9dff0ef          	jal	ra,10174 <print_uart>
   102dc:	4799                	li	a5,6
   102de:	d03c                	sw	a5,96(s0)
   102e0:	6442                	ld	s0,16(sp)
   102e2:	60e2                	ld	ra,24(sp)
   102e4:	64a2                	ld	s1,8(sp)
   102e6:	00001517          	auipc	a0,0x1
   102ea:	67a50513          	addi	a0,a0,1658 # 11960 <_BSS_END_+0xd60>
   102ee:	6105                	addi	sp,sp,32
   102f0:	b551                	j	10174 <print_uart>

00000000000102f2 <spi_txrx>:
   102f2:	1101                	addi	sp,sp,-32
   102f4:	200007b7          	lui	a5,0x20000
   102f8:	ec06                	sd	ra,24(sp)
   102fa:	e822                	sd	s0,16(sp)
   102fc:	e426                	sd	s1,8(sp)
   102fe:	5779                	li	a4,-2
   10300:	dbb8                	sw	a4,112(a5)
   10302:	d7a8                	sw	a0,104(a5)
   10304:	06400793          	li	a5,100
   10308:	0001                	nop
   1030a:	37fd                	addiw	a5,a5,-1 # 1fffffff <_RODATA_END_+0x1ffee3d6>
   1030c:	fff5                	bnez	a5,10308 <spi_txrx+0x16>
   1030e:	200007b7          	lui	a5,0x20000
   10312:	10600713          	li	a4,262
   10316:	d3b8                	sw	a4,96(a5)
   10318:	20000437          	lui	s0,0x20000
   1031c:	507c                	lw	a5,100(s0)
   1031e:	8b85                	andi	a5,a5,1
   10320:	fff5                	bnez	a5,1031c <spi_txrx+0x2a>
   10322:	5464                	lw	s1,108(s0)
   10324:	507c                	lw	a5,100(s0)
   10326:	2481                	sext.w	s1,s1
   10328:	8b85                	andi	a5,a5,1
   1032a:	e395                	bnez	a5,1034e <spi_txrx+0x5c>
   1032c:	00001517          	auipc	a0,0x1
   10330:	64c50513          	addi	a0,a0,1612 # 11978 <_BSS_END_+0xd78>
   10334:	e41ff0ef          	jal	ra,10174 <print_uart>
   10338:	5068                	lw	a0,100(s0)
   1033a:	1502                	slli	a0,a0,0x20
   1033c:	9101                	srli	a0,a0,0x20
   1033e:	eb9ff0ef          	jal	ra,101f6 <print_uart_addr>
   10342:	00001517          	auipc	a0,0x1
   10346:	62e50513          	addi	a0,a0,1582 # 11970 <_BSS_END_+0xd70>
   1034a:	e2bff0ef          	jal	ra,10174 <print_uart>
   1034e:	60e2                	ld	ra,24(sp)
   10350:	6442                	ld	s0,16(sp)
   10352:	200007b7          	lui	a5,0x20000
   10356:	577d                	li	a4,-1
   10358:	dbb8                	sw	a4,112(a5)
   1035a:	4719                	li	a4,6
   1035c:	d3b8                	sw	a4,96(a5)
   1035e:	0ff4f513          	zext.b	a0,s1
   10362:	64a2                	ld	s1,8(sp)
   10364:	6105                	addi	sp,sp,32
   10366:	8082                	ret

0000000000010368 <spi_write_bytes>:
   10368:	10000793          	li	a5,256
   1036c:	06b7ee63          	bltu	a5,a1,103e8 <spi_write_bytes+0x80>
   10370:	200007b7          	lui	a5,0x20000
   10374:	5779                	li	a4,-2
   10376:	dbb8                	sw	a4,112(a5)
   10378:	200006b7          	lui	a3,0x20000
   1037c:	4781                	li	a5,0
   1037e:	0007871b          	sext.w	a4,a5
   10382:	04b76163          	bltu	a4,a1,103c4 <spi_write_bytes+0x5c>
   10386:	03200793          	li	a5,50
   1038a:	0001                	nop
   1038c:	37fd                	addiw	a5,a5,-1 # 1fffffff <_RODATA_END_+0x1ffee3d6>
   1038e:	fff5                	bnez	a5,1038a <spi_write_bytes+0x22>
   10390:	10600713          	li	a4,262
   10394:	200007b7          	lui	a5,0x20000
   10398:	d3b8                	sw	a4,96(a5)
   1039a:	20000737          	lui	a4,0x20000
   1039e:	537c                	lw	a5,100(a4)
   103a0:	8b85                	andi	a5,a5,1
   103a2:	fff5                	bnez	a5,1039e <spi_write_bytes+0x36>
   103a4:	20000537          	lui	a0,0x20000
   103a8:	20000837          	lui	a6,0x20000
   103ac:	0007869b          	sext.w	a3,a5
   103b0:	02b6e163          	bltu	a3,a1,103d2 <spi_write_bytes+0x6a>
   103b4:	200007b7          	lui	a5,0x20000
   103b8:	577d                	li	a4,-1
   103ba:	dbb8                	sw	a4,112(a5)
   103bc:	4719                	li	a4,6
   103be:	d3b8                	sw	a4,96(a5)
   103c0:	4501                	li	a0,0
   103c2:	8082                	ret
   103c4:	00f50733          	add	a4,a0,a5
   103c8:	00074703          	lbu	a4,0(a4) # 20000000 <_RODATA_END_+0x1ffee3d7>
   103cc:	0785                	addi	a5,a5,1 # 20000001 <_RODATA_END_+0x1ffee3d8>
   103ce:	d6b8                	sw	a4,104(a3)
   103d0:	b77d                	j	1037e <spi_write_bytes+0x16>
   103d2:	5178                	lw	a4,100(a0)
   103d4:	8b05                	andi	a4,a4,1
   103d6:	ff69                	bnez	a4,103b0 <spi_write_bytes+0x48>
   103d8:	06c82683          	lw	a3,108(a6) # 2000006c <_RODATA_END_+0x1ffee443>
   103dc:	00f60733          	add	a4,a2,a5
   103e0:	0785                	addi	a5,a5,1
   103e2:	00d70023          	sb	a3,0(a4)
   103e6:	b7d9                	j	103ac <spi_write_bytes+0x44>
   103e8:	557d                	li	a0,-1
   103ea:	8082                	ret

00000000000103ec <sd_dummy>:
   103ec:	0ff00513          	li	a0,255
   103f0:	b709                	j	102f2 <spi_txrx>

00000000000103f2 <sd_cmd>:
   103f2:	1101                	addi	sp,sp,-32
   103f4:	ec06                	sd	ra,24(sp)
   103f6:	e822                	sd	s0,16(sp)
   103f8:	e426                	sd	s1,8(sp)
   103fa:	842e                	mv	s0,a1
   103fc:	84b2                	mv	s1,a2
   103fe:	e04a                	sd	s2,0(sp)
   10400:	892a                	mv	s2,a0
   10402:	febff0ef          	jal	ra,103ec <sd_dummy>
   10406:	04096513          	ori	a0,s2,64
   1040a:	ee9ff0ef          	jal	ra,102f2 <spi_txrx>
   1040e:	0184551b          	srliw	a0,s0,0x18
   10412:	ee1ff0ef          	jal	ra,102f2 <spi_txrx>
   10416:	0104551b          	srliw	a0,s0,0x10
   1041a:	0ff57513          	zext.b	a0,a0
   1041e:	ed5ff0ef          	jal	ra,102f2 <spi_txrx>
   10422:	0084551b          	srliw	a0,s0,0x8
   10426:	0ff57513          	zext.b	a0,a0
   1042a:	ec9ff0ef          	jal	ra,102f2 <spi_txrx>
   1042e:	0ff47513          	zext.b	a0,s0
   10432:	ec1ff0ef          	jal	ra,102f2 <spi_txrx>
   10436:	8526                	mv	a0,s1
   10438:	ebbff0ef          	jal	ra,102f2 <spi_txrx>
   1043c:	06400413          	li	s0,100
   10440:	fadff0ef          	jal	ra,103ec <sd_dummy>
   10444:	0185179b          	slliw	a5,a0,0x18
   10448:	4187d79b          	sraiw	a5,a5,0x18
   1044c:	0007d463          	bgez	a5,10454 <sd_cmd+0x62>
   10450:	147d                	addi	s0,s0,-1 # 1fffffff <_RODATA_END_+0x1ffee3d6>
   10452:	f47d                	bnez	s0,10440 <sd_cmd+0x4e>
   10454:	60e2                	ld	ra,24(sp)
   10456:	6442                	ld	s0,16(sp)
   10458:	64a2                	ld	s1,8(sp)
   1045a:	6902                	ld	s2,0(sp)
   1045c:	6105                	addi	sp,sp,32
   1045e:	8082                	ret

0000000000010460 <print_status>:
   10460:	1101                	addi	sp,sp,-32
   10462:	e426                	sd	s1,8(sp)
   10464:	84aa                	mv	s1,a0
   10466:	00001517          	auipc	a0,0x1
   1046a:	52a50513          	addi	a0,a0,1322 # 11990 <_BSS_END_+0xd90>
   1046e:	ec06                	sd	ra,24(sp)
   10470:	e822                	sd	s0,16(sp)
   10472:	842e                	mv	s0,a1
   10474:	d01ff0ef          	jal	ra,10174 <print_uart>
   10478:	8526                	mv	a0,s1
   1047a:	cfbff0ef          	jal	ra,10174 <print_uart>
   1047e:	00001517          	auipc	a0,0x1
   10482:	52250513          	addi	a0,a0,1314 # 119a0 <_BSS_END_+0xda0>
   10486:	cefff0ef          	jal	ra,10174 <print_uart>
   1048a:	8522                	mv	a0,s0
   1048c:	dadff0ef          	jal	ra,10238 <print_uart_byte>
   10490:	6442                	ld	s0,16(sp)
   10492:	60e2                	ld	ra,24(sp)
   10494:	64a2                	ld	s1,8(sp)
   10496:	00001517          	auipc	a0,0x1
   1049a:	4da50513          	addi	a0,a0,1242 # 11970 <_BSS_END_+0xd70>
   1049e:	6105                	addi	sp,sp,32
   104a0:	b9d1                	j	10174 <print_uart>

00000000000104a2 <sd_cmd0>:
   104a2:	1101                	addi	sp,sp,-32
   104a4:	e822                	sd	s0,16(sp)
   104a6:	6409                	lui	s0,0x2
   104a8:	e04a                	sd	s2,0(sp)
   104aa:	ec06                	sd	ra,24(sp)
   104ac:	e426                	sd	s1,8(sp)
   104ae:	71040413          	addi	s0,s0,1808 # 2710 <ROM_BASE-0xd8f0>
   104b2:	4905                	li	s2,1
   104b4:	09500613          	li	a2,149
   104b8:	4581                	li	a1,0
   104ba:	4501                	li	a0,0
   104bc:	f37ff0ef          	jal	ra,103f2 <sd_cmd>
   104c0:	347d                	addiw	s0,s0,-1
   104c2:	84aa                	mv	s1,a0
   104c4:	f29ff0ef          	jal	ra,103ec <sd_dummy>
   104c8:	c00d                	beqz	s0,104ea <sd_cmd0+0x48>
   104ca:	ff2495e3          	bne	s1,s2,104b4 <sd_cmd0+0x12>
   104ce:	00001517          	auipc	a0,0x1
   104d2:	4e250513          	addi	a0,a0,1250 # 119b0 <_BSS_END_+0xdb0>
   104d6:	4585                	li	a1,1
   104d8:	f89ff0ef          	jal	ra,10460 <print_status>
   104dc:	4505                	li	a0,1
   104de:	60e2                	ld	ra,24(sp)
   104e0:	6442                	ld	s0,16(sp)
   104e2:	64a2                	ld	s1,8(sp)
   104e4:	6902                	ld	s2,0(sp)
   104e6:	6105                	addi	sp,sp,32
   104e8:	8082                	ret
   104ea:	4501                	li	a0,0
   104ec:	bfcd                	j	104de <sd_cmd0+0x3c>

00000000000104ee <sd_cmd8>:
   104ee:	1101                	addi	sp,sp,-32
   104f0:	08700613          	li	a2,135
   104f4:	1aa00593          	li	a1,426
   104f8:	4521                	li	a0,8
   104fa:	ec06                	sd	ra,24(sp)
   104fc:	e822                	sd	s0,16(sp)
   104fe:	e426                	sd	s1,8(sp)
   10500:	e04a                	sd	s2,0(sp)
   10502:	ef1ff0ef          	jal	ra,103f2 <sd_cmd>
   10506:	892a                	mv	s2,a0
   10508:	ee5ff0ef          	jal	ra,103ec <sd_dummy>
   1050c:	ee1ff0ef          	jal	ra,103ec <sd_dummy>
   10510:	eddff0ef          	jal	ra,103ec <sd_dummy>
   10514:	84aa                	mv	s1,a0
   10516:	ed7ff0ef          	jal	ra,103ec <sd_dummy>
   1051a:	842a                	mv	s0,a0
   1051c:	ed1ff0ef          	jal	ra,103ec <sd_dummy>
   10520:	ecdff0ef          	jal	ra,103ec <sd_dummy>
   10524:	4785                	li	a5,1
   10526:	4501                	li	a0,0
   10528:	00f91a63          	bne	s2,a5,1053c <sd_cmd8+0x4e>
   1052c:	88bd                	andi	s1,s1,15
   1052e:	01249763          	bne	s1,s2,1053c <sd_cmd8+0x4e>
   10532:	2401                	sext.w	s0,s0
   10534:	f5640413          	addi	s0,s0,-170
   10538:	00143513          	seqz	a0,s0
   1053c:	60e2                	ld	ra,24(sp)
   1053e:	6442                	ld	s0,16(sp)
   10540:	64a2                	ld	s1,8(sp)
   10542:	6902                	ld	s2,0(sp)
   10544:	6105                	addi	sp,sp,32
   10546:	8082                	ret

0000000000010548 <sd_cmd55>:
   10548:	1141                	addi	sp,sp,-16
   1054a:	06500613          	li	a2,101
   1054e:	4581                	li	a1,0
   10550:	03700513          	li	a0,55
   10554:	e406                	sd	ra,8(sp)
   10556:	e022                	sd	s0,0(sp)
   10558:	e9bff0ef          	jal	ra,103f2 <sd_cmd>
   1055c:	842a                	mv	s0,a0
   1055e:	e8fff0ef          	jal	ra,103ec <sd_dummy>
   10562:	00001517          	auipc	a0,0x1
   10566:	85a2                	mv	a1,s0
   10568:	45650513          	addi	a0,a0,1110 # 119b8 <_BSS_END_+0xdb8>
   1056c:	ef5ff0ef          	jal	ra,10460 <print_status>
   10570:	60a2                	ld	ra,8(sp)
   10572:	0004051b          	sext.w	a0,s0
   10576:	6402                	ld	s0,0(sp)
   10578:	157d                	addi	a0,a0,-1
   1057a:	00153513          	seqz	a0,a0
   1057e:	0141                	addi	sp,sp,16
   10580:	8082                	ret

0000000000010582 <sd_acmd41>:
   10582:	1101                	addi	sp,sp,-32
   10584:	e426                	sd	s1,8(sp)
   10586:	ec06                	sd	ra,24(sp)
   10588:	e822                	sd	s0,16(sp)
   1058a:	4485                	li	s1,1
   1058c:	fbdff0ef          	jal	ra,10548 <sd_cmd55>
   10590:	07700613          	li	a2,119
   10594:	400005b7          	lui	a1,0x40000
   10598:	02900513          	li	a0,41
   1059c:	e57ff0ef          	jal	ra,103f2 <sd_cmd>
   105a0:	842a                	mv	s0,a0
   105a2:	85aa                	mv	a1,a0
   105a4:	00001517          	auipc	a0,0x1
   105a8:	41c50513          	addi	a0,a0,1052 # 119c0 <_BSS_END_+0xdc0>
   105ac:	eb5ff0ef          	jal	ra,10460 <print_status>
   105b0:	e3dff0ef          	jal	ra,103ec <sd_dummy>
   105b4:	fc940ce3          	beq	s0,s1,1058c <sd_acmd41+0xa>
   105b8:	60e2                	ld	ra,24(sp)
   105ba:	0004051b          	sext.w	a0,s0
   105be:	6442                	ld	s0,16(sp)
   105c0:	64a2                	ld	s1,8(sp)
   105c2:	00153513          	seqz	a0,a0
   105c6:	6105                	addi	sp,sp,32
   105c8:	8082                	ret

00000000000105ca <init_sd>:
   105ca:	1141                	addi	sp,sp,-16
   105cc:	e406                	sd	ra,8(sp)
   105ce:	e022                	sd	s0,0(sp)
   105d0:	c8dff0ef          	jal	ra,1025c <spi_init>
   105d4:	00001517          	auipc	a0,0x1
   105d8:	3f450513          	addi	a0,a0,1012 # 119c8 <_BSS_END_+0xdc8>
   105dc:	b99ff0ef          	jal	ra,10174 <print_uart>
   105e0:	4429                	li	s0,10
   105e2:	347d                	addiw	s0,s0,-1
   105e4:	e09ff0ef          	jal	ra,103ec <sd_dummy>
   105e8:	fc6d                	bnez	s0,105e2 <init_sd+0x18>
   105ea:	eb9ff0ef          	jal	ra,104a2 <sd_cmd0>
   105ee:	57fd                	li	a5,-1
   105f0:	c911                	beqz	a0,10604 <init_sd+0x3a>
   105f2:	efdff0ef          	jal	ra,104ee <sd_cmd8>
   105f6:	57f9                	li	a5,-2
   105f8:	c511                	beqz	a0,10604 <init_sd+0x3a>
   105fa:	f89ff0ef          	jal	ra,10582 <sd_acmd41>
   105fe:	57f5                	li	a5,-3
   10600:	c111                	beqz	a0,10604 <init_sd+0x3a>
   10602:	4781                	li	a5,0
   10604:	60a2                	ld	ra,8(sp)
   10606:	6402                	ld	s0,0(sp)
   10608:	853e                	mv	a0,a5
   1060a:	0141                	addi	sp,sp,16
   1060c:	8082                	ret

000000000001060e <crc7>:
   1060e:	8de9                	and	a1,a1,a0
   10610:	0075d79b          	srliw	a5,a1,0x7
   10614:	0045d51b          	srliw	a0,a1,0x4
   10618:	8d3d                	xor	a0,a0,a5
   1061a:	0ff57513          	zext.b	a0,a0
   1061e:	8d2d                	xor	a0,a0,a1
   10620:	0045179b          	slliw	a5,a0,0x4
   10624:	0ff7f793          	zext.b	a5,a5
   10628:	8d3d                	xor	a0,a0,a5
   1062a:	07f57513          	andi	a0,a0,127
   1062e:	8082                	ret

0000000000010630 <crc16>:
   10630:	0085179b          	slliw	a5,a0,0x8
   10634:	0085551b          	srliw	a0,a0,0x8
   10638:	8fc9                	or	a5,a5,a0
   1063a:	17c2                	slli	a5,a5,0x30
   1063c:	93c1                	srli	a5,a5,0x30
   1063e:	00f5c533          	xor	a0,a1,a5
   10642:	0045579b          	srliw	a5,a0,0x4
   10646:	8bbd                	andi	a5,a5,15
   10648:	8d3d                	xor	a0,a0,a5
   1064a:	00c5179b          	slliw	a5,a0,0xc
   1064e:	8d3d                	xor	a0,a0,a5
   10650:	0105171b          	slliw	a4,a0,0x10
   10654:	0107571b          	srliw	a4,a4,0x10
   10658:	6789                	lui	a5,0x2
   1065a:	0057171b          	slliw	a4,a4,0x5
   1065e:	1781                	addi	a5,a5,-32 # 1fe0 <ROM_BASE-0xe020>
   10660:	8ff9                	and	a5,a5,a4
   10662:	8d3d                	xor	a0,a0,a5
   10664:	1542                	slli	a0,a0,0x30
   10666:	9141                	srli	a0,a0,0x30
   10668:	8082                	ret

000000000001066a <sd_copy>:
   1066a:	7155                	addi	sp,sp,-208
   1066c:	f94a                	sd	s2,176(sp)
   1066e:	02061913          	slli	s2,a2,0x20
   10672:	e1a2                	sd	s0,192(sp)
   10674:	fd26                	sd	s1,184(sp)
   10676:	e586                	sd	ra,200(sp)
   10678:	f54e                	sd	s3,168(sp)
   1067a:	f152                	sd	s4,160(sp)
   1067c:	ed56                	sd	s5,152(sp)
   1067e:	e95a                	sd	s6,144(sp)
   10680:	e55e                	sd	s7,136(sp)
   10682:	84aa                	mv	s1,a0
   10684:	842e                	mv	s0,a1
   10686:	02095913          	srli	s2,s2,0x20
   1068a:	4781                	li	a5,0
   1068c:	567d                	li	a2,-1
   1068e:	08000713          	li	a4,128
   10692:	00f106b3          	add	a3,sp,a5
   10696:	00c68023          	sb	a2,0(a3) # 20000000 <_RODATA_END_+0x1ffee3d7>
   1069a:	0785                	addi	a5,a5,1
   1069c:	fee79be3          	bne	a5,a4,10692 <sd_copy+0x28>
   106a0:	0184559b          	srliw	a1,s0,0x18
   106a4:	4501                	li	a0,0
   106a6:	f69ff0ef          	jal	ra,1060e <crc7>
   106aa:	0104559b          	srliw	a1,s0,0x10
   106ae:	0ff5f593          	zext.b	a1,a1
   106b2:	f5dff0ef          	jal	ra,1060e <crc7>
   106b6:	0084559b          	srliw	a1,s0,0x8
   106ba:	0ff5f593          	zext.b	a1,a1
   106be:	f51ff0ef          	jal	ra,1060e <crc7>
   106c2:	0ff47593          	zext.b	a1,s0
   106c6:	f49ff0ef          	jal	ra,1060e <crc7>
   106ca:	0015161b          	slliw	a2,a0,0x1
   106ce:	00166613          	ori	a2,a2,1
   106d2:	0ff67613          	zext.b	a2,a2
   106d6:	85a2                	mv	a1,s0
   106d8:	4549                	li	a0,18
   106da:	d19ff0ef          	jal	ra,103f2 <sd_cmd>
   106de:	e949                	bnez	a0,10770 <sd_copy+0x106>
   106e0:	0fe00a13          	li	s4,254
   106e4:	3e800a93          	li	s5,1000
   106e8:	d05ff0ef          	jal	ra,103ec <sd_dummy>
   106ec:	ff451ee3          	bne	a0,s4,106e8 <sd_copy+0x7e>
   106f0:	4401                	li	s0,0
   106f2:	20048b13          	addi	s6,s1,512
   106f6:	8626                	mv	a2,s1
   106f8:	04000593          	li	a1,64
   106fc:	850a                	mv	a0,sp
   106fe:	c6bff0ef          	jal	ra,10368 <spi_write_bytes>
   10702:	4981                	li	s3,0
   10704:	04000b93          	li	s7,64
   10708:	013487b3          	add	a5,s1,s3
   1070c:	0007c583          	lbu	a1,0(a5)
   10710:	8522                	mv	a0,s0
   10712:	0985                	addi	s3,s3,1
   10714:	f1dff0ef          	jal	ra,10630 <crc16>
   10718:	842a                	mv	s0,a0
   1071a:	ff7997e3          	bne	s3,s7,10708 <sd_copy+0x9e>
   1071e:	04048493          	addi	s1,s1,64
   10722:	fd649ae3          	bne	s1,s6,106f6 <sd_copy+0x8c>
   10726:	cc7ff0ef          	jal	ra,103ec <sd_dummy>
   1072a:	0085199b          	slliw	s3,a0,0x8
   1072e:	19c2                	slli	s3,s3,0x30
   10730:	0309d993          	srli	s3,s3,0x30
   10734:	cb9ff0ef          	jal	ra,103ec <sd_dummy>
   10738:	01356533          	or	a0,a0,s3
   1073c:	1542                	slli	a0,a0,0x30
   1073e:	9141                	srli	a0,a0,0x30
   10740:	2401                	sext.w	s0,s0
   10742:	06851a63          	bne	a0,s0,107b6 <sd_copy+0x14c>
   10746:	035967b3          	rem	a5,s2,s5
   1074a:	e799                	bnez	a5,10758 <sd_copy+0xee>
   1074c:	00001517          	auipc	a0,0x1
   10750:	2b450513          	addi	a0,a0,692 # 11a00 <_BSS_END_+0xe00>
   10754:	a21ff0ef          	jal	ra,10174 <print_uart>
   10758:	197d                	addi	s2,s2,-1
   1075a:	f92047e3          	bgtz	s2,106e8 <sd_copy+0x7e>
   1075e:	4401                	li	s0,0
   10760:	4605                	li	a2,1
   10762:	4581                	li	a1,0
   10764:	4531                	li	a0,12
   10766:	c8dff0ef          	jal	ra,103f2 <sd_cmd>
   1076a:	c83ff0ef          	jal	ra,103ec <sd_dummy>
   1076e:	a805                	j	1079e <sd_copy+0x134>
   10770:	c7dff0ef          	jal	ra,103ec <sd_dummy>
   10774:	c79ff0ef          	jal	ra,103ec <sd_dummy>
   10778:	c75ff0ef          	jal	ra,103ec <sd_dummy>
   1077c:	c71ff0ef          	jal	ra,103ec <sd_dummy>
   10780:	c6dff0ef          	jal	ra,103ec <sd_dummy>
   10784:	c69ff0ef          	jal	ra,103ec <sd_dummy>
   10788:	c65ff0ef          	jal	ra,103ec <sd_dummy>
   1078c:	c61ff0ef          	jal	ra,103ec <sd_dummy>
   10790:	00001517          	auipc	a0,0x1
   10794:	25050513          	addi	a0,a0,592 # 119e0 <_BSS_END_+0xde0>
   10798:	9ddff0ef          	jal	ra,10174 <print_uart>
   1079c:	547d                	li	s0,-1
   1079e:	60ae                	ld	ra,200(sp)
   107a0:	8522                	mv	a0,s0
   107a2:	640e                	ld	s0,192(sp)
   107a4:	74ea                	ld	s1,184(sp)
   107a6:	794a                	ld	s2,176(sp)
   107a8:	79aa                	ld	s3,168(sp)
   107aa:	7a0a                	ld	s4,160(sp)
   107ac:	6aea                	ld	s5,152(sp)
   107ae:	6b4a                	ld	s6,144(sp)
   107b0:	6baa                	ld	s7,136(sp)
   107b2:	6169                	addi	sp,sp,208
   107b4:	8082                	ret
   107b6:	5479                	li	s0,-2
   107b8:	b765                	j	10760 <sd_copy+0xf6>

00000000000107ba <gpt_find_boot_partition>:
   107ba:	715d                	addi	sp,sp,-80
   107bc:	e0a2                	sd	s0,64(sp)
   107be:	f052                	sd	s4,32(sp)
   107c0:	e486                	sd	ra,72(sp)
   107c2:	fc26                	sd	s1,56(sp)
   107c4:	f84a                	sd	s2,48(sp)
   107c6:	f44e                	sd	s3,40(sp)
   107c8:	ec56                	sd	s5,24(sp)
   107ca:	e85a                	sd	s6,16(sp)
   107cc:	e45e                	sd	s7,8(sp)
   107ce:	e062                	sd	s8,0(sp)
   107d0:	0880                	addi	s0,sp,80
   107d2:	8a2a                	mv	s4,a0
   107d4:	df7ff0ef          	jal	ra,105ca <init_sd>
   107d8:	c51d                	beqz	a0,10806 <gpt_find_boot_partition+0x4c>
   107da:	00001517          	auipc	a0,0x1
   107de:	22e50513          	addi	a0,a0,558 # 11a08 <_BSS_END_+0xe08>
   107e2:	993ff0ef          	jal	ra,10174 <print_uart>
   107e6:	54fd                	li	s1,-1
   107e8:	fb040113          	addi	sp,s0,-80
   107ec:	60a6                	ld	ra,72(sp)
   107ee:	8526                	mv	a0,s1
   107f0:	6406                	ld	s0,64(sp)
   107f2:	74e2                	ld	s1,56(sp)
   107f4:	7942                	ld	s2,48(sp)
   107f6:	79a2                	ld	s3,40(sp)
   107f8:	7a02                	ld	s4,32(sp)
   107fa:	6ae2                	ld	s5,24(sp)
   107fc:	6b42                	ld	s6,16(sp)
   107fe:	6ba2                	ld	s7,8(sp)
   10800:	6c02                	ld	s8,0(sp)
   10802:	6161                	addi	sp,sp,80
   10804:	8082                	ret
   10806:	00001517          	auipc	a0,0x1
   1080a:	22a50513          	addi	a0,a0,554 # 11a30 <_BSS_END_+0xe30>
   1080e:	967ff0ef          	jal	ra,10174 <print_uart>
   10812:	7101                	addi	sp,sp,-512
   10814:	4605                	li	a2,1
   10816:	4585                	li	a1,1
   10818:	850a                	mv	a0,sp
   1081a:	e51ff0ef          	jal	ra,1066a <sd_copy>
   1081e:	890a                	mv	s2,sp
   10820:	84aa                	mv	s1,a0
   10822:	c905                	beqz	a0,10852 <gpt_find_boot_partition+0x98>
   10824:	00001517          	auipc	a0,0x1
   10828:	22450513          	addi	a0,a0,548 # 11a48 <_BSS_END_+0xe48>
   1082c:	949ff0ef          	jal	ra,10174 <print_uart>
   10830:	00001517          	auipc	a0,0x1
   10834:	23050513          	addi	a0,a0,560 # 11a60 <_BSS_END_+0xe60>
   10838:	93dff0ef          	jal	ra,10174 <print_uart>
   1083c:	8526                	mv	a0,s1
   1083e:	9b9ff0ef          	jal	ra,101f6 <print_uart_addr>
   10842:	00001517          	auipc	a0,0x1
   10846:	12e50513          	addi	a0,a0,302 # 11970 <_BSS_END_+0xd70>
   1084a:	92bff0ef          	jal	ra,10174 <print_uart>
   1084e:	54f9                	li	s1,-2
   10850:	bf61                	j	107e8 <gpt_find_boot_partition+0x2e>
   10852:	00001517          	auipc	a0,0x1
   10856:	22650513          	addi	a0,a0,550 # 11a78 <_BSS_END_+0xe78>
   1085a:	91bff0ef          	jal	ra,10174 <print_uart>
   1085e:	00001517          	auipc	a0,0x1
   10862:	23a50513          	addi	a0,a0,570 # 11a98 <_BSS_END_+0xe98>
   10866:	90fff0ef          	jal	ra,10174 <print_uart>
   1086a:	6502                	ld	a0,0(sp)
   1086c:	98bff0ef          	jal	ra,101f6 <print_uart_addr>
   10870:	00001517          	auipc	a0,0x1
   10874:	23850513          	addi	a0,a0,568 # 11aa8 <_BSS_END_+0xea8>
   10878:	8fdff0ef          	jal	ra,10174 <print_uart>
   1087c:	4522                	lw	a0,8(sp)
   1087e:	939ff0ef          	jal	ra,101b6 <print_uart_int>
   10882:	00001517          	auipc	a0,0x1
   10886:	23650513          	addi	a0,a0,566 # 11ab8 <_BSS_END_+0xeb8>
   1088a:	8ebff0ef          	jal	ra,10174 <print_uart>
   1088e:	4532                	lw	a0,12(sp)
   10890:	927ff0ef          	jal	ra,101b6 <print_uart_int>
   10894:	00001517          	auipc	a0,0x1
   10898:	23450513          	addi	a0,a0,564 # 11ac8 <_BSS_END_+0xec8>
   1089c:	8d9ff0ef          	jal	ra,10174 <print_uart>
   108a0:	4542                	lw	a0,16(sp)
   108a2:	915ff0ef          	jal	ra,101b6 <print_uart_int>
   108a6:	00001517          	auipc	a0,0x1
   108aa:	23250513          	addi	a0,a0,562 # 11ad8 <_BSS_END_+0xed8>
   108ae:	8c7ff0ef          	jal	ra,10174 <print_uart>
   108b2:	4552                	lw	a0,20(sp)
   108b4:	903ff0ef          	jal	ra,101b6 <print_uart_int>
   108b8:	00001517          	auipc	a0,0x1
   108bc:	23050513          	addi	a0,a0,560 # 11ae8 <_BSS_END_+0xee8>
   108c0:	8b5ff0ef          	jal	ra,10174 <print_uart>
   108c4:	6562                	ld	a0,24(sp)
   108c6:	931ff0ef          	jal	ra,101f6 <print_uart_addr>
   108ca:	00001517          	auipc	a0,0x1
   108ce:	23650513          	addi	a0,a0,566 # 11b00 <_BSS_END_+0xf00>
   108d2:	8a3ff0ef          	jal	ra,10174 <print_uart>
   108d6:	7502                	ld	a0,32(sp)
   108d8:	91fff0ef          	jal	ra,101f6 <print_uart_addr>
   108dc:	00001517          	auipc	a0,0x1
   108e0:	23450513          	addi	a0,a0,564 # 11b10 <_BSS_END_+0xf10>
   108e4:	891ff0ef          	jal	ra,10174 <print_uart>
   108e8:	6526                	ld	a0,72(sp)
   108ea:	90dff0ef          	jal	ra,101f6 <print_uart_addr>
   108ee:	00001517          	auipc	a0,0x1
   108f2:	24250513          	addi	a0,a0,578 # 11b30 <_BSS_END_+0xf30>
   108f6:	87fff0ef          	jal	ra,10174 <print_uart>
   108fa:	4546                	lw	a0,80(sp)
   108fc:	8bbff0ef          	jal	ra,101b6 <print_uart_int>
   10900:	00001517          	auipc	a0,0x1
   10904:	25050513          	addi	a0,a0,592 # 11b50 <_BSS_END_+0xf50>
   10908:	86dff0ef          	jal	ra,10174 <print_uart>
   1090c:	4556                	lw	a0,84(sp)
   1090e:	8a9ff0ef          	jal	ra,101b6 <print_uart_int>
   10912:	00001517          	auipc	a0,0x1
   10916:	05e50513          	addi	a0,a0,94 # 11970 <_BSS_END_+0xd70>
   1091a:	85bff0ef          	jal	ra,10174 <print_uart>
   1091e:	04892583          	lw	a1,72(s2)
   10922:	7101                	addi	sp,sp,-512
   10924:	4605                	li	a2,1
   10926:	850a                	mv	a0,sp
   10928:	d43ff0ef          	jal	ra,1066a <sd_copy>
   1092c:	8a8a                	mv	s5,sp
   1092e:	892a                	mv	s2,a0
   10930:	1004                	addi	s1,sp,32
   10932:	10051b63          	bnez	a0,10a48 <gpt_find_boot_partition+0x28e>
   10936:	4bc1                	li	s7,16
   10938:	4b11                	li	s6,4
   1093a:	00001517          	auipc	a0,0x1
   1093e:	23650513          	addi	a0,a0,566 # 11b70 <_BSS_END_+0xf70>
   10942:	833ff0ef          	jal	ra,10174 <print_uart>
   10946:	0ff97513          	zext.b	a0,s2
   1094a:	8efff0ef          	jal	ra,10238 <print_uart_byte>
   1094e:	00001517          	auipc	a0,0x1
   10952:	23a50513          	addi	a0,a0,570 # 11b88 <_BSS_END_+0xf88>
   10956:	fe048c13          	addi	s8,s1,-32
   1095a:	81bff0ef          	jal	ra,10174 <print_uart>
   1095e:	4981                	li	s3,0
   10960:	013c07b3          	add	a5,s8,s3
   10964:	0007c503          	lbu	a0,0(a5)
   10968:	0985                	addi	s3,s3,1
   1096a:	8cfff0ef          	jal	ra,10238 <print_uart_byte>
   1096e:	ff7999e3          	bne	s3,s7,10960 <gpt_find_boot_partition+0x1a6>
   10972:	00001517          	auipc	a0,0x1
   10976:	23650513          	addi	a0,a0,566 # 11ba8 <_BSS_END_+0xfa8>
   1097a:	ffaff0ef          	jal	ra,10174 <print_uart>
   1097e:	ff048993          	addi	s3,s1,-16
   10982:	0009c503          	lbu	a0,0(s3)
   10986:	0985                	addi	s3,s3,1
   10988:	8b1ff0ef          	jal	ra,10238 <print_uart_byte>
   1098c:	fe999be3          	bne	s3,s1,10982 <gpt_find_boot_partition+0x1c8>
   10990:	00001517          	auipc	a0,0x1
   10994:	23850513          	addi	a0,a0,568 # 11bc8 <_BSS_END_+0xfc8>
   10998:	fdcff0ef          	jal	ra,10174 <print_uart>
   1099c:	6088                	ld	a0,0(s1)
   1099e:	01848993          	addi	s3,s1,24
   109a2:	06048c13          	addi	s8,s1,96
   109a6:	851ff0ef          	jal	ra,101f6 <print_uart_addr>
   109aa:	00001517          	auipc	a0,0x1
   109ae:	22e50513          	addi	a0,a0,558 # 11bd8 <_BSS_END_+0xfd8>
   109b2:	fc2ff0ef          	jal	ra,10174 <print_uart>
   109b6:	6488                	ld	a0,8(s1)
   109b8:	83fff0ef          	jal	ra,101f6 <print_uart_addr>
   109bc:	00001517          	auipc	a0,0x1
   109c0:	22c50513          	addi	a0,a0,556 # 11be8 <_BSS_END_+0xfe8>
   109c4:	fb0ff0ef          	jal	ra,10174 <print_uart>
   109c8:	6888                	ld	a0,16(s1)
   109ca:	82dff0ef          	jal	ra,101f6 <print_uart_addr>
   109ce:	00001517          	auipc	a0,0x1
   109d2:	22a50513          	addi	a0,a0,554 # 11bf8 <_BSS_END_+0xff8>
   109d6:	f9eff0ef          	jal	ra,10174 <print_uart>
   109da:	0009c503          	lbu	a0,0(s3)
   109de:	0985                	addi	s3,s3,1
   109e0:	859ff0ef          	jal	ra,10238 <print_uart_byte>
   109e4:	ff899be3          	bne	s3,s8,109da <gpt_find_boot_partition+0x220>
   109e8:	00001517          	auipc	a0,0x1
   109ec:	f8850513          	addi	a0,a0,-120 # 11970 <_BSS_END_+0xd70>
   109f0:	2905                	addiw	s2,s2,1
   109f2:	f82ff0ef          	jal	ra,10174 <print_uart>
   109f6:	08048493          	addi	s1,s1,128
   109fa:	f56910e3          	bne	s2,s6,1093a <gpt_find_boot_partition+0x180>
   109fe:	00001517          	auipc	a0,0x1
   10a02:	20a50513          	addi	a0,a0,522 # 11c08 <_BSS_END_+0x1008>
   10a06:	f6eff0ef          	jal	ra,10174 <print_uart>
   10a0a:	028ab603          	ld	a2,40(s5)
   10a0e:	020aa583          	lw	a1,32(s5)
   10a12:	8552                	mv	a0,s4
   10a14:	2605                	addiw	a2,a2,1
   10a16:	9e0d                	subw	a2,a2,a1
   10a18:	c53ff0ef          	jal	ra,1066a <sd_copy>
   10a1c:	84aa                	mv	s1,a0
   10a1e:	c929                	beqz	a0,10a70 <gpt_find_boot_partition+0x2b6>
   10a20:	00001517          	auipc	a0,0x1
   10a24:	02850513          	addi	a0,a0,40 # 11a48 <_BSS_END_+0xe48>
   10a28:	f4cff0ef          	jal	ra,10174 <print_uart>
   10a2c:	00001517          	auipc	a0,0x1
   10a30:	03450513          	addi	a0,a0,52 # 11a60 <_BSS_END_+0xe60>
   10a34:	f40ff0ef          	jal	ra,10174 <print_uart>
   10a38:	8526                	mv	a0,s1
   10a3a:	fbcff0ef          	jal	ra,101f6 <print_uart_addr>
   10a3e:	00001517          	auipc	a0,0x1
   10a42:	f3250513          	addi	a0,a0,-206 # 11970 <_BSS_END_+0xd70>
   10a46:	b511                	j	1084a <gpt_find_boot_partition+0x90>
   10a48:	00001517          	auipc	a0,0x1
   10a4c:	00050513          	mv	a0,a0
   10a50:	f24ff0ef          	jal	ra,10174 <print_uart>
   10a54:	00001517          	auipc	a0,0x1
   10a58:	00c50513          	addi	a0,a0,12 # 11a60 <_BSS_END_+0xe60>
   10a5c:	f18ff0ef          	jal	ra,10174 <print_uart>
   10a60:	854a                	mv	a0,s2
   10a62:	f94ff0ef          	jal	ra,101f6 <print_uart_addr>
   10a66:	00001517          	auipc	a0,0x1
   10a6a:	f0a50513          	addi	a0,a0,-246 # 11970 <_BSS_END_+0xd70>
   10a6e:	bbf1                	j	1084a <gpt_find_boot_partition+0x90>
   10a70:	00001517          	auipc	a0,0x1
   10a74:	1b050513          	addi	a0,a0,432 # 11c20 <_BSS_END_+0x1020>
   10a78:	efcff0ef          	jal	ra,10174 <print_uart>
   10a7c:	b3b5                	j	107e8 <gpt_find_boot_partition+0x2e>

Disassembly of section .text.startup:

0000000000010a7e <main>:
   10a7e:	65f1                	lui	a1,0x1c
   10a80:	02faf537          	lui	a0,0x2faf
   10a84:	1141                	addi	sp,sp,-16
   10a86:	20058593          	addi	a1,a1,512 # 1c200 <_RODATA_END_+0xa5d7>
   10a8a:	08050513          	addi	a0,a0,128 # 2faf080 <_RODATA_END_+0x2f9d457>
   10a8e:	e406                	sd	ra,8(sp)
   10a90:	ea0ff0ef          	jal	ra,10130 <init_uart>
   10a94:	00001517          	auipc	a0,0x1
   10a98:	e9c50513          	addi	a0,a0,-356 # 11930 <_BSS_END_+0xd30>
   10a9c:	ed8ff0ef          	jal	ra,10174 <print_uart>
   10aa0:	4505                	li	a0,1
   10aa2:	65a1                	lui	a1,0x8
   10aa4:	057e                	slli	a0,a0,0x1f
   10aa6:	d15ff0ef          	jal	ra,107ba <gpt_find_boot_partition>
   10aaa:	60a2                	ld	ra,8(sp)
   10aac:	4501                	li	a0,0
   10aae:	0141                	addi	sp,sp,16
   10ab0:	8082                	ret
