
bootrom_64.elf:     file format elf64-littleriscv


Disassembly of section .text.init:

0000000000010000 <_prog_start>:
   10000:	0210049b          	addiw	s1,zero,33
   10004:	01a49493          	slli	s1,s1,0x1a
   10008:	04048493          	addi	s1,s1,64
   1000c:	00000913          	li	s2,0
   10010:	0924a4af          	amoswap.w	s1,s2,(s1)
   10014:	00000493          	li	s1,0
   10018:	f1402973          	csrr	s2,mhartid
   1001c:	03249863          	bne	s1,s2,1004c <_prog_start+0x4c>
   10020:	0210011b          	addiw	sp,zero,33
   10024:	01a11113          	slli	sp,sp,0x1a
   10028:	00000013          	nop
   1002c:	00000013          	nop
   10030:	00000013          	nop
   10034:	00000013          	nop
   10038:	00000013          	nop
   1003c:	00000013          	nop
   10040:	00000013          	nop
   10044:	00000013          	nop
   10048:	00000013          	nop
   1004c:	0210049b          	addiw	s1,zero,33
   10050:	01a49493          	slli	s1,s1,0x1a
   10054:	04048493          	addi	s1,s1,64
   10058:	0004a903          	lw	s2,0(s1)
   1005c:	f14024f3          	csrr	s1,mhartid
   10060:	ff2496e3          	bne	s1,s2,1004c <_prog_start+0x4c>
   10064:	0210049b          	addiw	s1,zero,33
   10068:	01a49493          	slli	s1,s1,0x1a
   1006c:	04048493          	addi	s1,s1,64
   10070:	00190913          	addi	s2,s2,1
   10074:	0924a4af          	amoswap.w	s1,s2,(s1)
   10078:	f1402573          	csrr	a0,mhartid
   1007c:	00001597          	auipc	a1,0x1
   10080:	b8458593          	addi	a1,a1,-1148 # 10c00 <_BSS_END_>
   10084:	0010049b          	addiw	s1,zero,1
   10088:	01f49493          	slli	s1,s1,0x1f
   1008c:	00048067          	jr	s1

Disassembly of section .text:

0000000000010100 <handle_trap>:
   10100:	8082                	ret

0000000000010102 <write_reg_u8>:
   10102:	00b50023          	sb	a1,0(a0)
   10106:	8082                	ret

0000000000010108 <read_reg_u8>:
   10108:	00054503          	lbu	a0,0(a0)
   1010c:	8082                	ret

000000000001010e <is_transmit_empty>:
   1010e:	100007b7          	lui	a5,0x10000
   10112:	0147c503          	lbu	a0,20(a5) # 10000014 <_RODATA_END_+0xffee3eb>
   10116:	02057513          	andi	a0,a0,32
   1011a:	8082                	ret

000000000001011c <write_serial>:
   1011c:	10000737          	lui	a4,0x10000
   10120:	01474783          	lbu	a5,20(a4) # 10000014 <_RODATA_END_+0xffee3eb>
   10124:	0207f793          	andi	a5,a5,32
   10128:	dfe5                	beqz	a5,10120 <write_serial+0x4>
   1012a:	00a70023          	sb	a0,0(a4)
   1012e:	8082                	ret

0000000000010130 <init_uart>:
   10130:	0045959b          	slliw	a1,a1,0x4
   10134:	02b5553b          	divuw	a0,a0,a1
   10138:	100007b7          	lui	a5,0x10000
   1013c:	00078223          	sb	zero,4(a5) # 10000004 <_RODATA_END_+0xffee3db>
   10140:	f8000713          	li	a4,-128
   10144:	00e78623          	sb	a4,12(a5)
   10148:	0ff57713          	zext.b	a4,a0
   1014c:	0085551b          	srliw	a0,a0,0x8
   10150:	00e78023          	sb	a4,0(a5)
   10154:	0ff57513          	zext.b	a0,a0
   10158:	00a78223          	sb	a0,4(a5)
   1015c:	470d                	li	a4,3
   1015e:	00e78623          	sb	a4,12(a5)
   10162:	fc700713          	li	a4,-57
   10166:	00e78423          	sb	a4,8(a5)
   1016a:	02000713          	li	a4,32
   1016e:	00e78823          	sb	a4,16(a5)
   10172:	8082                	ret

0000000000010174 <print_uart>:
   10174:	1141                	addi	sp,sp,-16
   10176:	e022                	sd	s0,0(sp)
   10178:	e406                	sd	ra,8(sp)
   1017a:	842a                	mv	s0,a0
   1017c:	00044503          	lbu	a0,0(s0)
   10180:	e509                	bnez	a0,1018a <print_uart+0x16>
   10182:	60a2                	ld	ra,8(sp)
   10184:	6402                	ld	s0,0(sp)
   10186:	0141                	addi	sp,sp,16
   10188:	8082                	ret
   1018a:	f93ff0ef          	jal	ra,1011c <write_serial>
   1018e:	0405                	addi	s0,s0,1
   10190:	b7f5                	j	1017c <print_uart+0x8>

0000000000010192 <bin_to_hex>:
   10192:	00001797          	auipc	a5,0x1
   10196:	96e78793          	addi	a5,a5,-1682 # 10b00 <bin_to_hex_table>
   1019a:	00f57713          	andi	a4,a0,15
   1019e:	973e                	add	a4,a4,a5
   101a0:	00074703          	lbu	a4,0(a4)
   101a4:	8111                	srli	a0,a0,0x4
   101a6:	97aa                	add	a5,a5,a0
   101a8:	00e580a3          	sb	a4,1(a1)
   101ac:	0007c783          	lbu	a5,0(a5)
   101b0:	00f58023          	sb	a5,0(a1)
   101b4:	8082                	ret

00000000000101b6 <print_uart_int>:
   101b6:	7179                	addi	sp,sp,-48
   101b8:	f022                	sd	s0,32(sp)
   101ba:	ec26                	sd	s1,24(sp)
   101bc:	e84a                	sd	s2,16(sp)
   101be:	f406                	sd	ra,40(sp)
   101c0:	84aa                	mv	s1,a0
   101c2:	4461                	li	s0,24
   101c4:	5961                	li	s2,-8
   101c6:	0084d53b          	srlw	a0,s1,s0
   101ca:	002c                	addi	a1,sp,8
   101cc:	0ff57513          	zext.b	a0,a0
   101d0:	fc3ff0ef          	jal	ra,10192 <bin_to_hex>
   101d4:	00814503          	lbu	a0,8(sp)
   101d8:	3461                	addiw	s0,s0,-8
   101da:	f43ff0ef          	jal	ra,1011c <write_serial>
   101de:	00914503          	lbu	a0,9(sp)
   101e2:	f3bff0ef          	jal	ra,1011c <write_serial>
   101e6:	ff2410e3          	bne	s0,s2,101c6 <print_uart_int+0x10>
   101ea:	70a2                	ld	ra,40(sp)
   101ec:	7402                	ld	s0,32(sp)
   101ee:	64e2                	ld	s1,24(sp)
   101f0:	6942                	ld	s2,16(sp)
   101f2:	6145                	addi	sp,sp,48
   101f4:	8082                	ret

00000000000101f6 <print_uart_addr>:
   101f6:	7179                	addi	sp,sp,-48
   101f8:	f022                	sd	s0,32(sp)
   101fa:	ec26                	sd	s1,24(sp)
   101fc:	e84a                	sd	s2,16(sp)
   101fe:	f406                	sd	ra,40(sp)
   10200:	84aa                	mv	s1,a0
   10202:	03800413          	li	s0,56
   10206:	5961                	li	s2,-8
   10208:	0084d533          	srl	a0,s1,s0
   1020c:	002c                	addi	a1,sp,8
   1020e:	0ff57513          	zext.b	a0,a0
   10212:	f81ff0ef          	jal	ra,10192 <bin_to_hex>
   10216:	00814503          	lbu	a0,8(sp)
   1021a:	3461                	addiw	s0,s0,-8
   1021c:	f01ff0ef          	jal	ra,1011c <write_serial>
   10220:	00914503          	lbu	a0,9(sp)
   10224:	ef9ff0ef          	jal	ra,1011c <write_serial>
   10228:	ff2410e3          	bne	s0,s2,10208 <print_uart_addr+0x12>
   1022c:	70a2                	ld	ra,40(sp)
   1022e:	7402                	ld	s0,32(sp)
   10230:	64e2                	ld	s1,24(sp)
   10232:	6942                	ld	s2,16(sp)
   10234:	6145                	addi	sp,sp,48
   10236:	8082                	ret

0000000000010238 <print_uart_byte>:
   10238:	1101                	addi	sp,sp,-32
   1023a:	002c                	addi	a1,sp,8
   1023c:	ec06                	sd	ra,24(sp)
   1023e:	f55ff0ef          	jal	ra,10192 <bin_to_hex>
   10242:	00814503          	lbu	a0,8(sp)
   10246:	ed7ff0ef          	jal	ra,1011c <write_serial>
   1024a:	00914503          	lbu	a0,9(sp)
   1024e:	60e2                	ld	ra,24(sp)
   10250:	6105                	addi	sp,sp,32
   10252:	b5e9                	j	1011c <write_serial>

0000000000010254 <write_reg>:
   10254:	c10c                	sw	a1,0(a0)
   10256:	8082                	ret

0000000000010258 <read_reg>:
   10258:	4108                	lw	a0,0(a0)
   1025a:	8082                	ret

000000000001025c <spi_init>:
   1025c:	00001517          	auipc	a0,0x1
   10260:	1101                	addi	sp,sp,-32
   10262:	6e450513          	addi	a0,a0,1764 # 11940 <_BSS_END_+0xd40>
   10266:	ec06                	sd	ra,24(sp)
   10268:	e822                	sd	s0,16(sp)
   1026a:	e426                	sd	s1,8(sp)
   1026c:	f09ff0ef          	jal	ra,10174 <print_uart>
   10270:	200007b7          	lui	a5,0x20000
   10274:	4729                	li	a4,10
   10276:	c3b8                	sw	a4,64(a5)
   10278:	47a9                	li	a5,10
   1027a:	0001                	nop
   1027c:	37fd                	addiw	a5,a5,-1 # 1fffffff <_RODATA_END_+0x1ffee3d6>
   1027e:	fff5                	bnez	a5,1027a <spi_init+0x1e>
   10280:	20000437          	lui	s0,0x20000
   10284:	10400793          	li	a5,260
   10288:	d03c                	sw	a5,96(s0)
   1028a:	5064                	lw	s1,100(s0)
   1028c:	00001517          	auipc	a0,0x1
   10290:	6c450513          	addi	a0,a0,1732 # 11950 <_BSS_END_+0xd50>
   10294:	ee1ff0ef          	jal	ra,10174 <print_uart>
   10298:	2481                	sext.w	s1,s1
   1029a:	02049513          	slli	a0,s1,0x20
   1029e:	9101                	srli	a0,a0,0x20
   102a0:	f57ff0ef          	jal	ra,101f6 <print_uart_addr>
   102a4:	00001517          	auipc	a0,0x1
   102a8:	6cc50513          	addi	a0,a0,1740 # 11970 <_BSS_END_+0xd70>
   102ac:	ec9ff0ef          	jal	ra,10174 <print_uart>
   102b0:	16600793          	li	a5,358
   102b4:	d03c                	sw	a5,96(s0)
   102b6:	5064                	lw	s1,100(s0)
   102b8:	00001517          	auipc	a0,0x1
   102bc:	69850513          	addi	a0,a0,1688 # 11950 <_BSS_END_+0xd50>
   102c0:	eb5ff0ef          	jal	ra,10174 <print_uart>
   102c4:	2481                	sext.w	s1,s1
   102c6:	02049513          	slli	a0,s1,0x20
   102ca:	9101                	srli	a0,a0,0x20
   102cc:	f2bff0ef          	jal	ra,101f6 <print_uart_addr>
   102d0:	00001517          	auipc	a0,0x1
   102d4:	6a050513          	addi	a0,a0,1696 # 11970 <_BSS_END_+0xd70>
   102d8:	e9dff0ef          	jal	ra,10174 <print_uart>
   102dc:	4799                	li	a5,6
   102de:	d03c                	sw	a5,96(s0)
   102e0:	6442                	ld	s0,16(sp)
   102e2:	60e2                	ld	ra,24(sp)
   102e4:	64a2                	ld	s1,8(sp)
   102e6:	00001517          	auipc	a0,0x1
   102ea:	67a50513          	addi	a0,a0,1658 # 11960 <_BSS_END_+0xd60>
   102ee:	6105                	addi	sp,sp,32
   102f0:	b551                	j	10174 <print_uart>

00000000000102f2 <spi_txrx>:
   102f2:	1101                	addi	sp,sp,-32
   102f4:	200007b7          	lui	a5,0x20000
   102f8:	ec06                	sd	ra,24(sp)
   102fa:	e822                	sd	s0,16(sp)
   102fc:	e426                	sd	s1,8(sp)
   102fe:	5779                	li	a4,-2
   10300:	dbb8                	sw	a4,112(a5)
   10302:	d7a8                	sw	a0,104(a5)
   10304:	06400793          	li	a5,100
   10308:	0001                	nop
   1030a:	37fd                	addiw	a5,a5,-1 # 1fffffff <_RODATA_END_+0x1ffee3d6>
   1030c:	fff5                	bnez	a5,10308 <spi_txrx+0x16>
   1030e:	200007b7          	lui	a5,0x20000
   10312:	10600713          	li	a4,262
   10316:	d3b8                	sw	a4,96(a5)
   10318:	20000437          	lui	s0,0x20000
   1031c:	507c                	lw	a5,100(s0)
   1031e:	8b85                	andi	a5,a5,1
   10320:	fff5                	bnez	a5,1031c <spi_txrx+0x2a>
   10322:	5464                	lw	s1,108(s0)
   10324:	507c                	lw	a5,100(s0)
   10326:	2481                	sext.w	s1,s1
   10328:	8b85                	andi	a5,a5,1
   1032a:	e395                	bnez	a5,1034e <spi_txrx+0x5c>
   1032c:	00001517          	auipc	a0,0x1
   10330:	64c50513          	addi	a0,a0,1612 # 11978 <_BSS_END_+0xd78>
   10334:	e41ff0ef          	jal	ra,10174 <print_uart>
   10338:	5068                	lw	a0,100(s0)
   1033a:	1502                	slli	a0,a0,0x20
   1033c:	9101                	srli	a0,a0,0x20
   1033e:	eb9ff0ef          	jal	ra,101f6 <print_uart_addr>
   10342:	00001517          	auipc	a0,0x1
   10346:	62e50513          	addi	a0,a0,1582 # 11970 <_BSS_END_+0xd70>
   1034a:	e2bff0ef          	jal	ra,10174 <print_uart>
   1034e:	60e2                	ld	ra,24(sp)
   10350:	6442                	ld	s0,16(sp)
   10352:	200007b7          	lui	a5,0x20000
   10356:	577d                	li	a4,-1
   10358:	dbb8                	sw	a4,112(a5)
   1035a:	4719                	li	a4,6
   1035c:	d3b8                	sw	a4,96(a5)
   1035e:	0ff4f513          	zext.b	a0,s1
   10362:	64a2                	ld	s1,8(sp)
   10364:	6105                	addi	sp,sp,32
   10366:	8082                	ret

0000000000010368 <spi_write_bytes>:
   10368:	10000793          	li	a5,256
   1036c:	06b7ee63          	bltu	a5,a1,103e8 <spi_write_bytes+0x80>
   10370:	200007b7          	lui	a5,0x20000
   10374:	5779                	li	a4,-2
   10376:	dbb8                	sw	a4,112(a5)
   10378:	200006b7          	lui	a3,0x20000
   1037c:	4781                	li	a5,0
   1037e:	0007871b          	sext.w	a4,a5
   10382:	04b76163          	bltu	a4,a1,103c4 <spi_write_bytes+0x5c>
   10386:	03200793          	li	a5,50
   1038a:	0001                	nop
   1038c:	37fd                	addiw	a5,a5,-1 # 1fffffff <_RODATA_END_+0x1ffee3d6>
   1038e:	fff5                	bnez	a5,1038a <spi_write_bytes+0x22>
   10390:	10600713          	li	a4,262
   10394:	200007b7          	lui	a5,0x20000
   10398:	d3b8                	sw	a4,96(a5)
   1039a:	20000737          	lui	a4,0x20000
   1039e:	537c                	lw	a5,100(a4)
   103a0:	8b85                	andi	a5,a5,1
   103a2:	fff5                	bnez	a5,1039e <spi_write_bytes+0x36>
   103a4:	20000537          	lui	a0,0x20000
   103a8:	20000837          	lui	a6,0x20000
   103ac:	0007869b          	sext.w	a3,a5
   103b0:	02b6e163          	bltu	a3,a1,103d2 <spi_write_bytes+0x6a>
   103b4:	200007b7          	lui	a5,0x20000
   103b8:	577d                	li	a4,-1
   103ba:	dbb8                	sw	a4,112(a5)
   103bc:	4719                	li	a4,6
   103be:	d3b8                	sw	a4,96(a5)
   103c0:	4501                	li	a0,0
   103c2:	8082                	ret
   103c4:	00f50733          	add	a4,a0,a5
   103c8:	00074703          	lbu	a4,0(a4) # 20000000 <_RODATA_END_+0x1ffee3d7>
   103cc:	0785                	addi	a5,a5,1 # 20000001 <_RODATA_END_+0x1ffee3d8>
   103ce:	d6b8                	sw	a4,104(a3)
   103d0:	b77d                	j	1037e <spi_write_bytes+0x16>
   103d2:	5178                	lw	a4,100(a0)
   103d4:	8b05                	andi	a4,a4,1
   103d6:	ff69                	bnez	a4,103b0 <spi_write_bytes+0x48>
   103d8:	06c82683          	lw	a3,108(a6) # 2000006c <_RODATA_END_+0x1ffee443>
   103dc:	00f60733          	add	a4,a2,a5
   103e0:	0785                	addi	a5,a5,1
   103e2:	00d70023          	sb	a3,0(a4)
   103e6:	b7d9                	j	103ac <spi_write_bytes+0x44>
   103e8:	557d                	li	a0,-1
   103ea:	8082                	ret

00000000000103ec <sd_dummy>:
   103ec:	0ff00513          	li	a0,255
   103f0:	b709                	j	102f2 <spi_txrx>

00000000000103f2 <sd_cmd>:
   103f2:	1101                	addi	sp,sp,-32
   103f4:	ec06                	sd	ra,24(sp)
   103f6:	e822                	sd	s0,16(sp)
   103f8:	e426                	sd	s1,8(sp)
   103fa:	842e                	mv	s0,a1
   103fc:	84b2                	mv	s1,a2
   103fe:	e04a                	sd	s2,0(sp)
   10400:	892a                	mv	s2,a0
   10402:	febff0ef          	jal	ra,103ec <sd_dummy>
   10406:	04096513          	ori	a0,s2,64
   1040a:	ee9ff0ef          	jal	ra,102f2 <spi_txrx>
   1040e:	0184551b          	srliw	a0,s0,0x18
   10412:	ee1ff0ef          	jal	ra,102f2 <spi_txrx>
   10416:	0104551b          	srliw	a0,s0,0x10
   1041a:	0ff57513          	zext.b	a0,a0
   1041e:	ed5ff0ef          	jal	ra,102f2 <spi_txrx>
   10422:	0084551b          	srliw	a0,s0,0x8
   10426:	0ff57513          	zext.b	a0,a0
   1042a:	ec9ff0ef          	jal	ra,102f2 <spi_txrx>
   1042e:	0ff47513          	zext.b	a0,s0
   10432:	ec1ff0ef          	jal	ra,102f2 <spi_txrx>
   10436:	8526                	mv	a0,s1
   10438:	ebbff0ef          	jal	ra,102f2 <spi_txrx>
   1043c:	06400413          	li	s0,100
   10440:	fadff0ef          	jal	ra,103ec <sd_dummy>
   10444:	0185179b          	slliw	a5,a0,0x18
   10448:	4187d79b          	sraiw	a5,a5,0x18
   1044c:	0007d463          	bgez	a5,10454 <sd_cmd+0x62>
   10450:	147d                	addi	s0,s0,-1 # 1fffffff <_RODATA_END_+0x1ffee3d6>
   10452:	f47d                	bnez	s0,10440 <sd_cmd+0x4e>
   10454:	60e2                	ld	ra,24(sp)
   10456:	6442                	ld	s0,16(sp)
   10458:	64a2                	ld	s1,8(sp)
   1045a:	6902                	ld	s2,0(sp)
   1045c:	6105                	addi	sp,sp,32
   1045e:	8082                	ret

0000000000010460 <print_status>:
   10460:	1101                	addi	sp,sp,-32
   10462:	e426                	sd	s1,8(sp)
   10464:	84aa                	mv	s1,a0
   10466:	00001517          	auipc	a0,0x1
   1046a:	52a50513          	addi	a0,a0,1322 # 11990 <_BSS_END_+0xd90>
   1046e:	ec06                	sd	ra,24(sp)
   10470:	e822                	sd	s0,16(sp)
   10472:	842e                	mv	s0,a1
   10474:	d01ff0ef          	jal	ra,10174 <print_uart>
   10478:	8526                	mv	a0,s1
   1047a:	cfbff0ef          	jal	ra,10174 <print_uart>
   1047e:	00001517          	auipc	a0,0x1
   10482:	52250513          	addi	a0,a0,1314 # 119a0 <_BSS_END_+0xda0>
   10486:	cefff0ef          	jal	ra,10174 <print_uart>
   1048a:	8522                	mv	a0,s0
   1048c:	dadff0ef          	jal	ra,10238 <print_uart_byte>
   10490:	6442                	ld	s0,16(sp)
   10492:	60e2                	ld	ra,24(sp)
   10494:	64a2                	ld	s1,8(sp)
   10496:	00001517          	auipc	a0,0x1
   1049a:	4da50513          	addi	a0,a0,1242 # 11970 <_BSS_END_+0xd70>
   1049e:	6105                	addi	sp,sp,32
   104a0:	b9d1                	j	10174 <print_uart>

00000000000104a2 <sd_cmd0>:
   104a2:	1101                	addi	sp,sp,-32
   104a4:	e822                	sd	s0,16(sp)
   104a6:	6409                	lui	s0,0x2
   104a8:	e04a                	sd	s2,0(sp)
   104aa:	ec06                	sd	ra,24(sp)
   104ac:	e426                	sd	s1,8(sp)
   104ae:	71040413          	addi	s0,s0,1808 # 2710 <ROM_BASE-0xd8f0>
   104b2:	4905                	li	s2,1
   104b4:	09500613          	li	a2,149
   104b8:	4581                	li	a1,0
   104ba:	4501                	li	a0,0
   104bc:	f37ff0ef          	jal	ra,103f2 <sd_cmd>
   104c0:	347d                	addiw	s0,s0,-1
   104c2:	84aa                	mv	s1,a0
   104c4:	f29ff0ef          	jal	ra,103ec <sd_dummy>
   104c8:	c00d                	beqz	s0,104ea <sd_cmd0+0x48>
   104ca:	ff2495e3          	bne	s1,s2,104b4 <sd_cmd0+0x12>
   104ce:	00001517          	auipc	a0,0x1
   104d2:	4e250513          	addi	a0,a0,1250 # 119b0 <_BSS_END_+0xdb0>
   104d6:	4585                	li	a1,1
   104d8:	f89ff0ef          	jal	ra,10460 <print_status>
   104dc:	4505                	li	a0,1
   104de:	60e2                	ld	ra,24(sp)
   104e0:	6442                	ld	s0,16(sp)
   104e2:	64a2                	ld	s1,8(sp)
   104e4:	6902                	ld	s2,0(sp)
   104e6:	6105                	addi	sp,sp,32
   104e8:	8082                	ret
   104ea:	4501                	li	a0,0
   104ec:	bfcd                	j	104de <sd_cmd0+0x3c>

00000000000104ee <sd_cmd8>:
   104ee:	1101                	addi	sp,sp,-32
   104f0:	08700613          	li	a2,135
   104f4:	1aa00593          	li	a1,426
   104f8:	4521                	li	a0,8
   104fa:	ec06                	sd	ra,24(sp)
   104fc:	e822                	sd	s0,16(sp)
   104fe:	e426                	sd	s1,8(sp)
   10500:	e04a                	sd	s2,0(sp)
   10502:	ef1ff0ef          	jal	ra,103f2 <sd_cmd>
   10506:	892a                	mv	s2,a0
   10508:	ee5ff0ef          	jal	ra,103ec <sd_dummy>
   1050c:	ee1ff0ef          	jal	ra,103ec <sd_dummy>
   10510:	eddff0ef          	jal	ra,103ec <sd_dummy>
   10514:	84aa                	mv	s1,a0
   10516:	ed7ff0ef          	jal	ra,103ec <sd_dummy>
   1051a:	842a                	mv	s0,a0
   1051c:	ed1ff0ef          	jal	ra,103ec <sd_dummy>
   10520:	ecdff0ef          	jal	ra,103ec <sd_dummy>
   10524:	4785                	li	a5,1
   10526:	4501                	li	a0,0
   10528:	00f91a63          	bne	s2,a5,1053c <sd_cmd8+0x4e>
   1052c:	88bd                	andi	s1,s1,15
   1052e:	01249763          	bne	s1,s2,1053c <sd_cmd8+0x4e>
   10532:	2401                	sext.w	s0,s0
   10534:	f5640413          	addi	s0,s0,-170
   10538:	00143513          	seqz	a0,s0
   1053c:	60e2                	ld	ra,24(sp)
   1053e:	6442                	ld	s0,16(sp)
   10540:	64a2                	ld	s1,8(sp)
   10542:	6902                	ld	s2,0(sp)
   10544:	6105                	addi	sp,sp,32
   10546:	8082                	ret

0000000000010548 <sd_cmd55>:
   10548:	1141                	addi	sp,sp,-16
   1054a:	06500613          	li	a2,101
   1054e:	4581                	li	a1,0
   10550:	03700513          	li	a0,55
   10554:	e406                	sd	ra,8(sp)
   10556:	e022                	sd	s0,0(sp)
   10558:	e9bff0ef          	jal	ra,103f2 <sd_cmd>
   1055c:	842a                	mv	s0,a0
   1055e:	e8fff0ef          	jal	ra,103ec <sd_dummy>
   10562:	00001517          	auipc	a0,0x1
   10566:	85a2                	mv	a1,s0
   10568:	45650513          	addi	a0,a0,1110 # 119b8 <_BSS_END_+0xdb8>
   1056c:	ef5ff0ef          	jal	ra,10460 <print_status>
   10570:	60a2                	ld	ra,8(sp)
   10572:	0004051b          	sext.w	a0,s0
   10576:	6402                	ld	s0,0(sp)
   10578:	157d                	addi	a0,a0,-1
   1057a:	00153513          	seqz	a0,a0
   1057e:	0141                	addi	sp,sp,16
   10580:	8082                	ret

0000000000010582 <sd_acmd41>:
   10582:	1101                	addi	sp,sp,-32
   10584:	e426                	sd	s1,8(sp)
   10586:	ec06                	sd	ra,24(sp)
   10588:	e822                	sd	s0,16(sp)
   1058a:	4485                	li	s1,1
   1058c:	fbdff0ef          	jal	ra,10548 <sd_cmd55>
   10590:	07700613          	li	a2,119
   10594:	400005b7          	lui	a1,0x40000
   10598:	02900513          	li	a0,41
   1059c:	e57ff0ef          	jal	ra,103f2 <sd_cmd>
   105a0:	842a                	mv	s0,a0
   105a2:	85aa                	mv	a1,a0
   105a4:	00001517          	auipc	a0,0x1
   105a8:	41c50513          	addi	a0,a0,1052 # 119c0 <_BSS_END_+0xdc0>
   105ac:	eb5ff0ef          	jal	ra,10460 <print_status>
   105b0:	e3dff0ef          	jal	ra,103ec <sd_dummy>
   105b4:	fc940ce3          	beq	s0,s1,1058c <sd_acmd41+0xa>
   105b8:	60e2                	ld	ra,24(sp)
   105ba:	0004051b          	sext.w	a0,s0
   105be:	6442                	ld	s0,16(sp)
   105c0:	64a2                	ld	s1,8(sp)
   105c2:	00153513          	seqz	a0,a0
   105c6:	6105                	addi	sp,sp,32
   105c8:	8082                	ret

00000000000105ca <init_sd>:
   105ca:	1141                	addi	sp,sp,-16
   105cc:	e406                	sd	ra,8(sp)
   105ce:	e022                	sd	s0,0(sp)
   105d0:	c8dff0ef          	jal	ra,1025c <spi_init>
   105d4:	00001517          	auipc	a0,0x1
   105d8:	3f450513          	addi	a0,a0,1012 # 119c8 <_BSS_END_+0xdc8>
   105dc:	b99ff0ef          	jal	ra,10174 <print_uart>
   105e0:	4429                	li	s0,10
   105e2:	347d                	addiw	s0,s0,-1
   105e4:	e09ff0ef          	jal	ra,103ec <sd_dummy>
   105e8:	fc6d                	bnez	s0,105e2 <init_sd+0x18>
   105ea:	eb9ff0ef          	jal	ra,104a2 <sd_cmd0>
   105ee:	57fd                	li	a5,-1
   105f0:	c911                	beqz	a0,10604 <init_sd+0x3a>
   105f2:	efdff0ef          	jal	ra,104ee <sd_cmd8>
   105f6:	57f9                	li	a5,-2
   105f8:	c511                	beqz	a0,10604 <init_sd+0x3a>
   105fa:	f89ff0ef          	jal	ra,10582 <sd_acmd41>
   105fe:	57f5                	li	a5,-3
   10600:	c111                	beqz	a0,10604 <init_sd+0x3a>
   10602:	4781                	li	a5,0
   10604:	60a2                	ld	ra,8(sp)
   10606:	6402                	ld	s0,0(sp)
   10608:	853e                	mv	a0,a5
   1060a:	0141                	addi	sp,sp,16
   1060c:	8082                	ret

000000000001060e <crc7>:
   1060e:	8de9                	and	a1,a1,a0
   10610:	0075d79b          	srliw	a5,a1,0x7
   10614:	0045d51b          	srliw	a0,a1,0x4
   10618:	8d3d                	xor	a0,a0,a5
   1061a:	0ff57513          	zext.b	a0,a0
   1061e:	8d2d                	xor	a0,a0,a1
   10620:	0045179b          	slliw	a5,a0,0x4
   10624:	0ff7f793          	zext.b	a5,a5
   10628:	8d3d                	xor	a0,a0,a5
   1062a:	07f57513          	andi	a0,a0,127
   1062e:	8082                	ret

0000000000010630 <crc16>:
   10630:	0085179b          	slliw	a5,a0,0x8
   10634:	0085551b          	srliw	a0,a0,0x8
   10638:	8fc9                	or	a5,a5,a0
   1063a:	17c2                	slli	a5,a5,0x30
   1063c:	93c1                	srli	a5,a5,0x30
   1063e:	00f5c533          	xor	a0,a1,a5
   10642:	0045579b          	srliw	a5,a0,0x4
   10646:	8bbd                	andi	a5,a5,15
   10648:	8d3d                	xor	a0,a0,a5
   1064a:	00c5179b          	slliw	a5,a0,0xc
   1064e:	8d3d                	xor	a0,a0,a5
   10650:	0105171b          	slliw	a4,a0,0x10
   10654:	0107571b          	srliw	a4,a4,0x10
   10658:	6789                	lui	a5,0x2
   1065a:	0057171b          	slliw	a4,a4,0x5
   1065e:	1781                	addi	a5,a5,-32 # 1fe0 <ROM_BASE-0xe020>
   10660:	8ff9                	and	a5,a5,a4
   10662:	8d3d                	xor	a0,a0,a5
   10664:	1542                	slli	a0,a0,0x30
   10666:	9141                	srli	a0,a0,0x30
   10668:	8082                	ret

000000000001066a <sd_copy>:
   1066a:	7155                	addi	sp,sp,-208
   1066c:	f94a                	sd	s2,176(sp)
   1066e:	02061913          	slli	s2,a2,0x20
   10672:	e1a2                	sd	s0,192(sp)
   10674:	fd26                	sd	s1,184(sp)
   10676:	e586                	sd	ra,200(sp)
   10678:	f54e                	sd	s3,168(sp)
   1067a:	f152                	sd	s4,160(sp)
   1067c:	ed56                	sd	s5,152(sp)
   1067e:	e95a                	sd	s6,144(sp)
   10680:	e55e                	sd	s7,136(sp)
   10682:	84aa                	mv	s1,a0
   10684:	842e                	mv	s0,a1
   10686:	02095913          	srli	s2,s2,0x20
   1068a:	4781                	li	a5,0
   1068c:	567d                	li	a2,-1
   1068e:	08000713          	li	a4,128
   10692:	00f106b3          	add	a3,sp,a5
   10696:	00c68023          	sb	a2,0(a3) # 20000000 <_RODATA_END_+0x1ffee3d7>
   1069a:	0785                	addi	a5,a5,1
   1069c:	fee79be3          	bne	a5,a4,10692 <sd_copy+0x28>
   106a0:	0184559b          	srliw	a1,s0,0x18
   106a4:	4501                	li	a0,0
   106a6:	f69ff0ef          	jal	ra,1060e <crc7>
   106aa:	0104559b          	srliw	a1,s0,0x10
   106ae:	0ff5f593          	zext.b	a1,a1
   106b2:	f5dff0ef          	jal	ra,1060e <crc7>
   106b6:	0084559b          	srliw	a1,s0,0x8
   106ba:	0ff5f593          	zext.b	a1,a1
   106be:	f51ff0ef          	jal	ra,1060e <crc7>
   106c2:	0ff47593          	zext.b	a1,s0
   106c6:	f49ff0ef          	jal	ra,1060e <crc7>
   106ca:	0015161b          	slliw	a2,a0,0x1
   106ce:	00166613          	ori	a2,a2,1
   106d2:	0ff67613          	zext.b	a2,a2
   106d6:	85a2                	mv	a1,s0
   106d8:	4549                	li	a0,18
   106da:	d19ff0ef          	jal	ra,103f2 <sd_cmd>
   106de:	e949                	bnez	a0,10770 <sd_copy+0x106>
   106e0:	0fe00a13          	li	s4,254
   106e4:	3e800a93          	li	s5,1000
   106e8:	d05ff0ef          	jal	ra,103ec <sd_dummy>
   106ec:	ff451ee3          	bne	a0,s4,106e8 <sd_copy+0x7e>
   106f0:	4401                	li	s0,0
   106f2:	20048b13          	addi	s6,s1,512
   106f6:	8626                	mv	a2,s1
   106f8:	04000593          	li	a1,64
   106fc:	850a                	mv	a0,sp
   106fe:	c6bff0ef          	jal	ra,10368 <spi_write_bytes>
   10702:	4981                	li	s3,0
   10704:	04000b93          	li	s7,64
   10708:	013487b3          	add	a5,s1,s3
   1070c:	0007c583          	lbu	a1,0(a5)
   10710:	8522                	mv	a0,s0
   10712:	0985                	addi	s3,s3,1
   10714:	f1dff0ef          	jal	ra,10630 <crc16>
   10718:	842a                	mv	s0,a0
   1071a:	ff7997e3          	bne	s3,s7,10708 <sd_copy+0x9e>
   1071e:	04048493          	addi	s1,s1,64
   10722:	fd649ae3          	bne	s1,s6,106f6 <sd_copy+0x8c>
   10726:	cc7ff0ef          	jal	ra,103ec <sd_dummy>
   1072a:	0085199b          	slliw	s3,a0,0x8
   1072e:	19c2                	slli	s3,s3,0x30
   10730:	0309d993          	srli	s3,s3,0x30
   10734:	cb9ff0ef          	jal	ra,103ec <sd_dummy>
   10738:	01356533          	or	a0,a0,s3
   1073c:	1542                	slli	a0,a0,0x30
   1073e:	9141                	srli	a0,a0,0x30
   10740:	2401                	sext.w	s0,s0
   10742:	06851a63          	bne	a0,s0,107b6 <sd_copy+0x14c>
   10746:	035967b3          	rem	a5,s2,s5
   1074a:	e799                	bnez	a5,10758 <sd_copy+0xee>
   1074c:	00001517          	auipc	a0,0x1
   10750:	2b450513          	addi	a0,a0,692 # 11a00 <_BSS_END_+0xe00>
   10754:	a21ff0ef          	jal	ra,10174 <print_uart>
   10758:	197d                	addi	s2,s2,-1
   1075a:	f92047e3          	bgtz	s2,106e8 <sd_copy+0x7e>
   1075e:	4401                	li	s0,0
   10760:	4605                	li	a2,1
   10762:	4581                	li	a1,0
   10764:	4531                	li	a0,12
   10766:	c8dff0ef          	jal	ra,103f2 <sd_cmd>
   1076a:	c83ff0ef          	jal	ra,103ec <sd_dummy>
   1076e:	a805                	j	1079e <sd_copy+0x134>
   10770:	c7dff0ef          	jal	ra,103ec <sd_dummy>
   10774:	c79ff0ef          	jal	ra,103ec <sd_dummy>
   10778:	c75ff0ef          	jal	ra,103ec <sd_dummy>
   1077c:	c71ff0ef          	jal	ra,103ec <sd_dummy>
   10780:	c6dff0ef          	jal	ra,103ec <sd_dummy>
   10784:	c69ff0ef          	jal	ra,103ec <sd_dummy>
   10788:	c65ff0ef          	jal	ra,103ec <sd_dummy>
   1078c:	c61ff0ef          	jal	ra,103ec <sd_dummy>
   10790:	00001517          	auipc	a0,0x1
   10794:	25050513          	addi	a0,a0,592 # 119e0 <_BSS_END_+0xde0>
   10798:	9ddff0ef          	jal	ra,10174 <print_uart>
   1079c:	547d                	li	s0,-1
   1079e:	60ae                	ld	ra,200(sp)
   107a0:	8522                	mv	a0,s0
   107a2:	640e                	ld	s0,192(sp)
   107a4:	74ea                	ld	s1,184(sp)
   107a6:	794a                	ld	s2,176(sp)
   107a8:	79aa                	ld	s3,168(sp)
   107aa:	7a0a                	ld	s4,160(sp)
   107ac:	6aea                	ld	s5,152(sp)
   107ae:	6b4a                	ld	s6,144(sp)
   107b0:	6baa                	ld	s7,136(sp)
   107b2:	6169                	addi	sp,sp,208
   107b4:	8082                	ret
   107b6:	5479                	li	s0,-2
   107b8:	b765                	j	10760 <sd_copy+0xf6>

00000000000107ba <gpt_find_boot_partition>:
   107ba:	715d                	addi	sp,sp,-80
   107bc:	e0a2                	sd	s0,64(sp)
   107be:	f052                	sd	s4,32(sp)
   107c0:	e486                	sd	ra,72(sp)
   107c2:	fc26                	sd	s1,56(sp)
   107c4:	f84a                	sd	s2,48(sp)
   107c6:	f44e                	sd	s3,40(sp)
   107c8:	ec56                	sd	s5,24(sp)
   107ca:	e85a                	sd	s6,16(sp)
   107cc:	e45e                	sd	s7,8(sp)
   107ce:	e062                	sd	s8,0(sp)
   107d0:	0880                	addi	s0,sp,80
   107d2:	8a2a                	mv	s4,a0
   107d4:	df7ff0ef          	jal	ra,105ca <init_sd>
   107d8:	c51d                	beqz	a0,10806 <gpt_find_boot_partition+0x4c>
   107da:	00001517          	auipc	a0,0x1
   107de:	22e50513          	addi	a0,a0,558 # 11a08 <_BSS_END_+0xe08>
   107e2:	993ff0ef          	jal	ra,10174 <print_uart>
   107e6:	54fd                	li	s1,-1
   107e8:	fb040113          	addi	sp,s0,-80
   107ec:	60a6                	ld	ra,72(sp)
   107ee:	8526                	mv	a0,s1
   107f0:	6406                	ld	s0,64(sp)
   107f2:	74e2                	ld	s1,56(sp)
   107f4:	7942                	ld	s2,48(sp)
   107f6:	79a2                	ld	s3,40(sp)
   107f8:	7a02                	ld	s4,32(sp)
   107fa:	6ae2                	ld	s5,24(sp)
   107fc:	6b42                	ld	s6,16(sp)
   107fe:	6ba2                	ld	s7,8(sp)
   10800:	6c02                	ld	s8,0(sp)
   10802:	6161                	addi	sp,sp,80
   10804:	8082                	ret
   10806:	00001517          	auipc	a0,0x1
   1080a:	22a50513          	addi	a0,a0,554 # 11a30 <_BSS_END_+0xe30>
   1080e:	967ff0ef          	jal	ra,10174 <print_uart>
   10812:	7101                	addi	sp,sp,-512
   10814:	4605                	li	a2,1
   10816:	4585                	li	a1,1
   10818:	850a                	mv	a0,sp
   1081a:	e51ff0ef          	jal	ra,1066a <sd_copy>
   1081e:	890a                	mv	s2,sp
   10820:	84aa                	mv	s1,a0
   10822:	c905                	beqz	a0,10852 <gpt_find_boot_partition+0x98>
   10824:	00001517          	auipc	a0,0x1
   10828:	22450513          	addi	a0,a0,548 # 11a48 <_BSS_END_+0xe48>
   1082c:	949ff0ef          	jal	ra,10174 <print_uart>
   10830:	00001517          	auipc	a0,0x1
   10834:	23050513          	addi	a0,a0,560 # 11a60 <_BSS_END_+0xe60>
   10838:	93dff0ef          	jal	ra,10174 <print_uart>
   1083c:	8526                	mv	a0,s1
   1083e:	9b9ff0ef          	jal	ra,101f6 <print_uart_addr>
   10842:	00001517          	auipc	a0,0x1
   10846:	12e50513          	addi	a0,a0,302 # 11970 <_BSS_END_+0xd70>
   1084a:	92bff0ef          	jal	ra,10174 <print_uart>
   1084e:	54f9                	li	s1,-2
   10850:	bf61                	j	107e8 <gpt_find_boot_partition+0x2e>
   10852:	00001517          	auipc	a0,0x1
   10856:	22650513          	addi	a0,a0,550 # 11a78 <_BSS_END_+0xe78>
   1085a:	91bff0ef          	jal	ra,10174 <print_uart>
   1085e:	00001517          	auipc	a0,0x1
   10862:	23a50513          	addi	a0,a0,570 # 11a98 <_BSS_END_+0xe98>
   10866:	90fff0ef          	jal	ra,10174 <print_uart>
   1086a:	6502                	ld	a0,0(sp)
   1086c:	98bff0ef          	jal	ra,101f6 <print_uart_addr>
   10870:	00001517          	auipc	a0,0x1
   10874:	23850513          	addi	a0,a0,568 # 11aa8 <_BSS_END_+0xea8>
   10878:	8fdff0ef          	jal	ra,10174 <print_uart>
   1087c:	4522                	lw	a0,8(sp)
   1087e:	939ff0ef          	jal	ra,101b6 <print_uart_int>
   10882:	00001517          	auipc	a0,0x1
   10886:	23650513          	addi	a0,a0,566 # 11ab8 <_BSS_END_+0xeb8>
   1088a:	8ebff0ef          	jal	ra,10174 <print_uart>
   1088e:	4532                	lw	a0,12(sp)
   10890:	927ff0ef          	jal	ra,101b6 <print_uart_int>
   10894:	00001517          	auipc	a0,0x1
   10898:	23450513          	addi	a0,a0,564 # 11ac8 <_BSS_END_+0xec8>
   1089c:	8d9ff0ef          	jal	ra,10174 <print_uart>
   108a0:	4542                	lw	a0,16(sp)
   108a2:	915ff0ef          	jal	ra,101b6 <print_uart_int>
   108a6:	00001517          	auipc	a0,0x1
   108aa:	23250513          	addi	a0,a0,562 # 11ad8 <_BSS_END_+0xed8>
   108ae:	8c7ff0ef          	jal	ra,10174 <print_uart>
   108b2:	4552                	lw	a0,20(sp)
   108b4:	903ff0ef          	jal	ra,101b6 <print_uart_int>
   108b8:	00001517          	auipc	a0,0x1
   108bc:	23050513          	addi	a0,a0,560 # 11ae8 <_BSS_END_+0xee8>
   108c0:	8b5ff0ef          	jal	ra,10174 <print_uart>
   108c4:	6562                	ld	a0,24(sp)
   108c6:	931ff0ef          	jal	ra,101f6 <print_uart_addr>
   108ca:	00001517          	auipc	a0,0x1
   108ce:	23650513          	addi	a0,a0,566 # 11b00 <_BSS_END_+0xf00>
   108d2:	8a3ff0ef          	jal	ra,10174 <print_uart>
   108d6:	7502                	ld	a0,32(sp)
   108d8:	91fff0ef          	jal	ra,101f6 <print_uart_addr>
   108dc:	00001517          	auipc	a0,0x1
   108e0:	23450513          	addi	a0,a0,564 # 11b10 <_BSS_END_+0xf10>
   108e4:	891ff0ef          	jal	ra,10174 <print_uart>
   108e8:	6526                	ld	a0,72(sp)
   108ea:	90dff0ef          	jal	ra,101f6 <print_uart_addr>
   108ee:	00001517          	auipc	a0,0x1
   108f2:	24250513          	addi	a0,a0,578 # 11b30 <_BSS_END_+0xf30>
   108f6:	87fff0ef          	jal	ra,10174 <print_uart>
   108fa:	4546                	lw	a0,80(sp)
   108fc:	8bbff0ef          	jal	ra,101b6 <print_uart_int>
   10900:	00001517          	auipc	a0,0x1
   10904:	25050513          	addi	a0,a0,592 # 11b50 <_BSS_END_+0xf50>
   10908:	86dff0ef          	jal	ra,10174 <print_uart>
   1090c:	4556                	lw	a0,84(sp)
   1090e:	8a9ff0ef          	jal	ra,101b6 <print_uart_int>
   10912:	00001517          	auipc	a0,0x1
   10916:	05e50513          	addi	a0,a0,94 # 11970 <_BSS_END_+0xd70>
   1091a:	85bff0ef          	jal	ra,10174 <print_uart>
   1091e:	04892583          	lw	a1,72(s2)
   10922:	7101                	addi	sp,sp,-512
   10924:	4605                	li	a2,1
   10926:	850a                	mv	a0,sp
   10928:	d43ff0ef          	jal	ra,1066a <sd_copy>
   1092c:	8a8a                	mv	s5,sp
   1092e:	892a                	mv	s2,a0
   10930:	1004                	addi	s1,sp,32
   10932:	10051b63          	bnez	a0,10a48 <gpt_find_boot_partition+0x28e>
   10936:	4bc1                	li	s7,16
   10938:	4b11                	li	s6,4
   1093a:	00001517          	auipc	a0,0x1
   1093e:	23650513          	addi	a0,a0,566 # 11b70 <_BSS_END_+0xf70>
   10942:	833ff0ef          	jal	ra,10174 <print_uart>
   10946:	0ff97513          	zext.b	a0,s2
   1094a:	8efff0ef          	jal	ra,10238 <print_uart_byte>
   1094e:	00001517          	auipc	a0,0x1
   10952:	23a50513          	addi	a0,a0,570 # 11b88 <_BSS_END_+0xf88>
   10956:	fe048c13          	addi	s8,s1,-32
   1095a:	81bff0ef          	jal	ra,10174 <print_uart>
   1095e:	4981                	li	s3,0
   10960:	013c07b3          	add	a5,s8,s3
   10964:	0007c503          	lbu	a0,0(a5)
   10968:	0985                	addi	s3,s3,1
   1096a:	8cfff0ef          	jal	ra,10238 <print_uart_byte>
   1096e:	ff7999e3          	bne	s3,s7,10960 <gpt_find_boot_partition+0x1a6>
   10972:	00001517          	auipc	a0,0x1
   10976:	23650513          	addi	a0,a0,566 # 11ba8 <_BSS_END_+0xfa8>
   1097a:	ffaff0ef          	jal	ra,10174 <print_uart>
   1097e:	ff048993          	addi	s3,s1,-16
   10982:	0009c503          	lbu	a0,0(s3)
   10986:	0985                	addi	s3,s3,1
   10988:	8b1ff0ef          	jal	ra,10238 <print_uart_byte>
   1098c:	fe999be3          	bne	s3,s1,10982 <gpt_find_boot_partition+0x1c8>
   10990:	00001517          	auipc	a0,0x1
   10994:	23850513          	addi	a0,a0,568 # 11bc8 <_BSS_END_+0xfc8>
   10998:	fdcff0ef          	jal	ra,10174 <print_uart>
   1099c:	6088                	ld	a0,0(s1)
   1099e:	01848993          	addi	s3,s1,24
   109a2:	06048c13          	addi	s8,s1,96
   109a6:	851ff0ef          	jal	ra,101f6 <print_uart_addr>
   109aa:	00001517          	auipc	a0,0x1
   109ae:	22e50513          	addi	a0,a0,558 # 11bd8 <_BSS_END_+0xfd8>
   109b2:	fc2ff0ef          	jal	ra,10174 <print_uart>
   109b6:	6488                	ld	a0,8(s1)
   109b8:	83fff0ef          	jal	ra,101f6 <print_uart_addr>
   109bc:	00001517          	auipc	a0,0x1
   109c0:	22c50513          	addi	a0,a0,556 # 11be8 <_BSS_END_+0xfe8>
   109c4:	fb0ff0ef          	jal	ra,10174 <print_uart>
   109c8:	6888                	ld	a0,16(s1)
   109ca:	82dff0ef          	jal	ra,101f6 <print_uart_addr>
   109ce:	00001517          	auipc	a0,0x1
   109d2:	22a50513          	addi	a0,a0,554 # 11bf8 <_BSS_END_+0xff8>
   109d6:	f9eff0ef          	jal	ra,10174 <print_uart>
   109da:	0009c503          	lbu	a0,0(s3)
   109de:	0985                	addi	s3,s3,1
   109e0:	859ff0ef          	jal	ra,10238 <print_uart_byte>
   109e4:	ff899be3          	bne	s3,s8,109da <gpt_find_boot_partition+0x220>
   109e8:	00001517          	auipc	a0,0x1
   109ec:	f8850513          	addi	a0,a0,-120 # 11970 <_BSS_END_+0xd70>
   109f0:	2905                	addiw	s2,s2,1
   109f2:	f82ff0ef          	jal	ra,10174 <print_uart>
   109f6:	08048493          	addi	s1,s1,128
   109fa:	f56910e3          	bne	s2,s6,1093a <gpt_find_boot_partition+0x180>
   109fe:	00001517          	auipc	a0,0x1
   10a02:	20a50513          	addi	a0,a0,522 # 11c08 <_BSS_END_+0x1008>
   10a06:	f6eff0ef          	jal	ra,10174 <print_uart>
   10a0a:	028ab603          	ld	a2,40(s5)
   10a0e:	020aa583          	lw	a1,32(s5)
   10a12:	8552                	mv	a0,s4
   10a14:	2605                	addiw	a2,a2,1
   10a16:	9e0d                	subw	a2,a2,a1
   10a18:	c53ff0ef          	jal	ra,1066a <sd_copy>
   10a1c:	84aa                	mv	s1,a0
   10a1e:	c929                	beqz	a0,10a70 <gpt_find_boot_partition+0x2b6>
   10a20:	00001517          	auipc	a0,0x1
   10a24:	02850513          	addi	a0,a0,40 # 11a48 <_BSS_END_+0xe48>
   10a28:	f4cff0ef          	jal	ra,10174 <print_uart>
   10a2c:	00001517          	auipc	a0,0x1
   10a30:	03450513          	addi	a0,a0,52 # 11a60 <_BSS_END_+0xe60>
   10a34:	f40ff0ef          	jal	ra,10174 <print_uart>
   10a38:	8526                	mv	a0,s1
   10a3a:	fbcff0ef          	jal	ra,101f6 <print_uart_addr>
   10a3e:	00001517          	auipc	a0,0x1
   10a42:	f3250513          	addi	a0,a0,-206 # 11970 <_BSS_END_+0xd70>
   10a46:	b511                	j	1084a <gpt_find_boot_partition+0x90>
   10a48:	00001517          	auipc	a0,0x1
   10a4c:	00050513          	mv	a0,a0
   10a50:	f24ff0ef          	jal	ra,10174 <print_uart>
   10a54:	00001517          	auipc	a0,0x1
   10a58:	00c50513          	addi	a0,a0,12 # 11a60 <_BSS_END_+0xe60>
   10a5c:	f18ff0ef          	jal	ra,10174 <print_uart>
   10a60:	854a                	mv	a0,s2
   10a62:	f94ff0ef          	jal	ra,101f6 <print_uart_addr>
   10a66:	00001517          	auipc	a0,0x1
   10a6a:	f0a50513          	addi	a0,a0,-246 # 11970 <_BSS_END_+0xd70>
   10a6e:	bbf1                	j	1084a <gpt_find_boot_partition+0x90>
   10a70:	00001517          	auipc	a0,0x1
   10a74:	1b050513          	addi	a0,a0,432 # 11c20 <_BSS_END_+0x1020>
   10a78:	efcff0ef          	jal	ra,10174 <print_uart>
   10a7c:	b3b5                	j	107e8 <gpt_find_boot_partition+0x2e>

Disassembly of section .text.startup:

0000000000010a7e <main>:
   10a7e:	65f1                	lui	a1,0x1c
   10a80:	02faf537          	lui	a0,0x2faf
   10a84:	1141                	addi	sp,sp,-16
   10a86:	20058593          	addi	a1,a1,512 # 1c200 <_RODATA_END_+0xa5d7>
   10a8a:	08050513          	addi	a0,a0,128 # 2faf080 <_RODATA_END_+0x2f9d457>
   10a8e:	e406                	sd	ra,8(sp)
   10a90:	ea0ff0ef          	jal	ra,10130 <init_uart>
   10a94:	00001517          	auipc	a0,0x1
   10a98:	e9c50513          	addi	a0,a0,-356 # 11930 <_BSS_END_+0xd30>
   10a9c:	ed8ff0ef          	jal	ra,10174 <print_uart>
   10aa0:	4505                	li	a0,1
   10aa2:	65a1                	lui	a1,0x8
   10aa4:	057e                	slli	a0,a0,0x1f
   10aa6:	d15ff0ef          	jal	ra,107ba <gpt_find_boot_partition>
   10aaa:	60a2                	ld	ra,8(sp)
   10aac:	4501                	li	a0,0
   10aae:	0141                	addi	sp,sp,16
   10ab0:	8082                	ret

Disassembly of section .data:

0000000000010b00 <bin_to_hex_table>:
   10b00:	3130                	.2byte	0x3130
   10b02:	3332                	.2byte	0x3332
   10b04:	3534                	.2byte	0x3534
   10b06:	3736                	.2byte	0x3736
   10b08:	3938                	.2byte	0x3938
   10b0a:	4241                	li	tp,16
   10b0c:	46454443          	.4byte	0x46454443

Disassembly of section .rodata:

0000000000010c00 <_RODATA_START_>:
   10c00:	0dd0                	addi	a2,sp,724
   10c02:	edfe                	sd	t6,216(sp)
   10c04:	0000                	unimp
   10c06:	2a0d                	addiw	s4,s4,3
   10c08:	0000                	unimp
   10c0a:	3800                	.2byte	0x3800
   10c0c:	0000                	unimp
   10c0e:	580a                	lw	a6,160(sp)
   10c10:	0000                	unimp
   10c12:	2800                	.2byte	0x2800
   10c14:	0000                	unimp
   10c16:	1100                	addi	s0,sp,160
   10c18:	0000                	unimp
   10c1a:	1000                	addi	s0,sp,32
   10c1c:	0000                	unimp
   10c1e:	0000                	unimp
   10c20:	0000                	unimp
   10c22:	d202                	sw	zero,36(sp)
   10c24:	0000                	unimp
   10c26:	200a                	.2byte	0x200a
	...
   10c38:	0000                	unimp
   10c3a:	0100                	addi	s0,sp,128
   10c3c:	0000                	unimp
   10c3e:	0000                	unimp
   10c40:	0000                	unimp
   10c42:	0300                	addi	s0,sp,384
   10c44:	0000                	unimp
   10c46:	0400                	addi	s0,sp,512
   10c48:	0000                	unimp
   10c4a:	0000                	unimp
   10c4c:	0000                	unimp
   10c4e:	0200                	addi	s0,sp,256
   10c50:	0000                	unimp
   10c52:	0300                	addi	s0,sp,384
   10c54:	0000                	unimp
   10c56:	0400                	addi	s0,sp,512
   10c58:	0000                	unimp
   10c5a:	0f00                	addi	s0,sp,912
   10c5c:	0000                	unimp
   10c5e:	0200                	addi	s0,sp,256
   10c60:	0000                	unimp
   10c62:	0300                	addi	s0,sp,384
   10c64:	0000                	unimp
   10c66:	1400                	addi	s0,sp,544
   10c68:	0000                	unimp
   10c6a:	1b00                	addi	s0,sp,432
   10c6c:	7465                	lui	s0,0xffff9
   10c6e:	2c68                	.2byte	0x2c68
   10c70:	7261                	lui	tp,0xffff8
   10c72:	6169                	addi	sp,sp,208
   10c74:	656e                	ld	a0,216(sp)
   10c76:	622d                	lui	tp,0xb
   10c78:	7261                	lui	tp,0xffff8
   10c7a:	2d65                	addiw	s10,s10,25
   10c7c:	6564                	ld	s1,200(a0)
   10c7e:	0076                	c.slli	zero,0x1d
   10c80:	0000                	unimp
   10c82:	0300                	addi	s0,sp,384
   10c84:	0000                	unimp
   10c86:	1000                	addi	s0,sp,32
   10c88:	0000                	unimp
   10c8a:	2600                	.2byte	0x2600
   10c8c:	7465                	lui	s0,0xffff9
   10c8e:	2c68                	.2byte	0x2c68
   10c90:	7261                	lui	tp,0xffff8
   10c92:	6169                	addi	sp,sp,208
   10c94:	656e                	ld	a0,216(sp)
   10c96:	622d                	lui	tp,0xb
   10c98:	7261                	lui	tp,0xffff8
   10c9a:	0065                	c.nop	25
   10c9c:	0000                	unimp
   10c9e:	0100                	addi	s0,sp,128
   10ca0:	736f6863          	bltu	t5,s6,113d0 <_RODATA_START_+0x7d0>
   10ca4:	6e65                	lui	t3,0x19
   10ca6:	0000                	unimp
   10ca8:	0000                	unimp
   10caa:	0300                	addi	s0,sp,384
   10cac:	0000                	unimp
   10cae:	1a00                	addi	s0,sp,304
   10cb0:	0000                	unimp
   10cb2:	2c00                	.2byte	0x2c00
   10cb4:	636f732f          	.4byte	0x636f732f
   10cb8:	7261752f          	.4byte	0x7261752f
   10cbc:	4074                	lw	a3,68(s0)
   10cbe:	3031                	.2byte	0x3031
   10cc0:	3030                	.2byte	0x3030
   10cc2:	3030                	.2byte	0x3030
   10cc4:	3030                	.2byte	0x3030
   10cc6:	313a                	.2byte	0x313a
   10cc8:	3531                	addiw	a0,a0,-20
   10cca:	3032                	.2byte	0x3032
   10ccc:	0030                	addi	a2,sp,8
   10cce:	0000                	unimp
   10cd0:	0000                	unimp
   10cd2:	0200                	addi	s0,sp,256
   10cd4:	0000                	unimp
   10cd6:	0100                	addi	s0,sp,128
   10cd8:	73757063          	bgeu	a0,s7,113f8 <_RODATA_START_+0x7f8>
   10cdc:	0000                	unimp
   10cde:	0000                	unimp
   10ce0:	0000                	unimp
   10ce2:	0300                	addi	s0,sp,384
   10ce4:	0000                	unimp
   10ce6:	0400                	addi	s0,sp,512
   10ce8:	0000                	unimp
   10cea:	0000                	unimp
   10cec:	0000                	unimp
   10cee:	0100                	addi	s0,sp,128
   10cf0:	0000                	unimp
   10cf2:	0300                	addi	s0,sp,384
   10cf4:	0000                	unimp
   10cf6:	0400                	addi	s0,sp,512
   10cf8:	0000                	unimp
   10cfa:	0f00                	addi	s0,sp,912
   10cfc:	0000                	unimp
   10cfe:	0000                	unimp
   10d00:	0000                	unimp
   10d02:	0300                	addi	s0,sp,384
   10d04:	0000                	unimp
   10d06:	0400                	addi	s0,sp,512
   10d08:	0000                	unimp
   10d0a:	3800                	.2byte	0x3800
   10d0c:	7d01                	lui	s10,0xfffe0
   10d0e:	4078                	lw	a4,68(s0)
   10d10:	0000                	unimp
   10d12:	0100                	addi	s0,sp,128
   10d14:	40757063          	bgeu	a0,t2,11114 <_RODATA_START_+0x514>
   10d18:	0030                	addi	a2,sp,8
   10d1a:	0000                	unimp
   10d1c:	0000                	unimp
   10d1e:	0300                	addi	s0,sp,384
   10d20:	0000                	unimp
   10d22:	0400                	addi	s0,sp,512
   10d24:	0000                	unimp
   10d26:	4b00                	lw	s0,16(a4)
   10d28:	fa02                	sd	zero,304(sp)
   10d2a:	80f0                	.2byte	0x80f0
   10d2c:	0000                	unimp
   10d2e:	0300                	addi	s0,sp,384
   10d30:	0000                	unimp
   10d32:	0400                	addi	s0,sp,512
   10d34:	0000                	unimp
   10d36:	5b00                	lw	s0,48(a4)
   10d38:	00757063          	bgeu	a0,t2,10d38 <_RODATA_START_+0x138>
   10d3c:	0000                	unimp
   10d3e:	0300                	addi	s0,sp,384
   10d40:	0000                	unimp
   10d42:	0400                	addi	s0,sp,512
   10d44:	0000                	unimp
   10d46:	6700                	ld	s0,8(a4)
   10d48:	0000                	unimp
   10d4a:	0000                	unimp
   10d4c:	0000                	unimp
   10d4e:	0300                	addi	s0,sp,384
   10d50:	0000                	unimp
   10d52:	0500                	addi	s0,sp,640
   10d54:	0000                	unimp
   10d56:	6b00                	ld	s0,16(a4)
   10d58:	79616b6f          	jal	s6,274ee <_RODATA_END_+0x158c5>
   10d5c:	0000                	unimp
   10d5e:	0000                	unimp
   10d60:	0000                	unimp
   10d62:	0300                	addi	s0,sp,384
   10d64:	0000                	unimp
   10d66:	1200                	addi	s0,sp,288
   10d68:	0000                	unimp
   10d6a:	1b00                	addi	s0,sp,432
   10d6c:	7465                	lui	s0,0xffff9
   10d6e:	2c68                	.2byte	0x2c68
   10d70:	6120                	ld	s0,64(a0)
   10d72:	6972                	ld	s2,280(sp)
   10d74:	6e61                	lui	t3,0x18
   10d76:	0065                	c.nop	25
   10d78:	6972                	ld	s2,280(sp)
   10d7a:	00766373          	csrrsi	t1,0x7,12
   10d7e:	0000                	unimp
   10d80:	0000                	unimp
   10d82:	0300                	addi	s0,sp,384
   10d84:	0000                	unimp
   10d86:	0b00                	addi	s0,sp,400
   10d88:	0000                	unimp
   10d8a:	7200                	ld	s0,32(a2)
   10d8c:	7672                	ld	a2,312(sp)
   10d8e:	3436                	.2byte	0x3436
   10d90:	6d69                	lui	s10,0x1a
   10d92:	6661                	lui	a2,0x18
   10d94:	6364                	ld	s1,192(a4)
   10d96:	0000                	unimp
   10d98:	0000                	unimp
   10d9a:	0300                	addi	s0,sp,384
   10d9c:	0000                	unimp
   10d9e:	0b00                	addi	s0,sp,400
   10da0:	0000                	unimp
   10da2:	7c00                	ld	s0,56(s0)
   10da4:	6972                	ld	s2,280(sp)
   10da6:	2c766373          	csrrsi	t1,0x2c7,12
   10daa:	39337673          	csrrci	a2,0x393,6
   10dae:	0000                	unimp
   10db0:	0000                	unimp
   10db2:	0300                	addi	s0,sp,384
   10db4:	0000                	unimp
   10db6:	0000                	unimp
   10db8:	0000                	unimp
   10dba:	8500                	.2byte	0x8500
   10dbc:	0000                	unimp
   10dbe:	0100                	addi	s0,sp,128
   10dc0:	6e69                	lui	t3,0x1a
   10dc2:	6574                	ld	a3,200(a0)
   10dc4:	7272                	ld	tp,312(sp)
   10dc6:	7075                	c.lui	zero,0xffffd
   10dc8:	2d74                	.2byte	0x2d74
   10dca:	746e6f63          	bltu	t3,t1,11528 <_RODATA_START_+0x928>
   10dce:	6f72                	ld	t5,280(sp)
   10dd0:	6c6c                	ld	a1,216(s0)
   10dd2:	7265                	lui	tp,0xffff9
   10dd4:	0000                	unimp
   10dd6:	0000                	unimp
   10dd8:	0000                	unimp
   10dda:	0300                	addi	s0,sp,384
   10ddc:	0000                	unimp
   10dde:	0400                	addi	s0,sp,512
   10de0:	0000                	unimp
   10de2:	8f00                	.2byte	0x8f00
   10de4:	0000                	unimp
   10de6:	0100                	addi	s0,sp,128
   10de8:	0000                	unimp
   10dea:	0300                	addi	s0,sp,384
   10dec:	0000                	unimp
   10dee:	0000                	unimp
   10df0:	0000                	unimp
   10df2:	a000                	.2byte	0xa000
   10df4:	0000                	unimp
   10df6:	0300                	addi	s0,sp,384
   10df8:	0000                	unimp
   10dfa:	0f00                	addi	s0,sp,912
   10dfc:	0000                	unimp
   10dfe:	1b00                	addi	s0,sp,432
   10e00:	6972                	ld	s2,280(sp)
   10e02:	2c766373          	csrrsi	t1,0x2c7,12
   10e06:	2d757063          	bgeu	a0,s7,110c6 <_RODATA_START_+0x4c6>
   10e0a:	6e69                	lui	t3,0x1a
   10e0c:	6374                	ld	a3,192(a4)
   10e0e:	0000                	unimp
   10e10:	0000                	unimp
   10e12:	0300                	addi	s0,sp,384
   10e14:	0000                	unimp
   10e16:	0400                	addi	s0,sp,512
   10e18:	0000                	unimp
   10e1a:	b500                	.2byte	0xb500
   10e1c:	0000                	unimp
   10e1e:	0200                	addi	s0,sp,256
   10e20:	0000                	unimp
   10e22:	0200                	addi	s0,sp,256
   10e24:	0000                	unimp
   10e26:	0200                	addi	s0,sp,256
   10e28:	0000                	unimp
   10e2a:	0100                	addi	s0,sp,128
   10e2c:	40757063          	bgeu	a0,t2,1122c <_RODATA_START_+0x62c>
   10e30:	0031                	c.nop	12
   10e32:	0000                	unimp
   10e34:	0000                	unimp
   10e36:	0300                	addi	s0,sp,384
   10e38:	0000                	unimp
   10e3a:	0400                	addi	s0,sp,512
   10e3c:	0000                	unimp
   10e3e:	4b00                	lw	s0,16(a4)
   10e40:	fa02                	sd	zero,304(sp)
   10e42:	80f0                	.2byte	0x80f0
   10e44:	0000                	unimp
   10e46:	0300                	addi	s0,sp,384
   10e48:	0000                	unimp
   10e4a:	0400                	addi	s0,sp,512
   10e4c:	0000                	unimp
   10e4e:	5b00                	lw	s0,48(a4)
   10e50:	00757063          	bgeu	a0,t2,10e50 <_RODATA_START_+0x250>
   10e54:	0000                	unimp
   10e56:	0300                	addi	s0,sp,384
   10e58:	0000                	unimp
   10e5a:	0400                	addi	s0,sp,512
   10e5c:	0000                	unimp
   10e5e:	6700                	ld	s0,8(a4)
   10e60:	0000                	unimp
   10e62:	0100                	addi	s0,sp,128
   10e64:	0000                	unimp
   10e66:	0300                	addi	s0,sp,384
   10e68:	0000                	unimp
   10e6a:	0500                	addi	s0,sp,640
   10e6c:	0000                	unimp
   10e6e:	6b00                	ld	s0,16(a4)
   10e70:	79616b6f          	jal	s6,27606 <_RODATA_END_+0x159dd>
   10e74:	0000                	unimp
   10e76:	0000                	unimp
   10e78:	0000                	unimp
   10e7a:	0300                	addi	s0,sp,384
   10e7c:	0000                	unimp
   10e7e:	1200                	addi	s0,sp,288
   10e80:	0000                	unimp
   10e82:	1b00                	addi	s0,sp,432
   10e84:	7465                	lui	s0,0xffff9
   10e86:	2c68                	.2byte	0x2c68
   10e88:	6120                	ld	s0,64(a0)
   10e8a:	6972                	ld	s2,280(sp)
   10e8c:	6e61                	lui	t3,0x18
   10e8e:	0065                	c.nop	25
   10e90:	6972                	ld	s2,280(sp)
   10e92:	00766373          	csrrsi	t1,0x7,12
   10e96:	0000                	unimp
   10e98:	0000                	unimp
   10e9a:	0300                	addi	s0,sp,384
   10e9c:	0000                	unimp
   10e9e:	0b00                	addi	s0,sp,400
   10ea0:	0000                	unimp
   10ea2:	7200                	ld	s0,32(a2)
   10ea4:	7672                	ld	a2,312(sp)
   10ea6:	3436                	.2byte	0x3436
   10ea8:	6d69                	lui	s10,0x1a
   10eaa:	6661                	lui	a2,0x18
   10eac:	6364                	ld	s1,192(a4)
   10eae:	0000                	unimp
   10eb0:	0000                	unimp
   10eb2:	0300                	addi	s0,sp,384
   10eb4:	0000                	unimp
   10eb6:	0b00                	addi	s0,sp,400
   10eb8:	0000                	unimp
   10eba:	7c00                	ld	s0,56(s0)
   10ebc:	6972                	ld	s2,280(sp)
   10ebe:	2c766373          	csrrsi	t1,0x2c7,12
   10ec2:	39337673          	csrrci	a2,0x393,6
   10ec6:	0000                	unimp
   10ec8:	0000                	unimp
   10eca:	0300                	addi	s0,sp,384
   10ecc:	0000                	unimp
   10ece:	0000                	unimp
   10ed0:	0000                	unimp
   10ed2:	8500                	.2byte	0x8500
   10ed4:	0000                	unimp
   10ed6:	0100                	addi	s0,sp,128
   10ed8:	6e69                	lui	t3,0x1a
   10eda:	6574                	ld	a3,200(a0)
   10edc:	7272                	ld	tp,312(sp)
   10ede:	7075                	c.lui	zero,0xffffd
   10ee0:	2d74                	.2byte	0x2d74
   10ee2:	746e6f63          	bltu	t3,t1,11640 <_RODATA_START_+0xa40>
   10ee6:	6f72                	ld	t5,280(sp)
   10ee8:	6c6c                	ld	a1,216(s0)
   10eea:	7265                	lui	tp,0xffff9
   10eec:	0000                	unimp
   10eee:	0000                	unimp
   10ef0:	0000                	unimp
   10ef2:	0300                	addi	s0,sp,384
   10ef4:	0000                	unimp
   10ef6:	0400                	addi	s0,sp,512
   10ef8:	0000                	unimp
   10efa:	8f00                	.2byte	0x8f00
   10efc:	0000                	unimp
   10efe:	0100                	addi	s0,sp,128
   10f00:	0000                	unimp
   10f02:	0300                	addi	s0,sp,384
   10f04:	0000                	unimp
   10f06:	0000                	unimp
   10f08:	0000                	unimp
   10f0a:	a000                	.2byte	0xa000
   10f0c:	0000                	unimp
   10f0e:	0300                	addi	s0,sp,384
   10f10:	0000                	unimp
   10f12:	0f00                	addi	s0,sp,912
   10f14:	0000                	unimp
   10f16:	1b00                	addi	s0,sp,432
   10f18:	6972                	ld	s2,280(sp)
   10f1a:	2c766373          	csrrsi	t1,0x2c7,12
   10f1e:	2d757063          	bgeu	a0,s7,111de <_RODATA_START_+0x5de>
   10f22:	6e69                	lui	t3,0x1a
   10f24:	6374                	ld	a3,192(a4)
   10f26:	0000                	unimp
   10f28:	0000                	unimp
   10f2a:	0300                	addi	s0,sp,384
   10f2c:	0000                	unimp
   10f2e:	0400                	addi	s0,sp,512
   10f30:	0000                	unimp
   10f32:	b500                	.2byte	0xb500
   10f34:	0000                	unimp
   10f36:	0300                	addi	s0,sp,384
   10f38:	0000                	unimp
   10f3a:	0200                	addi	s0,sp,256
   10f3c:	0000                	unimp
   10f3e:	0200                	addi	s0,sp,256
   10f40:	0000                	unimp
   10f42:	0200                	addi	s0,sp,256
   10f44:	0000                	unimp
   10f46:	0100                	addi	s0,sp,128
   10f48:	656d                	lui	a0,0x1b
   10f4a:	6f6d                	lui	t5,0x1b
   10f4c:	7972                	ld	s2,312(sp)
   10f4e:	3840                	.2byte	0x3840
   10f50:	3030                	.2byte	0x3030
   10f52:	3030                	.2byte	0x3030
   10f54:	3030                	.2byte	0x3030
   10f56:	0030                	addi	a2,sp,8
   10f58:	0000                	unimp
   10f5a:	0300                	addi	s0,sp,384
   10f5c:	0000                	unimp
   10f5e:	0700                	addi	s0,sp,896
   10f60:	0000                	unimp
   10f62:	5b00                	lw	s0,48(a4)
   10f64:	656d                	lui	a0,0x1b
   10f66:	6f6d                	lui	t5,0x1b
   10f68:	7972                	ld	s2,312(sp)
   10f6a:	0000                	unimp
   10f6c:	0000                	unimp
   10f6e:	0300                	addi	s0,sp,384
   10f70:	0000                	unimp
   10f72:	1000                	addi	s0,sp,32
   10f74:	0000                	unimp
   10f76:	6700                	ld	s0,8(a4)
   10f78:	0000                	unimp
   10f7a:	0000                	unimp
   10f7c:	0080                	addi	s0,sp,64
   10f7e:	0000                	unimp
   10f80:	0000                	unimp
   10f82:	0000                	unimp
   10f84:	0040                	addi	s0,sp,4
   10f86:	0000                	unimp
   10f88:	0000                	unimp
   10f8a:	0200                	addi	s0,sp,256
   10f8c:	0000                	unimp
   10f8e:	0100                	addi	s0,sp,128
   10f90:	656c                	ld	a1,200(a0)
   10f92:	7364                	ld	s1,224(a4)
   10f94:	0000                	unimp
   10f96:	0000                	unimp
   10f98:	0000                	unimp
   10f9a:	0300                	addi	s0,sp,384
   10f9c:	0000                	unimp
   10f9e:	0a00                	addi	s0,sp,272
   10fa0:	0000                	unimp
   10fa2:	1b00                	addi	s0,sp,432
   10fa4:	6f697067          	.4byte	0x6f697067
   10fa8:	6c2d                	lui	s8,0xb
   10faa:	6465                	lui	s0,0x19
   10fac:	00000073          	ecall
   10fb0:	0000                	unimp
   10fb2:	0100                	addi	s0,sp,128
   10fb4:	6568                	ld	a0,200(a0)
   10fb6:	7261                	lui	tp,0xffff8
   10fb8:	6274                	ld	a3,192(a2)
   10fba:	6165                	addi	sp,sp,112
   10fbc:	2d74                	.2byte	0x2d74
   10fbe:	656c                	ld	a1,200(a0)
   10fc0:	0064                	addi	s1,sp,12
   10fc2:	0000                	unimp
   10fc4:	0000                	unimp
   10fc6:	0300                	addi	s0,sp,384
   10fc8:	0000                	unimp
   10fca:	0c00                	addi	s0,sp,528
   10fcc:	0000                	unimp
   10fce:	bd00                	.2byte	0xbd00
   10fd0:	0000                	unimp
   10fd2:	0100                	addi	s0,sp,128
   10fd4:	0000                	unimp
   10fd6:	0100                	addi	s0,sp,128
   10fd8:	0000                	unimp
   10fda:	0000                	unimp
   10fdc:	0000                	unimp
   10fde:	0300                	addi	s0,sp,384
   10fe0:	0000                	unimp
   10fe2:	0a00                	addi	s0,sp,272
   10fe4:	0000                	unimp
   10fe6:	c300                	sw	s0,0(a4)
   10fe8:	6568                	ld	a0,200(a0)
   10fea:	7261                	lui	tp,0xffff8
   10fec:	6274                	ld	a3,192(a2)
   10fee:	6165                	addi	sp,sp,112
   10ff0:	0074                	addi	a3,sp,12
   10ff2:	0000                	unimp
   10ff4:	0000                	unimp
   10ff6:	0300                	addi	s0,sp,384
   10ff8:	0000                	unimp
   10ffa:	0000                	unimp
   10ffc:	0000                	unimp
   10ffe:	d900                	sw	s0,48(a0)
   11000:	0000                	unimp
   11002:	0200                	addi	s0,sp,256
   11004:	0000                	unimp
   11006:	0200                	addi	s0,sp,256
   11008:	0000                	unimp
   1100a:	0100                	addi	s0,sp,128
   1100c:	00636f73          	csrrsi	t5,0x6,6
   11010:	0000                	unimp
   11012:	0300                	addi	s0,sp,384
   11014:	0000                	unimp
   11016:	0400                	addi	s0,sp,512
   11018:	0000                	unimp
   1101a:	0000                	unimp
   1101c:	0000                	unimp
   1101e:	0200                	addi	s0,sp,256
   11020:	0000                	unimp
   11022:	0300                	addi	s0,sp,384
   11024:	0000                	unimp
   11026:	0400                	addi	s0,sp,512
   11028:	0000                	unimp
   1102a:	0f00                	addi	s0,sp,912
   1102c:	0000                	unimp
   1102e:	0200                	addi	s0,sp,256
   11030:	0000                	unimp
   11032:	0300                	addi	s0,sp,384
   11034:	0000                	unimp
   11036:	1f00                	addi	s0,sp,944
   11038:	0000                	unimp
   1103a:	1b00                	addi	s0,sp,432
   1103c:	7465                	lui	s0,0xffff9
   1103e:	2c68                	.2byte	0x2c68
   11040:	7261                	lui	tp,0xffff8
   11042:	6169                	addi	sp,sp,208
   11044:	656e                	ld	a0,216(sp)
   11046:	622d                	lui	tp,0xb
   11048:	7261                	lui	tp,0xffff8
   1104a:	2d65                	addiw	s10,s10,25 # 1a019 <_RODATA_END_+0x83f0>
   1104c:	00636f73          	csrrsi	t5,0x6,6
   11050:	706d6973          	csrrsi	s2,0x706,26
   11054:	656c                	ld	a1,200(a0)
   11056:	622d                	lui	tp,0xb
   11058:	7375                	lui	t1,0xffffd
   1105a:	0000                	unimp
   1105c:	0000                	unimp
   1105e:	0300                	addi	s0,sp,384
   11060:	0000                	unimp
   11062:	0000                	unimp
   11064:	0000                	unimp
   11066:	f000                	sd	s0,32(s0)
   11068:	0000                	unimp
   1106a:	0100                	addi	s0,sp,128
   1106c:	6e696c63          	bltu	s2,t1,11764 <_RODATA_START_+0xb64>
   11070:	4074                	lw	a3,68(s0)
   11072:	3032                	.2byte	0x3032
   11074:	3030                	.2byte	0x3030
   11076:	3030                	.2byte	0x3030
   11078:	0030                	addi	a2,sp,8
   1107a:	0000                	unimp
   1107c:	0000                	unimp
   1107e:	0300                	addi	s0,sp,384
   11080:	0000                	unimp
   11082:	0d00                	addi	s0,sp,656
   11084:	0000                	unimp
   11086:	1b00                	addi	s0,sp,432
   11088:	6972                	ld	s2,280(sp)
   1108a:	2c766373          	csrrsi	t1,0x2c7,12
   1108e:	6e696c63          	bltu	s2,t1,11786 <_RODATA_START_+0xb86>
   11092:	3074                	.2byte	0x3074
   11094:	0000                	unimp
   11096:	0000                	unimp
   11098:	0000                	unimp
   1109a:	0300                	addi	s0,sp,384
   1109c:	0000                	unimp
   1109e:	2000                	.2byte	0x2000
   110a0:	0000                	unimp
   110a2:	f700                	sd	s0,40(a4)
   110a4:	0000                	unimp
   110a6:	0200                	addi	s0,sp,256
   110a8:	0000                	unimp
   110aa:	0300                	addi	s0,sp,384
   110ac:	0000                	unimp
   110ae:	0200                	addi	s0,sp,256
   110b0:	0000                	unimp
   110b2:	0700                	addi	s0,sp,896
   110b4:	0000                	unimp
   110b6:	0300                	addi	s0,sp,384
   110b8:	0000                	unimp
   110ba:	0300                	addi	s0,sp,384
   110bc:	0000                	unimp
   110be:	0300                	addi	s0,sp,384
   110c0:	0000                	unimp
   110c2:	0700                	addi	s0,sp,896
   110c4:	0000                	unimp
   110c6:	0300                	addi	s0,sp,384
   110c8:	0000                	unimp
   110ca:	1000                	addi	s0,sp,32
   110cc:	0000                	unimp
   110ce:	6700                	ld	s0,8(a4)
   110d0:	0000                	unimp
   110d2:	0000                	unimp
   110d4:	0002                	c.slli64	zero
   110d6:	0000                	unimp
   110d8:	0000                	unimp
   110da:	0000                	unimp
   110dc:	0c00                	addi	s0,sp,528
   110de:	0000                	unimp
   110e0:	0000                	unimp
   110e2:	0300                	addi	s0,sp,384
   110e4:	0000                	unimp
   110e6:	0800                	addi	s0,sp,16
   110e8:	0000                	unimp
   110ea:	0b01                	addi	s6,s6,0
   110ec:	746e6f63          	bltu	t3,t1,1184a <_RODATA_START_+0xc4a>
   110f0:	6f72                	ld	t5,280(sp)
   110f2:	006c                	addi	a1,sp,12
   110f4:	0000                	unimp
   110f6:	0200                	addi	s0,sp,256
   110f8:	0000                	unimp
   110fa:	0100                	addi	s0,sp,128
   110fc:	6e69                	lui	t3,0x1a
   110fe:	6574                	ld	a3,200(a0)
   11100:	7272                	ld	tp,312(sp)
   11102:	7075                	c.lui	zero,0xffffd
   11104:	2d74                	.2byte	0x2d74
   11106:	746e6f63          	bltu	t3,t1,11864 <_RODATA_START_+0xc64>
   1110a:	6f72                	ld	t5,280(sp)
   1110c:	6c6c                	ld	a1,216(s0)
   1110e:	7265                	lui	tp,0xffff9
   11110:	6340                	ld	s0,128(a4)
   11112:	3030                	.2byte	0x3030
   11114:	3030                	.2byte	0x3030
   11116:	3030                	.2byte	0x3030
   11118:	0000                	unimp
   1111a:	0000                	unimp
   1111c:	0000                	unimp
   1111e:	0300                	addi	s0,sp,384
   11120:	0000                	unimp
   11122:	0400                	addi	s0,sp,512
	...
   1112c:	0000                	unimp
   1112e:	0300                	addi	s0,sp,384
   11130:	0000                	unimp
   11132:	0400                	addi	s0,sp,512
   11134:	0000                	unimp
   11136:	8f00                	.2byte	0x8f00
   11138:	0000                	unimp
   1113a:	0100                	addi	s0,sp,128
   1113c:	0000                	unimp
   1113e:	0300                	addi	s0,sp,384
   11140:	0000                	unimp
   11142:	0c00                	addi	s0,sp,528
   11144:	0000                	unimp
   11146:	1b00                	addi	s0,sp,432
   11148:	6972                	ld	s2,280(sp)
   1114a:	2c766373          	csrrsi	t1,0x2c7,12
   1114e:	6c70                	ld	a2,216(s0)
   11150:	6369                	lui	t1,0x1a
   11152:	0030                	addi	a2,sp,8
   11154:	0000                	unimp
   11156:	0300                	addi	s0,sp,384
   11158:	0000                	unimp
   1115a:	0000                	unimp
   1115c:	0000                	unimp
   1115e:	a000                	.2byte	0xa000
   11160:	0000                	unimp
   11162:	0300                	addi	s0,sp,384
   11164:	0000                	unimp
   11166:	2000                	.2byte	0x2000
   11168:	0000                	unimp
   1116a:	f700                	sd	s0,40(a4)
   1116c:	0000                	unimp
   1116e:	0200                	addi	s0,sp,256
   11170:	0000                	unimp
   11172:	0b00                	addi	s0,sp,400
   11174:	0000                	unimp
   11176:	0200                	addi	s0,sp,256
   11178:	0000                	unimp
   1117a:	0900                	addi	s0,sp,144
   1117c:	0000                	unimp
   1117e:	0300                	addi	s0,sp,384
   11180:	0000                	unimp
   11182:	0b00                	addi	s0,sp,400
   11184:	0000                	unimp
   11186:	0300                	addi	s0,sp,384
   11188:	0000                	unimp
   1118a:	0900                	addi	s0,sp,144
   1118c:	0000                	unimp
   1118e:	0300                	addi	s0,sp,384
   11190:	0000                	unimp
   11192:	1000                	addi	s0,sp,32
   11194:	0000                	unimp
   11196:	6700                	ld	s0,8(a4)
   11198:	0000                	unimp
   1119a:	0000                	unimp
   1119c:	000c                	.2byte	0xc
   1119e:	0000                	unimp
   111a0:	0000                	unimp
   111a2:	0000                	unimp
   111a4:	0004                	.2byte	0x4
   111a6:	0000                	unimp
   111a8:	0000                	unimp
   111aa:	0300                	addi	s0,sp,384
   111ac:	0000                	unimp
   111ae:	0400                	addi	s0,sp,512
   111b0:	0000                	unimp
   111b2:	1501                	addi	a0,a0,-32 # 1afe0 <_RODATA_END_+0x93b7>
   111b4:	0000                	unimp
   111b6:	0700                	addi	s0,sp,896
   111b8:	0000                	unimp
   111ba:	0300                	addi	s0,sp,384
   111bc:	0000                	unimp
   111be:	0400                	addi	s0,sp,512
   111c0:	0000                	unimp
   111c2:	2801                	sext.w	a6,a6
   111c4:	0000                	unimp
   111c6:	1e00                	addi	s0,sp,816
   111c8:	0000                	unimp
   111ca:	0300                	addi	s0,sp,384
   111cc:	0000                	unimp
   111ce:	0400                	addi	s0,sp,512
   111d0:	0000                	unimp
   111d2:	b500                	.2byte	0xb500
   111d4:	0000                	unimp
   111d6:	0400                	addi	s0,sp,512
   111d8:	0000                	unimp
   111da:	0200                	addi	s0,sp,256
   111dc:	0000                	unimp
   111de:	0100                	addi	s0,sp,128
   111e0:	6175                	addi	sp,sp,368
   111e2:	7472                	ld	s0,312(sp)
   111e4:	3140                	.2byte	0x3140
   111e6:	3030                	.2byte	0x3030
   111e8:	3030                	.2byte	0x3030
   111ea:	3030                	.2byte	0x3030
   111ec:	0030                	addi	a2,sp,8
   111ee:	0000                	unimp
   111f0:	0000                	unimp
   111f2:	0300                	addi	s0,sp,384
   111f4:	0000                	unimp
   111f6:	0900                	addi	s0,sp,144
   111f8:	0000                	unimp
   111fa:	1b00                	addi	s0,sp,432
   111fc:	736e                	ld	t1,248(sp)
   111fe:	3631                	addiw	a2,a2,-20 # 17fec <_RODATA_END_+0x63c3>
   11200:	3535                	addiw	a0,a0,-19
   11202:	6130                	ld	a2,64(a0)
   11204:	0000                	unimp
   11206:	0000                	unimp
   11208:	0000                	unimp
   1120a:	0300                	addi	s0,sp,384
   1120c:	0000                	unimp
   1120e:	1000                	addi	s0,sp,32
   11210:	0000                	unimp
   11212:	6700                	ld	s0,8(a4)
   11214:	0000                	unimp
   11216:	0000                	unimp
   11218:	0010                	.2byte	0x10
	...
   11222:	0010                	.2byte	0x10
   11224:	0000                	unimp
   11226:	0300                	addi	s0,sp,384
   11228:	0000                	unimp
   1122a:	0400                	addi	s0,sp,512
   1122c:	0000                	unimp
   1122e:	4b00                	lw	s0,16(a4)
   11230:	fa02                	sd	zero,304(sp)
   11232:	80f0                	.2byte	0x80f0
   11234:	0000                	unimp
   11236:	0300                	addi	s0,sp,384
   11238:	0000                	unimp
   1123a:	0400                	addi	s0,sp,512
   1123c:	0000                	unimp
   1123e:	3301                	addiw	t1,t1,-32 # 19fe0 <_RODATA_END_+0x83b7>
   11240:	0100                	addi	s0,sp,128
   11242:	00c2                	slli	ra,ra,0x10
   11244:	0000                	unimp
   11246:	0300                	addi	s0,sp,384
   11248:	0000                	unimp
   1124a:	0400                	addi	s0,sp,512
   1124c:	0000                	unimp
   1124e:	4101                	li	sp,0
   11250:	0000                	unimp
   11252:	0400                	addi	s0,sp,512
   11254:	0000                	unimp
   11256:	0300                	addi	s0,sp,384
   11258:	0000                	unimp
   1125a:	0400                	addi	s0,sp,512
   1125c:	0000                	unimp
   1125e:	5201                	li	tp,-32
   11260:	0000                	unimp
   11262:	0100                	addi	s0,sp,128
   11264:	0000                	unimp
   11266:	0300                	addi	s0,sp,384
   11268:	0000                	unimp
   1126a:	0400                	addi	s0,sp,512
   1126c:	0000                	unimp
   1126e:	5d01                	li	s10,-32
   11270:	0000                	unimp
   11272:	0200                	addi	s0,sp,256
   11274:	0000                	unimp
   11276:	0300                	addi	s0,sp,384
   11278:	0000                	unimp
   1127a:	0400                	addi	s0,sp,512
   1127c:	0000                	unimp
   1127e:	6701                	.2byte	0x6701
   11280:	0000                	unimp
   11282:	0400                	addi	s0,sp,512
   11284:	0000                	unimp
   11286:	0200                	addi	s0,sp,256
   11288:	0000                	unimp
   1128a:	0100                	addi	s0,sp,128
   1128c:	6974                	ld	a3,208(a0)
   1128e:	656d                	lui	a0,0x1b
   11290:	4072                	.2byte	0x4072
   11292:	3831                	addiw	a6,a6,-20
   11294:	3030                	.2byte	0x3030
   11296:	3030                	.2byte	0x3030
   11298:	3030                	.2byte	0x3030
   1129a:	0000                	unimp
   1129c:	0000                	unimp
   1129e:	0300                	addi	s0,sp,384
   112a0:	0000                	unimp
   112a2:	0f00                	addi	s0,sp,912
   112a4:	0000                	unimp
   112a6:	1b00                	addi	s0,sp,432
   112a8:	7570                	ld	a2,232(a0)
   112aa:	706c                	ld	a1,224(s0)
   112ac:	612c                	ld	a1,64(a0)
   112ae:	6270                	ld	a2,192(a2)
   112b0:	745f 6d69 7265      	.byte	0x5f, 0x74, 0x69, 0x6d, 0x65, 0x72
   112b6:	0000                	unimp
   112b8:	0000                	unimp
   112ba:	0300                	addi	s0,sp,384
   112bc:	0000                	unimp
   112be:	1000                	addi	s0,sp,32
   112c0:	0000                	unimp
   112c2:	5201                	li	tp,-32
   112c4:	0000                	unimp
   112c6:	0400                	addi	s0,sp,512
   112c8:	0000                	unimp
   112ca:	0500                	addi	s0,sp,640
   112cc:	0000                	unimp
   112ce:	0600                	addi	s0,sp,768
   112d0:	0000                	unimp
   112d2:	0700                	addi	s0,sp,896
   112d4:	0000                	unimp
   112d6:	0300                	addi	s0,sp,384
   112d8:	0000                	unimp
   112da:	1000                	addi	s0,sp,32
   112dc:	0000                	unimp
   112de:	6700                	ld	s0,8(a4)
   112e0:	0000                	unimp
   112e2:	0000                	unimp
   112e4:	0018                	.2byte	0x18
	...
   112ee:	0010                	.2byte	0x10
   112f0:	0000                	unimp
   112f2:	0300                	addi	s0,sp,384
   112f4:	0000                	unimp
   112f6:	0400                	addi	s0,sp,512
   112f8:	0000                	unimp
   112fa:	4101                	li	sp,0
   112fc:	0000                	unimp
   112fe:	0400                	addi	s0,sp,512
   11300:	0000                	unimp
   11302:	0300                	addi	s0,sp,384
   11304:	0000                	unimp
   11306:	0800                	addi	s0,sp,16
   11308:	0000                	unimp
   1130a:	0b01                	addi	s6,s6,0
   1130c:	746e6f63          	bltu	t3,t1,11a6a <_RODATA_START_+0xe6a>
   11310:	6f72                	ld	t5,280(sp)
   11312:	006c                	addi	a1,sp,12
   11314:	0000                	unimp
   11316:	0200                	addi	s0,sp,256
   11318:	0000                	unimp
   1131a:	0100                	addi	s0,sp,128
   1131c:	7078                	ld	a4,224(s0)
   1131e:	70732d73          	csrrs	s10,0x707,t1
   11322:	4069                	c.li	zero,26
   11324:	3032                	.2byte	0x3032
   11326:	3030                	.2byte	0x3030
   11328:	3030                	.2byte	0x3030
   1132a:	3030                	.2byte	0x3030
   1132c:	0000                	unimp
   1132e:	0000                	unimp
   11330:	0000                	unimp
   11332:	0300                	addi	s0,sp,384
   11334:	0000                	unimp
   11336:	2800                	.2byte	0x2800
   11338:	0000                	unimp
   1133a:	1b00                	addi	s0,sp,432
   1133c:	6c78                	ld	a4,216(s0)
   1133e:	786e                	ld	a6,248(sp)
   11340:	782c                	ld	a1,112(s0)
   11342:	7370                	ld	a2,224(a4)
   11344:	732d                	lui	t1,0xfffeb
   11346:	6970                	ld	a2,208(a0)
   11348:	322d                	addiw	tp,tp,-21 # ffffffffffff8feb <_RODATA_END_+0xfffffffffffe73c2>
   1134a:	302e                	.2byte	0x302e
   1134c:	2e30                	.2byte	0x2e30
   1134e:	0062                	c.slli	zero,0x18
   11350:	6c78                	ld	a4,216(s0)
   11352:	786e                	ld	a6,248(sp)
   11354:	782c                	ld	a1,112(s0)
   11356:	7370                	ld	a2,224(a4)
   11358:	732d                	lui	t1,0xfffeb
   1135a:	6970                	ld	a2,208(a0)
   1135c:	322d                	addiw	tp,tp,-21 # ffffffffffffffeb <_RODATA_END_+0xfffffffffffee3c2>
   1135e:	302e                	.2byte	0x302e
   11360:	2e30                	.2byte	0x2e30
   11362:	0061                	c.nop	24
   11364:	0000                	unimp
   11366:	0300                	addi	s0,sp,384
   11368:	0000                	unimp
   1136a:	0400                	addi	s0,sp,512
   1136c:	0000                	unimp
   1136e:	0000                	unimp
   11370:	0000                	unimp
   11372:	0100                	addi	s0,sp,128
   11374:	0000                	unimp
   11376:	0300                	addi	s0,sp,384
   11378:	0000                	unimp
   1137a:	0400                	addi	s0,sp,512
   1137c:	0000                	unimp
   1137e:	0f00                	addi	s0,sp,912
   11380:	0000                	unimp
   11382:	0000                	unimp
   11384:	0000                	unimp
   11386:	0300                	addi	s0,sp,384
   11388:	0000                	unimp
   1138a:	0400                	addi	s0,sp,512
   1138c:	0000                	unimp
   1138e:	4101                	li	sp,0
   11390:	0000                	unimp
   11392:	0400                	addi	s0,sp,512
   11394:	0000                	unimp
   11396:	0300                	addi	s0,sp,384
   11398:	0000                	unimp
   1139a:	0800                	addi	s0,sp,16
   1139c:	0000                	unimp
   1139e:	5201                	li	tp,-32
   113a0:	0000                	unimp
   113a2:	0200                	addi	s0,sp,256
   113a4:	0000                	unimp
   113a6:	0200                	addi	s0,sp,256
   113a8:	0000                	unimp
   113aa:	0300                	addi	s0,sp,384
   113ac:	0000                	unimp
   113ae:	1000                	addi	s0,sp,32
   113b0:	0000                	unimp
   113b2:	6700                	ld	s0,8(a4)
   113b4:	0000                	unimp
   113b6:	0000                	unimp
   113b8:	0020                	addi	s0,sp,8
	...
   113c2:	0010                	.2byte	0x10
   113c4:	0000                	unimp
   113c6:	0300                	addi	s0,sp,384
   113c8:	0000                	unimp
   113ca:	0800                	addi	s0,sp,16
   113cc:	0000                	unimp
   113ce:	7401                	lui	s0,0xfffe0
   113d0:	746e696b          	.4byte	0x746e696b
   113d4:	7865                	lui	a6,0xffff9
   113d6:	00000037          	lui	zero,0x0
   113da:	0300                	addi	s0,sp,384
   113dc:	0000                	unimp
   113de:	0400                	addi	s0,sp,512
   113e0:	0000                	unimp
   113e2:	8001                	c.srli64	s0
   113e4:	0000                	unimp
   113e6:	0100                	addi	s0,sp,128
   113e8:	0000                	unimp
   113ea:	0300                	addi	s0,sp,384
   113ec:	0000                	unimp
   113ee:	0400                	addi	s0,sp,512
   113f0:	0000                	unimp
   113f2:	9001                	srli	s0,s0,0x20
   113f4:	0000                	unimp
   113f6:	0100                	addi	s0,sp,128
   113f8:	0000                	unimp
   113fa:	0300                	addi	s0,sp,384
   113fc:	0000                	unimp
   113fe:	0400                	addi	s0,sp,512
   11400:	0000                	unimp
   11402:	a101                	j	11802 <_RODATA_START_+0xc02>
   11404:	0000                	unimp
   11406:	0800                	addi	s0,sp,16
   11408:	0000                	unimp
   1140a:	0300                	addi	s0,sp,384
   1140c:	0000                	unimp
   1140e:	0400                	addi	s0,sp,512
   11410:	0000                	unimp
   11412:	b801                	j	10c22 <_RODATA_START_+0x22>
   11414:	0000                	unimp
   11416:	0400                	addi	s0,sp,512
   11418:	0000                	unimp
   1141a:	0100                	addi	s0,sp,128
   1141c:	6d6d                	lui	s10,0x1b
   1141e:	00304063          	bgtz	gp,1141e <_RODATA_START_+0x81e>
   11422:	0000                	unimp
   11424:	0000                	unimp
   11426:	0300                	addi	s0,sp,384
   11428:	0000                	unimp
   1142a:	0d00                	addi	s0,sp,656
   1142c:	0000                	unimp
   1142e:	1b00                	addi	s0,sp,432
   11430:	6d6d                	lui	s10,0x1b
   11432:	70732d63          	.4byte	0x70732d63
   11436:	2d69                	addiw	s10,s10,26 # 1b01a <_RODATA_END_+0x93f1>
   11438:	746f6c73          	csrrsi	s8,0x746,30
   1143c:	0000                	unimp
   1143e:	0000                	unimp
   11440:	0000                	unimp
   11442:	0300                	addi	s0,sp,384
   11444:	0000                	unimp
   11446:	0400                	addi	s0,sp,512
   11448:	0000                	unimp
   1144a:	6700                	ld	s0,8(a4)
   1144c:	0000                	unimp
   1144e:	0000                	unimp
   11450:	0000                	unimp
   11452:	0300                	addi	s0,sp,384
   11454:	0000                	unimp
   11456:	0400                	addi	s0,sp,512
   11458:	0000                	unimp
   1145a:	c701                	beqz	a4,11462 <_RODATA_START_+0x862>
   1145c:	be00                	.2byte	0xbe00
   1145e:	20bc                	.2byte	0x20bc
   11460:	0000                	unimp
   11462:	0300                	addi	s0,sp,384
   11464:	0000                	unimp
   11466:	0800                	addi	s0,sp,16
   11468:	0000                	unimp
   1146a:	d901                	beqz	a0,1137a <_RODATA_START_+0x77a>
   1146c:	0000                	unimp
   1146e:	e40c                	sd	a1,8(s0)
   11470:	0000                	unimp
   11472:	e40c                	sd	a1,8(s0)
   11474:	0000                	unimp
   11476:	0300                	addi	s0,sp,384
   11478:	0000                	unimp
   1147a:	0000                	unimp
   1147c:	0000                	unimp
   1147e:	e801                	bnez	s0,1148e <_RODATA_START_+0x88e>
   11480:	0000                	unimp
   11482:	0200                	addi	s0,sp,256
   11484:	0000                	unimp
   11486:	0200                	addi	s0,sp,256
   11488:	0000                	unimp
   1148a:	0100                	addi	s0,sp,128
   1148c:	6f6c                	ld	a1,216(a4)
   1148e:	73697277          	.4byte	0x73697277
   11492:	74652d63          	.4byte	0x74652d63
   11496:	4068                	lw	a0,68(s0)
   11498:	30303033          	.4byte	0x30303033
   1149c:	3030                	.2byte	0x3030
   1149e:	3030                	.2byte	0x3030
   114a0:	0000                	unimp
   114a2:	0000                	unimp
   114a4:	0000                	unimp
   114a6:	0300                	addi	s0,sp,384
   114a8:	0000                	unimp
   114aa:	0c00                	addi	s0,sp,528
   114ac:	0000                	unimp
   114ae:	1b00                	addi	s0,sp,432
   114b0:	6f6c                	ld	a1,216(a4)
   114b2:	73697277          	.4byte	0x73697277
   114b6:	74652d63          	.4byte	0x74652d63
   114ba:	0068                	addi	a0,sp,12
   114bc:	0000                	unimp
   114be:	0300                	addi	s0,sp,384
   114c0:	0000                	unimp
   114c2:	0800                	addi	s0,sp,16
   114c4:	0000                	unimp
   114c6:	5b00                	lw	s0,48(a4)
   114c8:	656e                	ld	a0,216(sp)
   114ca:	7774                	ld	a3,232(a4)
   114cc:	006b726f          	jal	tp,c84d2 <_RODATA_END_+0xb68a9>
   114d0:	0000                	unimp
   114d2:	0300                	addi	s0,sp,384
   114d4:	0000                	unimp
   114d6:	0400                	addi	s0,sp,512
   114d8:	0000                	unimp
   114da:	4101                	li	sp,0
   114dc:	0000                	unimp
   114de:	0400                	addi	s0,sp,512
   114e0:	0000                	unimp
   114e2:	0300                	addi	s0,sp,384
   114e4:	0000                	unimp
   114e6:	0800                	addi	s0,sp,16
   114e8:	0000                	unimp
   114ea:	5201                	li	tp,-32
   114ec:	0000                	unimp
   114ee:	0300                	addi	s0,sp,384
   114f0:	0000                	unimp
   114f2:	0000                	unimp
   114f4:	0000                	unimp
   114f6:	0300                	addi	s0,sp,384
   114f8:	0000                	unimp
   114fa:	0600                	addi	s0,sp,768
   114fc:	0000                	unimp
   114fe:	f301                	bnez	a4,113fe <_RODATA_START_+0x7fe>
   11500:	1800                	addi	s0,sp,48
   11502:	023e                	slli	tp,tp,0xf
   11504:	00007fe3          	bgeu	zero,zero,11d22 <_RODATA_END_+0xf9>
   11508:	0000                	unimp
   1150a:	0300                	addi	s0,sp,384
   1150c:	0000                	unimp
   1150e:	1000                	addi	s0,sp,32
   11510:	0000                	unimp
   11512:	6700                	ld	s0,8(a4)
   11514:	0000                	unimp
   11516:	0000                	unimp
   11518:	0030                	addi	a2,sp,8
	...
   11522:	0080                	addi	s0,sp,64
   11524:	0000                	unimp
   11526:	0200                	addi	s0,sp,256
   11528:	0000                	unimp
   1152a:	0100                	addi	s0,sp,128
   1152c:	6f697067          	.4byte	0x6f697067
   11530:	3440                	.2byte	0x3440
   11532:	3030                	.2byte	0x3030
   11534:	3030                	.2byte	0x3030
   11536:	3030                	.2byte	0x3030
   11538:	0030                	addi	a2,sp,8
   1153a:	0000                	unimp
   1153c:	0000                	unimp
   1153e:	0300                	addi	s0,sp,384
   11540:	0000                	unimp
   11542:	0400                	addi	s0,sp,512
   11544:	0000                	unimp
   11546:	0502                	c.slli64	a0
   11548:	0000                	unimp
   1154a:	0200                	addi	s0,sp,256
   1154c:	0000                	unimp
   1154e:	0300                	addi	s0,sp,384
   11550:	0000                	unimp
   11552:	1500                	addi	s0,sp,672
   11554:	0000                	unimp
   11556:	1b00                	addi	s0,sp,432
   11558:	6c78                	ld	a4,216(s0)
   1155a:	786e                	ld	a6,248(sp)
   1155c:	782c                	ld	a1,112(s0)
   1155e:	7370                	ld	a2,224(a4)
   11560:	672d                	lui	a4,0xb
   11562:	6970                	ld	a2,208(a0)
   11564:	2e312d6f          	jal	s10,24046 <_RODATA_END_+0x1241d>
   11568:	3030                	.2byte	0x3030
   1156a:	612e                	ld	sp,200(sp)
   1156c:	0000                	unimp
   1156e:	0000                	unimp
   11570:	0000                	unimp
   11572:	0300                	addi	s0,sp,384
   11574:	0000                	unimp
   11576:	0000                	unimp
   11578:	0000                	unimp
   1157a:	1102                	slli	sp,sp,0x20
   1157c:	0000                	unimp
   1157e:	0300                	addi	s0,sp,384
   11580:	0000                	unimp
   11582:	1000                	addi	s0,sp,32
   11584:	0000                	unimp
   11586:	6700                	ld	s0,8(a4)
   11588:	0000                	unimp
   1158a:	0000                	unimp
   1158c:	0040                	addi	s0,sp,4
   1158e:	0000                	unimp
   11590:	0000                	unimp
   11592:	0000                	unimp
   11594:	0100                	addi	s0,sp,128
   11596:	0000                	unimp
   11598:	0000                	unimp
   1159a:	0300                	addi	s0,sp,384
   1159c:	0000                	unimp
   1159e:	0400                	addi	s0,sp,512
   115a0:	0000                	unimp
   115a2:	2102                	.2byte	0x2102
   115a4:	0000                	unimp
   115a6:	0000                	unimp
   115a8:	0000                	unimp
   115aa:	0300                	addi	s0,sp,384
   115ac:	0000                	unimp
   115ae:	0400                	addi	s0,sp,512
   115b0:	0000                	unimp
   115b2:	3102                	.2byte	0x3102
   115b4:	0000                	unimp
   115b6:	0000                	unimp
   115b8:	0000                	unimp
   115ba:	0300                	addi	s0,sp,384
   115bc:	0000                	unimp
   115be:	0400                	addi	s0,sp,512
   115c0:	0000                	unimp
   115c2:	4302                	lw	t1,0(sp)
   115c4:	0000                	unimp
   115c6:	0000                	unimp
   115c8:	0000                	unimp
   115ca:	0300                	addi	s0,sp,384
   115cc:	0000                	unimp
   115ce:	0400                	addi	s0,sp,512
   115d0:	0000                	unimp
   115d2:	5502                	lw	a0,32(sp)
   115d4:	0000                	unimp
   115d6:	0000                	unimp
   115d8:	0000                	unimp
   115da:	0300                	addi	s0,sp,384
   115dc:	0000                	unimp
   115de:	0400                	addi	s0,sp,512
   115e0:	0000                	unimp
   115e2:	6902                	ld	s2,0(sp)
   115e4:	0000                	unimp
   115e6:	0800                	addi	s0,sp,16
   115e8:	0000                	unimp
   115ea:	0300                	addi	s0,sp,384
   115ec:	0000                	unimp
   115ee:	0400                	addi	s0,sp,512
   115f0:	0000                	unimp
   115f2:	7902                	ld	s2,32(sp)
   115f4:	0000                	unimp
   115f6:	0800                	addi	s0,sp,16
   115f8:	0000                	unimp
   115fa:	0300                	addi	s0,sp,384
   115fc:	0000                	unimp
   115fe:	0400                	addi	s0,sp,512
   11600:	0000                	unimp
   11602:	8a02                	jr	s4
   11604:	0000                	unimp
   11606:	0000                	unimp
   11608:	0000                	unimp
   1160a:	0300                	addi	s0,sp,384
   1160c:	0000                	unimp
   1160e:	0400                	addi	s0,sp,512
   11610:	0000                	unimp
   11612:	a102                	.2byte	0xa102
   11614:	0000                	unimp
   11616:	0100                	addi	s0,sp,128
   11618:	0000                	unimp
   1161a:	0300                	addi	s0,sp,384
   1161c:	0000                	unimp
   1161e:	0400                	addi	s0,sp,512
   11620:	0000                	unimp
   11622:	ae02                	.2byte	0xae02
   11624:	ffff                	.2byte	0xffff
   11626:	ffff                	.2byte	0xffff
   11628:	0000                	unimp
   1162a:	0300                	addi	s0,sp,384
   1162c:	0000                	unimp
   1162e:	0400                	addi	s0,sp,512
   11630:	0000                	unimp
   11632:	bf02                	.2byte	0xbf02
   11634:	ffff                	.2byte	0xffff
   11636:	ffff                	.2byte	0xffff
   11638:	0000                	unimp
   1163a:	0300                	addi	s0,sp,384
   1163c:	0000                	unimp
   1163e:	0400                	addi	s0,sp,512
   11640:	0000                	unimp
   11642:	b500                	.2byte	0xb500
   11644:	0000                	unimp
   11646:	0100                	addi	s0,sp,128
   11648:	0000                	unimp
   1164a:	0200                	addi	s0,sp,256
   1164c:	0000                	unimp
   1164e:	0200                	addi	s0,sp,256
   11650:	0000                	unimp
   11652:	0200                	addi	s0,sp,256
   11654:	0000                	unimp
   11656:	0900                	addi	s0,sp,144
   11658:	64646123          	.4byte	0x64646123
   1165c:	6572                	ld	a0,280(sp)
   1165e:	632d7373          	csrrci	t1,0x632,26
   11662:	6c65                	lui	s8,0x19
   11664:	736c                	ld	a1,224(a4)
   11666:	2300                	.2byte	0x2300
   11668:	657a6973          	csrrsi	s2,0x657,20
   1166c:	632d                	lui	t1,0xb
   1166e:	6c65                	lui	s8,0x19
   11670:	736c                	ld	a1,224(a4)
   11672:	6300                	ld	s0,0(a4)
   11674:	61706d6f          	jal	s10,1848a <_RODATA_END_+0x6861>
   11678:	6974                	ld	a3,208(a0)
   1167a:	6c62                	ld	s8,24(sp)
   1167c:	0065                	c.nop	25
   1167e:	6f6d                	lui	t5,0x1b
   11680:	6564                	ld	s1,200(a0)
   11682:	006c                	addi	a1,sp,12
   11684:	6f647473          	csrrci	s0,0x6f6,8
   11688:	7475                	lui	s0,0xffffd
   1168a:	702d                	c.lui	zero,0xfffeb
   1168c:	7461                	lui	s0,0xffff8
   1168e:	0068                	addi	a0,sp,12
   11690:	6974                	ld	a3,208(a0)
   11692:	656d                	lui	a0,0x1b
   11694:	6162                	ld	sp,24(sp)
   11696:	662d6573          	csrrsi	a0,0x662,26
   1169a:	6572                	ld	a0,280(sp)
   1169c:	7571                	lui	a0,0xffffc
   1169e:	6e65                	lui	t3,0x19
   116a0:	63007963          	bgeu	zero,a6,11cd2 <_RODATA_END_+0xa9>
   116a4:	6f6c                	ld	a1,216(a4)
   116a6:	662d6b63          	bltu	s10,sp,11d1c <_RODATA_END_+0xf3>
   116aa:	6572                	ld	a0,280(sp)
   116ac:	7571                	lui	a0,0xffffc
   116ae:	6e65                	lui	t3,0x19
   116b0:	64007963          	bgeu	zero,zero,11d02 <_RODATA_END_+0xd9>
   116b4:	7665                	lui	a2,0xffff9
   116b6:	6369                	lui	t1,0x1a
   116b8:	5f65                	li	t5,-7
   116ba:	7974                	ld	a3,240(a0)
   116bc:	6570                	ld	a2,200(a0)
   116be:	7200                	ld	s0,32(a2)
   116c0:	6765                	lui	a4,0x19
   116c2:	7300                	ld	s0,32(a4)
   116c4:	6174                	ld	a3,192(a0)
   116c6:	7574                	ld	a3,232(a0)
   116c8:	69720073          	.4byte	0x69720073
   116cc:	2c766373          	csrrsi	t1,0x2c7,12
   116d0:	7369                	lui	t1,0xffffa
   116d2:	0061                	c.nop	24
   116d4:	6d6d                	lui	s10,0x1b
   116d6:	2d75                	addiw	s10,s10,29 # 1b01d <_RODATA_END_+0x93f4>
   116d8:	7974                	ld	a3,240(a0)
   116da:	6570                	ld	a2,200(a0)
   116dc:	7400                	ld	s0,40(s0)
   116de:	626c                	ld	a1,192(a2)
   116e0:	732d                	lui	t1,0xfffeb
   116e2:	6c70                	ld	a2,216(s0)
   116e4:	7469                	lui	s0,0xffffa
   116e6:	2300                	.2byte	0x2300
   116e8:	6e69                	lui	t3,0x1a
   116ea:	6574                	ld	a3,200(a0)
   116ec:	7272                	ld	tp,312(sp)
   116ee:	7075                	c.lui	zero,0xffffd
   116f0:	2d74                	.2byte	0x2d74
   116f2:	6c6c6563          	bltu	s8,t1,11dbc <_RODATA_END_+0x193>
   116f6:	6e690073          	.4byte	0x6e690073
   116fa:	6574                	ld	a3,200(a0)
   116fc:	7272                	ld	tp,312(sp)
   116fe:	7075                	c.lui	zero,0xffffd
   11700:	2d74                	.2byte	0x2d74
   11702:	746e6f63          	bltu	t3,t1,11e60 <_RODATA_END_+0x237>
   11706:	6f72                	ld	t5,280(sp)
   11708:	6c6c                	ld	a1,216(s0)
   1170a:	7265                	lui	tp,0xffff9
   1170c:	7000                	ld	s0,32(s0)
   1170e:	6168                	ld	a0,192(a0)
   11710:	646e                	ld	s0,216(sp)
   11712:	656c                	ld	a1,200(a0)
   11714:	6700                	ld	s0,8(a4)
   11716:	6970                	ld	a2,208(a0)
   11718:	6c00736f          	jal	t1,18dd8 <_RODATA_END_+0x71af>
   1171c:	6e69                	lui	t3,0x1a
   1171e:	7875                	lui	a6,0xffffd
   11720:	642c                	ld	a1,72(s0)
   11722:	6665                	lui	a2,0x19
   11724:	7561                	lui	a0,0xffff8
   11726:	746c                	ld	a1,232(s0)
   11728:	742d                	lui	s0,0xfffeb
   1172a:	6972                	ld	s2,280(sp)
   1172c:	72656767          	.4byte	0x72656767
   11730:	7200                	ld	s0,32(a2)
   11732:	7465                	lui	s0,0xffff9
   11734:	6961                	lui	s2,0x18
   11736:	2d6e                	.2byte	0x2d6e
   11738:	74617473          	csrrci	s0,0x746,2
   1173c:	2d65                	addiw	s10,s10,25
   1173e:	70737573          	csrrci	a0,0x707,6
   11742:	6e65                	lui	t3,0x19
   11744:	6564                	ld	s1,200(a0)
   11746:	0064                	addi	s1,sp,12
   11748:	6172                	ld	sp,280(sp)
   1174a:	676e                	ld	a4,216(sp)
   1174c:	7365                	lui	t1,0xffff9
   1174e:	6900                	ld	s0,16(a0)
   11750:	746e                	ld	s0,248(sp)
   11752:	7265                	lui	tp,0xffff9
   11754:	7572                	ld	a0,312(sp)
   11756:	7470                	ld	a2,232(s0)
   11758:	78652d73          	csrrs	s10,0x786,a0
   1175c:	6574                	ld	a3,200(a0)
   1175e:	646e                	ld	s0,216(sp)
   11760:	6465                	lui	s0,0x19
   11762:	7200                	ld	s0,32(a2)
   11764:	6765                	lui	a4,0x19
   11766:	6e2d                	lui	t3,0xb
   11768:	6d61                	lui	s10,0x18
   1176a:	7365                	lui	t1,0xffff9
   1176c:	7200                	ld	s0,32(a2)
   1176e:	7369                	lui	t1,0xffffa
   11770:	6d2c7663          	bgeu	s8,s2,11e3c <_RODATA_END_+0x213>
   11774:	7861                	lui	a6,0xffff8
   11776:	702d                	c.lui	zero,0xfffeb
   11778:	6972                	ld	s2,280(sp)
   1177a:	7469726f          	jal	tp,a8ec0 <_RODATA_END_+0x97297>
   1177e:	0079                	c.nop	30
   11780:	6972                	ld	s2,280(sp)
   11782:	2c766373          	csrrsi	t1,0x2c7,12
   11786:	646e                	ld	s0,216(sp)
   11788:	7665                	lui	a2,0xffff9
   1178a:	6300                	ld	s0,0(a4)
   1178c:	7275                	lui	tp,0xffffd
   1178e:	6572                	ld	a0,280(sp)
   11790:	746e                	ld	s0,248(sp)
   11792:	732d                	lui	t1,0xfffeb
   11794:	6570                	ld	a2,200(a0)
   11796:	6465                	lui	s0,0x19
   11798:	6900                	ld	s0,16(a0)
   1179a:	746e                	ld	s0,248(sp)
   1179c:	7265                	lui	tp,0xffff9
   1179e:	7572                	ld	a0,312(sp)
   117a0:	7470                	ld	a2,232(s0)
   117a2:	702d                	c.lui	zero,0xfffeb
   117a4:	7261                	lui	tp,0xffff8
   117a6:	6e65                	lui	t3,0x19
   117a8:	0074                	addi	a3,sp,12
   117aa:	6e69                	lui	t3,0x1a
   117ac:	6574                	ld	a3,200(a0)
   117ae:	7272                	ld	tp,312(sp)
   117b0:	7075                	c.lui	zero,0xffffd
   117b2:	7374                	ld	a3,224(a4)
   117b4:	7200                	ld	s0,32(a2)
   117b6:	6765                	lui	a4,0x19
   117b8:	732d                	lui	t1,0xfffeb
   117ba:	6968                	ld	a0,208(a0)
   117bc:	7466                	ld	s0,120(sp)
   117be:	7200                	ld	s0,32(a2)
   117c0:	6765                	lui	a4,0x19
   117c2:	692d                	lui	s2,0xb
   117c4:	69772d6f          	jal	s10,8465a <_RODATA_END_+0x72a31>
   117c8:	7464                	ld	s1,232(s0)
   117ca:	0068                	addi	a0,sp,12
   117cc:	6c78                	ld	a4,216(s0)
   117ce:	786e                	ld	a6,248(sp)
   117d0:	662c                	ld	a1,72(a2)
   117d2:	6d61                	lui	s10,0x18
   117d4:	6c69                	lui	s8,0x1a
   117d6:	0079                	c.nop	30
   117d8:	6c78                	ld	a4,216(s0)
   117da:	786e                	ld	a6,248(sp)
   117dc:	662c                	ld	a1,72(a2)
   117de:	6669                	lui	a2,0x1a
   117e0:	78652d6f          	jal	s10,63f66 <_RODATA_END_+0x5233d>
   117e4:	7369                	lui	t1,0xffffa
   117e6:	0074                	addi	a3,sp,12
   117e8:	6c78                	ld	a4,216(s0)
   117ea:	786e                	ld	a6,248(sp)
   117ec:	6e2c                	ld	a1,88(a2)
   117ee:	6d75                	lui	s10,0x1d
   117f0:	732d                	lui	t1,0xfffeb
   117f2:	69622d73          	csrrs	s10,0x696,tp
   117f6:	7374                	ld	a3,224(a4)
   117f8:	7800                	ld	s0,48(s0)
   117fa:	6e6c                	ld	a1,216(a2)
   117fc:	2c78                	.2byte	0x2c78
   117fe:	756e                	ld	a0,248(sp)
   11800:	2d6d                	addiw	s10,s10,27 # 1d01b <_RODATA_END_+0xb3f2>
   11802:	7274                	ld	a3,224(a2)
   11804:	6e61                	lui	t3,0x18
   11806:	72656673          	csrrsi	a2,mhpmevent6h,10
   1180a:	622d                	lui	tp,0xb
   1180c:	7469                	lui	s0,0xffffa
   1180e:	6c780073          	.4byte	0x6c780073
   11812:	786e                	ld	a6,248(sp)
   11814:	732c                	ld	a1,96(a4)
   11816:	722d6b63          	bltu	s10,sp,11f4c <_RODATA_END_+0x323>
   1181a:	7461                	lui	s0,0xffff8
   1181c:	6f69                	lui	t5,0x1a
   1181e:	7300                	ld	s0,32(a4)
   11820:	6970                	ld	a2,208(a0)
   11822:	6d2d                	lui	s10,0xb
   11824:	7861                	lui	a6,0xffff8
   11826:	662d                	lui	a2,0xb
   11828:	6572                	ld	a0,280(sp)
   1182a:	7571                	lui	a0,0xffffc
   1182c:	6e65                	lui	t3,0x19
   1182e:	76007963          	bgeu	zero,zero,11fa0 <_RODATA_END_+0x377>
   11832:	61746c6f          	jal	s8,58648 <_RODATA_END_+0x46a1f>
   11836:	722d6567          	.4byte	0x722d6567
   1183a:	6e61                	lui	t3,0x18
   1183c:	00736567          	.4byte	0x736567
   11840:	6964                	ld	s1,208(a0)
   11842:	6c626173          	csrrsi	sp,0x6c6,4
   11846:	2d65                	addiw	s10,s10,25 # b019 <ROM_BASE-0x4fe7>
   11848:	6c007077          	.4byte	0x6c007077
   1184c:	6c61636f          	jal	t1,27f12 <_RODATA_END_+0x162e9>
   11850:	6d2d                	lui	s10,0xb
   11852:	6361                	lui	t1,0x18
   11854:	612d                	addi	sp,sp,224
   11856:	6464                	ld	s1,200(s0)
   11858:	6572                	ld	a0,280(sp)
   1185a:	23007373          	csrrci	t1,0x230,0
   1185e:	6f697067          	.4byte	0x6f697067
   11862:	632d                	lui	t1,0xb
   11864:	6c65                	lui	s8,0x19
   11866:	736c                	ld	a1,224(a4)
   11868:	6700                	ld	s0,8(a4)
   1186a:	6970                	ld	a2,208(a0)
   1186c:	6f632d6f          	jal	s10,43f62 <_RODATA_END_+0x32339>
   11870:	746e                	ld	s0,248(sp)
   11872:	6f72                	ld	t5,280(sp)
   11874:	6c6c                	ld	a1,216(s0)
   11876:	7265                	lui	tp,0xffff9
   11878:	7800                	ld	s0,48(s0)
   1187a:	6e6c                	ld	a1,216(a2)
   1187c:	2c78                	.2byte	0x2c78
   1187e:	6c61                	lui	s8,0x18
   11880:	2d6c                	.2byte	0x2d6c
   11882:	6e69                	lui	t3,0x1a
   11884:	7570                	ld	a2,232(a0)
   11886:	7374                	ld	a3,224(a4)
   11888:	7800                	ld	s0,48(s0)
   1188a:	6e6c                	ld	a1,216(a2)
   1188c:	2c78                	.2byte	0x2c78
   1188e:	6c61                	lui	s8,0x18
   11890:	2d6c                	.2byte	0x2d6c
   11892:	6e69                	lui	t3,0x1a
   11894:	7570                	ld	a2,232(a0)
   11896:	7374                	ld	a3,224(a4)
   11898:	322d                	addiw	tp,tp,-21 # ffffffffffff8feb <_RODATA_END_+0xfffffffffffe73c2>
   1189a:	7800                	ld	s0,48(s0)
   1189c:	6e6c                	ld	a1,216(a2)
   1189e:	2c78                	.2byte	0x2c78
   118a0:	6f64                	ld	s1,216(a4)
   118a2:	7475                	lui	s0,0xffffd
   118a4:	642d                	lui	s0,0xb
   118a6:	6665                	lui	a2,0x19
   118a8:	7561                	lui	a0,0xffff8
   118aa:	746c                	ld	a1,232(s0)
   118ac:	7800                	ld	s0,48(s0)
   118ae:	6e6c                	ld	a1,216(a2)
   118b0:	2c78                	.2byte	0x2c78
   118b2:	6f64                	ld	s1,216(a4)
   118b4:	7475                	lui	s0,0xffffd
   118b6:	642d                	lui	s0,0xb
   118b8:	6665                	lui	a2,0x19
   118ba:	7561                	lui	a0,0xffff8
   118bc:	746c                	ld	a1,232(s0)
   118be:	322d                	addiw	tp,tp,-21 # ffffffffffffffeb <_RODATA_END_+0xfffffffffffee3c2>
   118c0:	7800                	ld	s0,48(s0)
   118c2:	6e6c                	ld	a1,216(a2)
   118c4:	2c78                	.2byte	0x2c78
   118c6:	6f697067          	.4byte	0x6f697067
   118ca:	772d                	lui	a4,0xfffeb
   118cc:	6469                	lui	s0,0x1a
   118ce:	6874                	ld	a3,208(s0)
   118d0:	7800                	ld	s0,48(s0)
   118d2:	6e6c                	ld	a1,216(a2)
   118d4:	2c78                	.2byte	0x2c78
   118d6:	6f697067          	.4byte	0x6f697067
   118da:	2d32                	.2byte	0x2d32
   118dc:	74646977          	.4byte	0x74646977
   118e0:	0068                	addi	a0,sp,12
   118e2:	6c78                	ld	a4,216(s0)
   118e4:	786e                	ld	a6,248(sp)
   118e6:	692c                	ld	a1,80(a0)
   118e8:	746e                	ld	s0,248(sp)
   118ea:	7265                	lui	tp,0xffff9
   118ec:	7572                	ld	a0,312(sp)
   118ee:	7470                	ld	a2,232(s0)
   118f0:	702d                	c.lui	zero,0xfffeb
   118f2:	6572                	ld	a0,280(sp)
   118f4:	746e6573          	csrrsi	a0,0x746,28
   118f8:	7800                	ld	s0,48(s0)
   118fa:	6e6c                	ld	a1,216(a2)
   118fc:	2c78                	.2byte	0x2c78
   118fe:	7369                	lui	t1,0xffffa
   11900:	642d                	lui	s0,0xb
   11902:	6175                	addi	sp,sp,368
   11904:	006c                	addi	a1,sp,12
   11906:	6c78                	ld	a4,216(s0)
   11908:	786e                	ld	a6,248(sp)
   1190a:	742c                	ld	a1,104(s0)
   1190c:	6972                	ld	s2,280(sp)
   1190e:	642d                	lui	s0,0xb
   11910:	6665                	lui	a2,0x19
   11912:	7561                	lui	a0,0xffff8
   11914:	746c                	ld	a1,232(s0)
   11916:	7800                	ld	s0,48(s0)
   11918:	6e6c                	ld	a1,216(a2)
   1191a:	2c78                	.2byte	0x2c78
   1191c:	7274                	ld	a3,224(a2)
   1191e:	2d69                	addiw	s10,s10,26 # b01a <ROM_BASE-0x4fe6>
   11920:	6564                	ld	s1,200(a0)
   11922:	6166                	ld	sp,88(sp)
   11924:	6c75                	lui	s8,0x1d
   11926:	2d74                	.2byte	0x2d74
   11928:	0032                	c.slli	zero,0xc
   1192a:	0000                	unimp
   1192c:	0000                	unimp
   1192e:	0000                	unimp
   11930:	6548                	ld	a0,136(a0)
   11932:	6c6c                	ld	a1,216(s0)
   11934:	6f57206f          	j	84828 <_RODATA_END_+0x72bff>
   11938:	6c72                	ld	s8,280(sp)
   1193a:	2164                	.2byte	0x2164
   1193c:	0a0d                	addi	s4,s4,3
   1193e:	0000                	unimp
   11940:	6e69                	lui	t3,0x1a
   11942:	7469                	lui	s0,0xffffa
   11944:	5320                	lw	s0,96(a4)
   11946:	4950                	lw	a2,20(a0)
   11948:	0a0d                	addi	s4,s4,3
   1194a:	0000                	unimp
   1194c:	0000                	unimp
   1194e:	0000                	unimp
   11950:	74617473          	csrrci	s0,0x746,2
   11954:	7375                	lui	t1,0xffffd
   11956:	203a                	.2byte	0x203a
   11958:	7830                	ld	a2,112(s0)
   1195a:	0000                	unimp
   1195c:	0000                	unimp
   1195e:	0000                	unimp
   11960:	20495053          	.4byte	0x20495053
   11964:	6e69                	lui	t3,0x1a
   11966:	7469                	lui	s0,0xffffa
   11968:	6169                	addi	sp,sp,208
   1196a:	696c                	ld	a1,208(a0)
   1196c:	657a                	ld	a0,408(sp)
   1196e:	2164                	.2byte	0x2164
   11970:	0a0d                	addi	s4,s4,3
   11972:	0000                	unimp
   11974:	0000                	unimp
   11976:	0000                	unimp
   11978:	7872                	ld	a6,312(sp)
   1197a:	6620                	ld	s0,72(a2)
   1197c:	6669                	lui	a2,0x1a
   1197e:	6f6e206f          	j	f4074 <_RODATA_END_+0xe244b>
   11982:	2074                	.2byte	0x2074
   11984:	6d65                	lui	s10,0x19
   11986:	7470                	ld	a2,232(s0)
   11988:	3f79                	addiw	t5,t5,-2 # 19ffe <_RODATA_END_+0x83d5>
   1198a:	0000203f 44530000 	.8byte	0x445300000000203f
   11992:	6320                	ld	s0,64(a4)
   11994:	616d6d6f          	jal	s10,e7faa <_RODATA_END_+0xd6381>
   11998:	646e                	ld	s0,216(sp)
   1199a:	0020                	addi	s0,sp,8
   1199c:	0000                	unimp
   1199e:	0000                	unimp
   119a0:	0920                	addi	s0,sp,152
   119a2:	6572                	ld	a0,280(sp)
   119a4:	6e6f7073          	csrci	0x6e6,30
   119a8:	3a206573          	csrrsi	a0,pmpcfg2,0
   119ac:	0020                	addi	s0,sp,8
   119ae:	0000                	unimp
   119b0:	30646d63          	bltu	s0,t1,11cca <_RODATA_END_+0xa1>
   119b4:	0000                	unimp
   119b6:	0000                	unimp
   119b8:	35646d63          	bltu	s0,s6,11d12 <_RODATA_END_+0xe9>
   119bc:	0035                	c.nop	13
   119be:	0000                	unimp
   119c0:	34646d63          	bltu	s0,t1,11d1a <_RODATA_END_+0xf1>
   119c4:	0031                	c.nop	12
   119c6:	0000                	unimp
   119c8:	6e69                	lui	t3,0x1a
   119ca:	7469                	lui	s0,0xffffa
   119cc:	6169                	addi	sp,sp,208
   119ce:	696c                	ld	a1,208(a0)
   119d0:	697a                	ld	s2,408(sp)
   119d2:	676e                	ld	a4,216(sp)
   119d4:	5320                	lw	s0,96(a4)
   119d6:	2e44                	.2byte	0x2e44
   119d8:	2e2e                	.2byte	0x2e2e
   119da:	0d20                	addi	s0,sp,664
   119dc:	000a                	c.slli	zero,0x2
   119de:	0000                	unimp
   119e0:	6c756f63          	bltu	a0,t2,120be <_RODATA_END_+0x495>
   119e4:	2064                	.2byte	0x2064
   119e6:	6f6e                	ld	t5,216(sp)
   119e8:	2074                	.2byte	0x2074
   119ea:	6572                	ld	a0,280(sp)
   119ec:	6461                	lui	s0,0x18
   119ee:	5320                	lw	s0,96(a4)
   119f0:	2044                	.2byte	0x2044
   119f2:	6c62                	ld	s8,24(sp)
   119f4:	0d6b636f          	jal	t1,c7aca <_RODATA_END_+0xb5ea1>
   119f8:	000a                	c.slli	zero,0x2
   119fa:	0000                	unimp
   119fc:	0000                	unimp
   119fe:	0000                	unimp
   11a00:	002e                	c.slli	zero,0xb
   11a02:	0000                	unimp
   11a04:	0000                	unimp
   11a06:	0000                	unimp
   11a08:	6c756f63          	bltu	a0,t2,120e6 <_RODATA_END_+0x4bd>
   11a0c:	2064                	.2byte	0x2064
   11a0e:	6f6e                	ld	t5,216(sp)
   11a10:	2074                	.2byte	0x2074
   11a12:	6e69                	lui	t3,0x1a
   11a14:	7469                	lui	s0,0xffffa
   11a16:	6169                	addi	sp,sp,208
   11a18:	696c                	ld	a1,208(a0)
   11a1a:	657a                	ld	a0,408(sp)
   11a1c:	7320                	ld	s0,96(a4)
   11a1e:	2e64                	.2byte	0x2e64
   11a20:	2e2e                	.2byte	0x2e2e
   11a22:	6520                	ld	s0,72(a0)
   11a24:	6978                	ld	a4,208(a0)
   11a26:	6974                	ld	a3,208(a0)
   11a28:	676e                	ld	a4,216(sp)
   11a2a:	0a0d                	addi	s4,s4,3
   11a2c:	0000                	unimp
   11a2e:	0000                	unimp
   11a30:	69206473          	csrrsi	s0,0x692,0
   11a34:	696e                	ld	s2,216(sp)
   11a36:	6974                	ld	a3,208(a0)
   11a38:	6c61                	lui	s8,0x18
   11a3a:	7a69                	lui	s4,0xffffa
   11a3c:	6465                	lui	s0,0x19
   11a3e:	0d21                	addi	s10,s10,8 # 19008 <_RODATA_END_+0x73df>
   11a40:	000a                	c.slli	zero,0x2
   11a42:	0000                	unimp
   11a44:	0000                	unimp
   11a46:	0000                	unimp
   11a48:	63204453          	.4byte	0x63204453
   11a4c:	7261                	lui	tp,0xffff8
   11a4e:	2064                	.2byte	0x2064
   11a50:	6166                	ld	sp,88(sp)
   11a52:	6c69                	lui	s8,0x1a
   11a54:	6465                	lui	s0,0x19
   11a56:	0d21                	addi	s10,s10,8
   11a58:	000a                	c.slli	zero,0x2
   11a5a:	0000                	unimp
   11a5c:	0000                	unimp
   11a5e:	0000                	unimp
   11a60:	63206473          	csrrsi	s0,0x632,0
   11a64:	2079706f          	j	a946a <_RODATA_END_+0x97841>
   11a68:	6572                	ld	a0,280(sp)
   11a6a:	7574                	ld	a3,232(a0)
   11a6c:	6e72                	ld	t3,280(sp)
   11a6e:	7620                	ld	s0,104(a2)
   11a70:	6c61                	lui	s8,0x18
   11a72:	6575                	lui	a0,0x1d
   11a74:	203a                	.2byte	0x203a
   11a76:	0000                	unimp
   11a78:	20747067          	.4byte	0x20747067
   11a7c:	6170                	ld	a2,192(a0)
   11a7e:	7472                	ld	s0,312(sp)
   11a80:	7469                	lui	s0,0xffffa
   11a82:	6f69                	lui	t5,0x1a
   11a84:	206e                	.2byte	0x206e
   11a86:	6174                	ld	a3,192(a0)
   11a88:	6c62                	ld	s8,24(sp)
   11a8a:	2065                	.2byte	0x2065
   11a8c:	6568                	ld	a0,200(a0)
   11a8e:	6461                	lui	s0,0x18
   11a90:	7265                	lui	tp,0xffff9
   11a92:	003a                	c.slli	zero,0xe
   11a94:	0000                	unimp
   11a96:	0000                	unimp
   11a98:	0a0d                	addi	s4,s4,3 # ffffffffffffa003 <_RODATA_END_+0xfffffffffffe83da>
   11a9a:	7309                	lui	t1,0xfffe2
   11a9c:	6769                	lui	a4,0x1a
   11a9e:	616e                	ld	sp,216(sp)
   11aa0:	7574                	ld	a3,232(a0)
   11aa2:	6572                	ld	a0,280(sp)
   11aa4:	093a                	slli	s2,s2,0xe
   11aa6:	0000                	unimp
   11aa8:	0a0d                	addi	s4,s4,3
   11aaa:	7209                	lui	tp,0xfffe2
   11aac:	7665                	lui	a2,0xffff9
   11aae:	7369                	lui	t1,0xffffa
   11ab0:	6f69                	lui	t5,0x1a
   11ab2:	3a6e                	.2byte	0x3a6e
   11ab4:	0009                	c.nop	2
   11ab6:	0000                	unimp
   11ab8:	0a0d                	addi	s4,s4,3
   11aba:	7309                	lui	t1,0xfffe2
   11abc:	7a69                	lui	s4,0xffffa
   11abe:	3a65                	addiw	s4,s4,-7 # ffffffffffff9ff9 <_RODATA_END_+0xfffffffffffe83d0>
   11ac0:	0909                	addi	s2,s2,2 # b002 <ROM_BASE-0x4ffe>
   11ac2:	0000                	unimp
   11ac4:	0000                	unimp
   11ac6:	0000                	unimp
   11ac8:	0a0d                	addi	s4,s4,3
   11aca:	6309                	lui	t1,0x2
   11acc:	6372                	ld	t1,280(sp)
   11ace:	685f 6165 6564      	.byte	0x5f, 0x68, 0x65, 0x61, 0x64, 0x65
   11ad4:	3a72                	.2byte	0x3a72
   11ad6:	0009                	c.nop	2
   11ad8:	0a0d                	addi	s4,s4,3
   11ada:	7209                	lui	tp,0xfffe2
   11adc:	7365                	lui	t1,0xffff9
   11ade:	7265                	lui	tp,0xffff9
   11ae0:	6576                	ld	a0,344(sp)
   11ae2:	3a64                	.2byte	0x3a64
   11ae4:	0009                	c.nop	2
   11ae6:	0000                	unimp
   11ae8:	0a0d                	addi	s4,s4,3
   11aea:	6309                	lui	t1,0x2
   11aec:	7275                	lui	tp,0xffffd
   11aee:	6572                	ld	a0,280(sp)
   11af0:	746e                	ld	s0,248(sp)
   11af2:	6c20                	ld	s0,88(s0)
   11af4:	6162                	ld	sp,24(sp)
   11af6:	093a                	slli	s2,s2,0xe
	...
   11b00:	0a0d                	addi	s4,s4,3
   11b02:	6209                	lui	tp,0x2
   11b04:	6361                	lui	t1,0x18
   11b06:	2070756b          	.4byte	0x2070756b
   11b0a:	646c                	ld	a1,200(s0)
   11b0c:	3a61                	addiw	s4,s4,-8
   11b0e:	0009                	c.nop	2
   11b10:	0a0d                	addi	s4,s4,3
   11b12:	7009                	c.lui	zero,0xfffe2
   11b14:	7261                	lui	tp,0xffff8
   11b16:	6974                	ld	a3,208(a0)
   11b18:	6974                	ld	a3,208(a0)
   11b1a:	65206e6f          	jal	t3,1816c <_RODATA_END_+0x6543>
   11b1e:	746e                	ld	s0,248(sp)
   11b20:	6972                	ld	s2,280(sp)
   11b22:	7365                	lui	t1,0xffff9
   11b24:	6c20                	ld	s0,88(s0)
   11b26:	6162                	ld	sp,24(sp)
   11b28:	203a                	.2byte	0x203a
   11b2a:	2020                	.2byte	0x2020
   11b2c:	0009                	c.nop	2
   11b2e:	0000                	unimp
   11b30:	0a0d                	addi	s4,s4,3
   11b32:	6e09                	lui	t3,0x2
   11b34:	6d75                	lui	s10,0x1d
   11b36:	6562                	ld	a0,24(sp)
   11b38:	2072                	.2byte	0x2072
   11b3a:	6170                	ld	a2,192(a0)
   11b3c:	7472                	ld	s0,312(sp)
   11b3e:	7469                	lui	s0,0xffffa
   11b40:	6f69                	lui	t5,0x1a
   11b42:	206e                	.2byte	0x206e
   11b44:	6e65                	lui	t3,0x19
   11b46:	7274                	ld	a3,224(a2)
   11b48:	6569                	lui	a0,0x1a
   11b4a:	00093a73          	csrrc	s4,ustatus,s2
   11b4e:	0000                	unimp
   11b50:	0a0d                	addi	s4,s4,3
   11b52:	7309                	lui	t1,0xfffe2
   11b54:	7a69                	lui	s4,0xffffa
   11b56:	2065                	.2byte	0x2065
   11b58:	6170                	ld	a2,192(a0)
   11b5a:	7472                	ld	s0,312(sp)
   11b5c:	7469                	lui	s0,0xffffa
   11b5e:	6f69                	lui	t5,0x1a
   11b60:	206e                	.2byte	0x206e
   11b62:	6e65                	lui	t3,0x19
   11b64:	7274                	ld	a3,224(a2)
   11b66:	6569                	lui	a0,0x1a
   11b68:	20203a73          	csrrc	s4,0x202,zero
   11b6c:	0009                	c.nop	2
   11b6e:	0000                	unimp
   11b70:	20747067          	.4byte	0x20747067
   11b74:	6170                	ld	a2,192(a0)
   11b76:	7472                	ld	s0,312(sp)
   11b78:	7469                	lui	s0,0xffffa
   11b7a:	6f69                	lui	t5,0x1a
   11b7c:	206e                	.2byte	0x206e
   11b7e:	6e65                	lui	t3,0x19
   11b80:	7274                	ld	a3,224(a2)
   11b82:	2079                	.2byte	0x2079
   11b84:	0000                	unimp
   11b86:	0000                	unimp
   11b88:	0a0d                	addi	s4,s4,3 # ffffffffffffa003 <_RODATA_END_+0xfffffffffffe83da>
   11b8a:	7009                	c.lui	zero,0xfffe2
   11b8c:	7261                	lui	tp,0xffff8
   11b8e:	6974                	ld	a3,208(a0)
   11b90:	6974                	ld	a3,208(a0)
   11b92:	74206e6f          	jal	t3,182d4 <_RODATA_END_+0x66ab>
   11b96:	7079                	c.lui	zero,0xffffe
   11b98:	2065                	.2byte	0x2065
   11b9a:	64697567          	.4byte	0x64697567
   11b9e:	093a                	slli	s2,s2,0xe
	...
   11ba8:	0a0d                	addi	s4,s4,3
   11baa:	7009                	c.lui	zero,0xfffe2
   11bac:	7261                	lui	tp,0xffff8
   11bae:	6974                	ld	a3,208(a0)
   11bb0:	6974                	ld	a3,208(a0)
   11bb2:	67206e6f          	jal	t3,18224 <_RODATA_END_+0x65fb>
   11bb6:	6975                	lui	s2,0x1d
   11bb8:	3a64                	.2byte	0x3a64
   11bba:	2020                	.2byte	0x2020
   11bbc:	2020                	.2byte	0x2020
   11bbe:	0920                	addi	s0,sp,152
	...
   11bc8:	0a0d                	addi	s4,s4,3
   11bca:	6609                	lui	a2,0x2
   11bcc:	7269                	lui	tp,0xffffa
   11bce:	6c207473          	csrrci	s0,0x6c2,0
   11bd2:	6162                	ld	sp,24(sp)
   11bd4:	093a                	slli	s2,s2,0xe
   11bd6:	0000                	unimp
   11bd8:	0a0d                	addi	s4,s4,3
   11bda:	6c09                	lui	s8,0x2
   11bdc:	7361                	lui	t1,0xffff8
   11bde:	2074                	.2byte	0x2074
   11be0:	626c                	ld	a1,192(a2)
   11be2:	3a61                	addiw	s4,s4,-8
   11be4:	0009                	c.nop	2
   11be6:	0000                	unimp
   11be8:	0a0d                	addi	s4,s4,3
   11bea:	6109                	addi	sp,sp,128
   11bec:	7474                	ld	a3,232(s0)
   11bee:	6972                	ld	s2,280(sp)
   11bf0:	7562                	ld	a0,56(sp)
   11bf2:	6574                	ld	a3,200(a0)
   11bf4:	00093a73          	csrrc	s4,ustatus,s2
   11bf8:	0a0d                	addi	s4,s4,3
   11bfa:	6e09                	lui	t3,0x2
   11bfc:	6d61                	lui	s10,0x18
   11bfe:	3a65                	addiw	s4,s4,-7
   11c00:	0009                	c.nop	2
   11c02:	0000                	unimp
   11c04:	0000                	unimp
   11c06:	0000                	unimp
   11c08:	79706f63          	bltu	zero,s7,123a6 <_RODATA_END_+0x77d>
   11c0c:	6e69                	lui	t3,0x1a
   11c0e:	6f622067          	.4byte	0x6f622067
   11c12:	6920746f          	jal	s0,192a4 <_RODATA_END_+0x767b>
   11c16:	616d                	addi	sp,sp,240
   11c18:	00206567          	.4byte	0x206567
   11c1c:	0000                	unimp
   11c1e:	0000                	unimp
   11c20:	6420                	ld	s0,72(s0)
   11c22:	21656e6f          	jal	t3,67e38 <_RODATA_END_+0x5620f>
   11c26:	0a0d                	addi	s4,s4,3
	...

Disassembly of section .riscv.attributes:

0000000000000000 <.riscv.attributes>:
   0:	2e41                	addiw	t3,t3,16 # 1a010 <_RODATA_END_+0x83e7>
   2:	0000                	unimp
   4:	7200                	ld	s0,32(a2)
   6:	7369                	lui	t1,0xffffa
   8:	01007663          	bgeu	zero,a6,14 <ROM_BASE-0xffec>
   c:	0024                	addi	s1,sp,8
   e:	0000                	unimp
  10:	1004                	addi	s1,sp,32
  12:	7205                	lui	tp,0xfffe1
  14:	3676                	.2byte	0x3676
  16:	6934                	ld	a3,80(a0)
  18:	7032                	.2byte	0x7032
  1a:	5f30                	lw	a2,120(a4)
  1c:	326d                	addiw	tp,tp,-5 # fffffffffffe0ffb <_RODATA_END_+0xfffffffffffcf3d2>
  1e:	3070                	.2byte	0x3070
  20:	615f 7032 5f30      	.byte	0x5f, 0x61, 0x32, 0x70, 0x30, 0x5f
  26:	30703263          	.4byte	0x30703263
  2a:	0800                	addi	s0,sp,16
  2c:	0a01                	addi	s4,s4,0
  2e:	0b              	Address 0x000000000000002e is out of bounds.


Disassembly of section .comment:

0000000000000000 <.comment>:
   0:	3a434347          	.4byte	0x3a434347
   4:	2820                	.2byte	0x2820
   6:	65653267          	.4byte	0x65653267
   a:	6535                	lui	a0,0xd
   c:	3334                	.2byte	0x3334
   e:	3030                	.2byte	0x3030
  10:	3831                	addiw	a6,a6,-20 # ffffffffffff7fec <_RODATA_END_+0xfffffffffffe63c3>
  12:	2029                	.2byte	0x2029
  14:	3231                	addiw	tp,tp,-20 # ffffffffffffffec <_RODATA_END_+0xfffffffffffee3c3>
  16:	322e                	.2byte	0x322e
  18:	302e                	.2byte	0x302e
	...

Disassembly of section .debug_line:

0000000000000000 <.debug_line>:
       0:	00a0                	addi	s0,sp,72
       2:	0000                	unimp
       4:	0005                	c.nop	1
       6:	0008                	.2byte	0x8
       8:	002a                	c.slli	zero,0xa
       a:	0000                	unimp
       c:	0101                	addi	sp,sp,0
       e:	fb01                	bnez	a4,ffffffffffffff1e <_RODATA_END_+0xfffffffffffee2f5>
      10:	0d0e                	slli	s10,s10,0x3
      12:	0100                	addi	s0,sp,128
      14:	0101                	addi	sp,sp,0
      16:	0001                	nop
      18:	0000                	unimp
      1a:	0001                	nop
      1c:	0100                	addi	s0,sp,128
      1e:	0101                	addi	sp,sp,0
      20:	011f 0000 0000      	.byte	0x1f, 0x01, 0x00, 0x00, 0x00, 0x00
      26:	0102                	c.slli64	sp
      28:	021f 020f 0043      	.byte	0x1f, 0x02, 0x0f, 0x02, 0x43, 0x00
      2e:	0000                	unimp
      30:	4300                	lw	s0,0(a4)
      32:	0000                	unimp
      34:	0000                	unimp
      36:	0900                	addi	s0,sp,144
      38:	0002                	c.slli64	zero
      3a:	0100                	addi	s0,sp,128
      3c:	0000                	unimp
      3e:	0000                	unimp
      40:	0300                	addi	s0,sp,384
      42:	010a                	slli	sp,sp,0x2
      44:	20090103          	lb	sp,512(s2) # 1d200 <_RODATA_END_+0xb5d7>
      48:	0100                	addi	s0,sp,128
      4a:	08090103          	lb	sp,128(s2)
      4e:	0100                	addi	s0,sp,128
      50:	04090103          	lb	sp,64(s2)
      54:	0100                	addi	s0,sp,128
      56:	04090103          	lb	sp,64(s2)
      5a:	0100                	addi	s0,sp,128
      5c:	04090103          	lb	sp,64(s2)
      60:	0100                	addi	s0,sp,128
      62:	04090103          	lb	sp,64(s2)
      66:	0100                	addi	s0,sp,128
      68:	04090103          	lb	sp,64(s2)
      6c:	0100                	addi	s0,sp,128
      6e:	04090103          	lb	sp,64(s2)
      72:	0100                	addi	s0,sp,128
      74:	04090103          	lb	sp,64(s2)
      78:	0100                	addi	s0,sp,128
      7a:	04090103          	lb	sp,64(s2)
      7e:	0100                	addi	s0,sp,128
      80:	04090103          	lb	sp,64(s2)
      84:	0100                	addi	s0,sp,128
      86:	2c090103          	lb	sp,704(s2)
      8a:	0100                	addi	s0,sp,128
      8c:	04090103          	lb	sp,64(s2)
      90:	0100                	addi	s0,sp,128
      92:	08090103          	lb	sp,128(s2)
      96:	0100                	addi	s0,sp,128
      98:	08090103          	lb	sp,128(s2)
      9c:	0100                	addi	s0,sp,128
      9e:	0409                	addi	s0,s0,2 # ffffffffffffa002 <_RODATA_END_+0xfffffffffffe83d9>
      a0:	0000                	unimp
      a2:	0101                	addi	sp,sp,0
      a4:	000000d3          	.4byte	0xd3
      a8:	0005                	c.nop	1
      aa:	0008                	.2byte	0x8
      ac:	004a                	c.slli	zero,0x12
      ae:	0000                	unimp
      b0:	0101                	addi	sp,sp,0
      b2:	fb01                	bnez	a4,ffffffffffffffc2 <_RODATA_END_+0xfffffffffffee399>
      b4:	0d0e                	slli	s10,s10,0x3
      b6:	0100                	addi	s0,sp,128
      b8:	0101                	addi	sp,sp,0
      ba:	0001                	nop
      bc:	0000                	unimp
      be:	0001                	nop
      c0:	0100                	addi	s0,sp,128
      c2:	0101                	addi	sp,sp,0
      c4:	041f 0000 0000      	.byte	0x1f, 0x04, 0x00, 0x00, 0x00, 0x00
      ca:	0058                	addi	a4,sp,4
      cc:	0000                	unimp
      ce:	005c                	addi	a5,sp,4
      d0:	0000                	unimp
      d2:	0000008b          	.4byte	0x8b
      d6:	0102                	c.slli64	sp
      d8:	021f 060f 0051      	.byte	0x1f, 0x02, 0x0f, 0x06, 0x51, 0x00
      de:	0000                	unimp
      e0:	5101                	li	sp,-32
      e2:	0000                	unimp
      e4:	0100                	addi	s0,sp,128
      e6:	00b6                	slli	ra,ra,0xd
      e8:	0000                	unimp
      ea:	c702                	sw	zero,140(sp)
      ec:	0000                	unimp
      ee:	0300                	addi	s0,sp,384
      f0:	00d1                	addi	ra,ra,20
      f2:	0000                	unimp
      f4:	d701                	beqz	a4,fffffffffffffffc <_RODATA_END_+0xfffffffffffee3d3>
      f6:	0000                	unimp
      f8:	0100                	addi	s0,sp,128
      fa:	0105                	addi	sp,sp,1
      fc:	0900                	addi	s0,sp,144
      fe:	7e02                	ld	t3,32(sp)
     100:	010a                	slli	sp,sp,0x2
     102:	0000                	unimp
     104:	0000                	unimp
     106:	1800                	addi	s0,sp,48
     108:	0505                	addi	a0,a0,1 # d001 <ROM_BASE-0x2fff>
     10a:	00090103          	lb	sp,0(s2)
     10e:	0100                	addi	s0,sp,128
     110:	0105                	addi	sp,sp,1
     112:	0306                	slli	t1,t1,0x1
     114:	097f                	.2byte	0x97f
     116:	0006                	c.slli	zero,0x1
     118:	0501                	addi	a0,a0,0
     11a:	0305                	addi	t1,t1,1 # ffffffffffffa001 <_RODATA_END_+0xfffffffffffe83d8>
     11c:	0901                	addi	s2,s2,0
     11e:	0002                	c.slli64	zero
     120:	0501                	addi	a0,a0,0
     122:	0301                	addi	t1,t1,0
     124:	097f                	.2byte	0x97f
     126:	0008                	.2byte	0x8
     128:	0501                	addi	a0,a0,0
     12a:	0305                	addi	t1,t1,1
     12c:	0901                	addi	s2,s2,0
     12e:	0002                	c.slli64	zero
     130:	0601                	addi	a2,a2,0 # 2000 <ROM_BASE-0xe000>
     132:	04090103          	lb	sp,64(s2)
     136:	0100                	addi	s0,sp,128
     138:	0c090203          	lb	tp,192(s2)
     13c:	0100                	addi	s0,sp,128
     13e:	0f05                	addi	t5,t5,1 # 1a001 <_RODATA_END_+0x83d8>
     140:	0306                	slli	t1,t1,0x1
     142:	0900                	addi	s0,sp,144
     144:	0000                	unimp
     146:	0501                	addi	a0,a0,0
     148:	0605                	addi	a2,a2,1
     14a:	0a090203          	lb	tp,160(s2)
     14e:	0100                	addi	s0,sp,128
     150:	0105                	addi	sp,sp,1
     152:	0306                	slli	t1,t1,0x1
     154:	0901                	addi	s2,s2,0
     156:	0000                	unimp
     158:	0901                	addi	s2,s2,0
     15a:	0008                	.2byte	0x8
     15c:	0100                	addi	s0,sp,128
     15e:	0501                	addi	a0,a0,0
     160:	0001                	nop
     162:	0209                	addi	tp,tp,2 # 2 <ROM_BASE-0xfffe>
     164:	0100                	addi	s0,sp,128
     166:	0001                	nop
     168:	0000                	unimp
     16a:	0000                	unimp
     16c:	03011003          	lh	zero,48(sp)
     170:	0902                	c.slli64	s2
     172:	0000                	unimp
     174:	0901                	addi	s2,s2,0
     176:	0002                	c.slli64	zero
     178:	0100                	addi	s0,sp,128
     17a:	b901                	j	fffffffffffffd8a <_RODATA_END_+0xfffffffffffee161>
     17c:	0004                	.2byte	0x4
     17e:	0500                	addi	s0,sp,640
     180:	0800                	addi	s0,sp,16
     182:	4000                	lw	s0,0(s0)
     184:	0000                	unimp
     186:	0100                	addi	s0,sp,128
     188:	0101                	addi	sp,sp,0
     18a:	000d0efb          	.4byte	0xd0efb
     18e:	0101                	addi	sp,sp,0
     190:	0101                	addi	sp,sp,0
     192:	0000                	unimp
     194:	0100                	addi	s0,sp,128
     196:	0000                	unimp
     198:	0101                	addi	sp,sp,0
     19a:	1f01                	addi	t5,t5,-32
     19c:	0004                	.2byte	0x4
     19e:	0000                	unimp
     1a0:	5800                	lw	s0,48(s0)
     1a2:	0000                	unimp
     1a4:	5c00                	lw	s0,56(s0)
     1a6:	0000                	unimp
     1a8:	8b00                	.2byte	0x8b00
     1aa:	0000                	unimp
     1ac:	0200                	addi	s0,sp,256
     1ae:	1f01                	addi	t5,t5,-32
     1b0:	0f02                	c.slli64	t5
     1b2:	e204                	sd	s1,0(a2)
     1b4:	0000                	unimp
     1b6:	0100                	addi	s0,sp,128
     1b8:	00e2                	slli	ra,ra,0x18
     1ba:	0000                	unimp
     1bc:	b601                	j	fffffffffffffcbc <_RODATA_END_+0xfffffffffffee093>
     1be:	0000                	unimp
     1c0:	0200                	addi	s0,sp,256
     1c2:	000000c7          	.4byte	0xc7
     1c6:	00010503          	lb	a0,0(sp)
     1ca:	0209                	addi	tp,tp,2 # 2 <ROM_BASE-0xfffe>
     1cc:	0102                	c.slli64	sp
     1ce:	0001                	nop
     1d0:	0000                	unimp
     1d2:	0000                	unimp
     1d4:	0515                	addi	a0,a0,5
     1d6:	0305                	addi	t1,t1,1
     1d8:	0901                	addi	s2,s2,0
     1da:	0000                	unimp
     1dc:	0301                	addi	t1,t1,0
     1de:	0901                	addi	s2,s2,0
     1e0:	0000                	unimp
     1e2:	0501                	addi	a0,a0,0
     1e4:	0003060f          	.4byte	0x3060f
     1e8:	0009                	c.nop	2
     1ea:	0100                	addi	s0,sp,128
     1ec:	0105                	addi	sp,sp,1
     1ee:	04090103          	lb	sp,64(s2)
     1f2:	0100                	addi	s0,sp,128
     1f4:	0306                	slli	t1,t1,0x1
     1f6:	00020903          	lb	s2,0(tp) # 0 <ROM_BASE-0x10000>
     1fa:	0501                	addi	a0,a0,0
     1fc:	0305                	addi	t1,t1,1
     1fe:	0901                	addi	s2,s2,0
     200:	0000                	unimp
     202:	0501                	addi	a0,a0,0
     204:	060c                	addi	a1,sp,768
     206:	00090003          	lb	zero,0(s2)
     20a:	0100                	addi	s0,sp,128
     20c:	0105                	addi	sp,sp,1
     20e:	04090103          	lb	sp,64(s2)
     212:	0100                	addi	s0,sp,128
     214:	0306                	slli	t1,t1,0x1
     216:	00020903          	lb	s2,0(tp) # 0 <ROM_BASE-0x10000>
     21a:	0501                	addi	a0,a0,0
     21c:	0305                	addi	t1,t1,1
     21e:	0901                	addi	s2,s2,0
     220:	0000                	unimp
     222:	0301                	addi	t1,t1,0
     224:	0000097b          	.4byte	0x97b
     228:	0501                	addi	a0,a0,0
     22a:	060c                	addi	a1,sp,768
     22c:	00090003          	lb	zero,0(s2)
     230:	0100                	addi	s0,sp,128
     232:	0105                	addi	sp,sp,1
     234:	08090603          	lb	a2,128(s2)
     238:	0100                	addi	s0,sp,128
     23a:	0306                	slli	t1,t1,0x1
     23c:	00060903          	lb	s2,0(a2)
     240:	0501                	addi	a0,a0,0
     242:	0305                	addi	t1,t1,1
     244:	0901                	addi	s2,s2,0
     246:	0000                	unimp
     248:	0501                	addi	a0,a0,0
     24a:	060c                	addi	a1,sp,768
     24c:	00097603          	.4byte	0x97603
     250:	0100                	addi	s0,sp,128
     252:	2705                	addiw	a4,a4,1 # 1a001 <_RODATA_END_+0x83d8>
     254:	0200                	addi	s0,sp,256
     256:	0104                	addi	s1,sp,128
     258:	0306                	slli	t1,t1,0x1
     25a:	090a                	slli	s2,s2,0x2
     25c:	0004                	.2byte	0x4
     25e:	0501                	addi	a0,a0,0
     260:	0020                	addi	s0,sp,8
     262:	0402                	c.slli64	s0
     264:	0301                	addi	t1,t1,0
     266:	0900                	addi	s0,sp,144
     268:	0000                	unimp
     26a:	0501                	addi	a0,a0,0
     26c:	0005                	c.nop	1
     26e:	0402                	c.slli64	s0
     270:	0301                	addi	t1,t1,0
     272:	0000097b          	.4byte	0x97b
     276:	0001                	nop
     278:	0402                	c.slli64	s0
     27a:	0301                	addi	t1,t1,0
     27c:	0000097b          	.4byte	0x97b
     280:	0501                	addi	a0,a0,0
     282:	000c                	.2byte	0xc
     284:	0402                	c.slli64	s0
     286:	0601                	addi	a2,a2,0
     288:	00090003          	lb	zero,0(s2)
     28c:	0100                	addi	s0,sp,128
     28e:	2005                	.2byte	0x2005
     290:	0200                	addi	s0,sp,256
     292:	0104                	addi	s1,sp,128
     294:	04090a03          	lb	s4,64(s2)
     298:	0100                	addi	s0,sp,128
     29a:	2805                	addiw	a6,a6,1
     29c:	0306                	slli	t1,t1,0x1
     29e:	0900                	addi	s0,sp,144
     2a0:	0006                	c.slli	zero,0x1
     2a2:	0501                	addi	a0,a0,0
     2a4:	0305                	addi	t1,t1,1
     2a6:	0902                	c.slli64	s2
     2a8:	0000                	unimp
     2aa:	0301                	addi	t1,t1,0
     2ac:	096e                	slli	s2,s2,0x1b
     2ae:	0000                	unimp
     2b0:	0301                	addi	t1,t1,0
     2b2:	0901                	addi	s2,s2,0
     2b4:	0000                	unimp
     2b6:	0501                	addi	a0,a0,0
     2b8:	0003060f          	.4byte	0x3060f
     2bc:	0009                	c.nop	2
     2be:	0100                	addi	s0,sp,128
     2c0:	0105                	addi	sp,sp,1
     2c2:	04091203          	lh	tp,64(s2)
     2c6:	0100                	addi	s0,sp,128
     2c8:	0306                	slli	t1,t1,0x1
     2ca:	00020903          	lb	s2,0(tp) # 0 <ROM_BASE-0x10000>
     2ce:	0501                	addi	a0,a0,0
     2d0:	0305                	addi	t1,t1,1
     2d2:	0901                	addi	s2,s2,0
     2d4:	0000                	unimp
     2d6:	0501                	addi	a0,a0,0
     2d8:	0625                	addi	a2,a2,9
     2da:	00090003          	lb	zero,0(s2)
     2de:	0100                	addi	s0,sp,128
     2e0:	0e05                	addi	t3,t3,1
     2e2:	04090003          	lb	zero,64(s2)
     2e6:	0100                	addi	s0,sp,128
     2e8:	0505                	addi	a0,a0,1
     2ea:	0306                	slli	t1,t1,0x1
     2ec:	0902                	c.slli64	s2
     2ee:	0004                	.2byte	0x4
     2f0:	0301                	addi	t1,t1,0
     2f2:	00000967          	jalr	s2,zero # 0 <ROM_BASE-0x10000>
     2f6:	0301                	addi	t1,t1,0
     2f8:	0901                	addi	s2,s2,0
     2fa:	0000                	unimp
     2fc:	0501                	addi	a0,a0,0
     2fe:	0003060f          	.4byte	0x3060f
     302:	0009                	c.nop	2
     304:	0100                	addi	s0,sp,128
     306:	0505                	addi	a0,a0,1
     308:	0306                	slli	t1,t1,0x1
     30a:	0919                	addi	s2,s2,6
     30c:	0008                	.2byte	0x8
     30e:	0301                	addi	t1,t1,0
     310:	0966                	slli	s2,s2,0x19
     312:	0000                	unimp
     314:	0301                	addi	t1,t1,0
     316:	0901                	addi	s2,s2,0
     318:	0000                	unimp
     31a:	0501                	addi	a0,a0,0
     31c:	0003060f          	.4byte	0x3060f
     320:	0009                	c.nop	2
     322:	0100                	addi	s0,sp,128
     324:	0505                	addi	a0,a0,1
     326:	0306                	slli	t1,t1,0x1
     328:	091a                	slli	s2,s2,0x6
     32a:	0008                	.2byte	0x8
     32c:	0301                	addi	t1,t1,0
     32e:	0965                	addi	s2,s2,25
     330:	0004                	.2byte	0x4
     332:	0301                	addi	t1,t1,0
     334:	0901                	addi	s2,s2,0
     336:	0000                	unimp
     338:	0501                	addi	a0,a0,0
     33a:	062a                	slli	a2,a2,0xa
     33c:	00091b03          	lh	s6,0(s2)
     340:	0100                	addi	s0,sp,128
     342:	0f05                	addi	t5,t5,1
     344:	04096503          	lwu	a0,64(s2)
     348:	0100                	addi	s0,sp,128
     34a:	0505                	addi	a0,a0,1
     34c:	0306                	slli	t1,t1,0x1
     34e:	0004091b          	sext.w	s2,s0
     352:	0301                	addi	t1,t1,0
     354:	0964                	addi	s1,sp,156
     356:	0004                	.2byte	0x4
     358:	0301                	addi	t1,t1,0
     35a:	0901                	addi	s2,s2,0
     35c:	0000                	unimp
     35e:	0501                	addi	a0,a0,0
     360:	0003060f          	.4byte	0x3060f
     364:	0009                	c.nop	2
     366:	0100                	addi	s0,sp,128
     368:	0505                	addi	a0,a0,1
     36a:	0306                	slli	t1,t1,0x1
     36c:	091c                	addi	a5,sp,144
     36e:	0004                	.2byte	0x4
     370:	0301                	addi	t1,t1,0
     372:	00000963          	beqz	zero,384 <ROM_BASE-0xfc7c>
     376:	0301                	addi	t1,t1,0
     378:	0901                	addi	s2,s2,0
     37a:	0000                	unimp
     37c:	0501                	addi	a0,a0,0
     37e:	0003060f          	.4byte	0x3060f
     382:	0009                	c.nop	2
     384:	0100                	addi	s0,sp,128
     386:	0505                	addi	a0,a0,1
     388:	0306                	slli	t1,t1,0x1
     38a:	091d                	addi	s2,s2,7
     38c:	0006                	c.slli	zero,0x1
     38e:	0301                	addi	t1,t1,0
     390:	0962                	slli	s2,s2,0x18
     392:	0000                	unimp
     394:	0301                	addi	t1,t1,0
     396:	0901                	addi	s2,s2,0
     398:	0000                	unimp
     39a:	0501                	addi	a0,a0,0
     39c:	0003060f          	.4byte	0x3060f
     3a0:	0009                	c.nop	2
     3a2:	0100                	addi	s0,sp,128
     3a4:	0505                	addi	a0,a0,1
     3a6:	0306                	slli	t1,t1,0x1
     3a8:	091e                	slli	s2,s2,0x7
     3aa:	0008                	.2byte	0x8
     3ac:	0301                	addi	t1,t1,0
     3ae:	0961                	addi	s2,s2,24
     3b0:	0000                	unimp
     3b2:	0301                	addi	t1,t1,0
     3b4:	0901                	addi	s2,s2,0
     3b6:	0000                	unimp
     3b8:	0501                	addi	a0,a0,0
     3ba:	0003060f          	.4byte	0x3060f
     3be:	0009                	c.nop	2
     3c0:	0100                	addi	s0,sp,128
     3c2:	0105                	addi	sp,sp,1
     3c4:	08091f03          	lh	t5,128(s2)
     3c8:	0100                	addi	s0,sp,128
     3ca:	0306                	slli	t1,t1,0x1
     3cc:	00020903          	lb	s2,0(tp) # 0 <ROM_BASE-0x10000>
     3d0:	0501                	addi	a0,a0,0
     3d2:	0305                	addi	t1,t1,1
     3d4:	0901                	addi	s2,s2,0
     3d6:	0008                	.2byte	0x8
     3d8:	0301                	addi	t1,t1,0
     3da:	0901                	addi	s2,s2,0
     3dc:	0000                	unimp
     3de:	0501                	addi	a0,a0,0
     3e0:	0311                	addi	t1,t1,4
     3e2:	0900                	addi	s0,sp,144
     3e4:	0000                	unimp
     3e6:	0501                	addi	a0,a0,0
     3e8:	060c                	addi	a1,sp,768
     3ea:	00090003          	lb	zero,0(s2)
     3ee:	0100                	addi	s0,sp,128
     3f0:	1105                	addi	sp,sp,-31
     3f2:	04090003          	lb	zero,64(s2)
     3f6:	0100                	addi	s0,sp,128
     3f8:	0105                	addi	sp,sp,1
     3fa:	02090503          	lb	a0,32(s2)
     3fe:	0100                	addi	s0,sp,128
     400:	0905                	addi	s2,s2,1
     402:	0306                	slli	t1,t1,0x1
     404:	097d                	addi	s2,s2,31
     406:	0008                	.2byte	0x8
     408:	0301                	addi	t1,t1,0
     40a:	0901                	addi	s2,s2,0
     40c:	0004                	.2byte	0x4
     40e:	0501                	addi	a0,a0,0
     410:	0301                	addi	t1,t1,0
     412:	0908                	addi	a0,sp,144
     414:	0004                	.2byte	0x4
     416:	0501                	addi	a0,a0,0
     418:	0305                	addi	t1,t1,1
     41a:	0901                	addi	s2,s2,0
     41c:	0000                	unimp
     41e:	0501                	addi	a0,a0,0
     420:	061e                	slli	a2,a2,0x7
     422:	00090003          	lb	zero,0(s2)
     426:	0100                	addi	s0,sp,128
     428:	12090103          	lb	sp,288(s2)
     42c:	0100                	addi	s0,sp,128
     42e:	0c05                	addi	s8,s8,1 # 2001 <ROM_BASE-0xdfff>
     430:	04097f03          	.4byte	0x4097f03
     434:	0100                	addi	s0,sp,128
     436:	0505                	addi	a0,a0,1
     438:	0306                	slli	t1,t1,0x1
     43a:	0901                	addi	s2,s2,0
     43c:	0004                	.2byte	0x4
     43e:	0501                	addi	a0,a0,0
     440:	061e                	slli	a2,a2,0x7
     442:	00090003          	lb	zero,0(s2)
     446:	0100                	addi	s0,sp,128
     448:	0c05                	addi	s8,s8,1
     44a:	04090003          	lb	zero,64(s2)
     44e:	0100                	addi	s0,sp,128
     450:	0505                	addi	a0,a0,1
     452:	0306                	slli	t1,t1,0x1
     454:	0901                	addi	s2,s2,0
     456:	0004                	.2byte	0x4
     458:	0501                	addi	a0,a0,0
     45a:	0601                	addi	a2,a2,0
     45c:	00090103          	lb	sp,0(s2)
     460:	0100                	addi	s0,sp,128
     462:	0306                	slli	t1,t1,0x1
     464:	00020903          	lb	s2,0(tp) # 0 <ROM_BASE-0x10000>
     468:	0501                	addi	a0,a0,0
     46a:	0305                	addi	t1,t1,1
     46c:	0901                	addi	s2,s2,0
     46e:	0000                	unimp
     470:	0301                	addi	t1,t1,0
     472:	0901                	addi	s2,s2,0
     474:	0000                	unimp
     476:	0501                	addi	a0,a0,0
     478:	09000313          	li	t1,144
     47c:	0000                	unimp
     47e:	0501                	addi	a0,a0,0
     480:	0601                	addi	a2,a2,0
     482:	00097e03          	.4byte	0x97e03
     486:	0100                	addi	s0,sp,128
     488:	0a090003          	lb	zero,160(s2)
     48c:	0100                	addi	s0,sp,128
     48e:	1305                	addi	t1,t1,-31
     490:	04090203          	lb	tp,64(s2)
     494:	0100                	addi	s0,sp,128
     496:	0905                	addi	s2,s2,1
     498:	0200                	addi	s0,sp,256
     49a:	0304                	addi	s1,sp,384
     49c:	0306                	slli	t1,t1,0x1
     49e:	0902                	c.slli64	s2
     4a0:	0002                	c.slli64	zero
     4a2:	0001                	nop
     4a4:	0402                	c.slli64	s0
     4a6:	09010303          	lb	t1,144(sp)
     4aa:	0000                	unimp
     4ac:	0001                	nop
     4ae:	0402                	c.slli64	s0
     4b0:	09010303          	lb	t1,144(sp)
     4b4:	0000                	unimp
     4b6:	0501                	addi	a0,a0,0
     4b8:	001d                	c.nop	7
     4ba:	0402                	c.slli64	s0
     4bc:	7e030603          	lb	a2,2016(t1)
     4c0:	0009                	c.nop	2
     4c2:	0100                	addi	s0,sp,128
     4c4:	0905                	addi	s2,s2,1
     4c6:	0200                	addi	s0,sp,256
     4c8:	0304                	addi	s1,sp,384
     4ca:	04090203          	lb	tp,64(s2)
     4ce:	0100                	addi	s0,sp,128
     4d0:	0200                	addi	s0,sp,256
     4d2:	0304                	addi	s1,sp,384
     4d4:	0306                	slli	t1,t1,0x1
     4d6:	0901                	addi	s2,s2,0
     4d8:	000a                	c.slli	zero,0x2
     4da:	0501                	addi	a0,a0,0
     4dc:	04020013          	addi	zero,tp,64 # 40 <ROM_BASE-0xffc0>
     4e0:	7b030603          	lb	a2,1968(t1)
     4e4:	0409                	addi	s0,s0,2
     4e6:	0100                	addi	s0,sp,128
     4e8:	0905                	addi	s2,s2,1
     4ea:	0200                	addi	s0,sp,256
     4ec:	0304                	addi	s1,sp,384
     4ee:	02090503          	lb	a0,32(s2)
     4f2:	0100                	addi	s0,sp,128
     4f4:	0200                	addi	s0,sp,256
     4f6:	0304                	addi	s1,sp,384
     4f8:	0306                	slli	t1,t1,0x1
     4fa:	0901                	addi	s2,s2,0
     4fc:	0004                	.2byte	0x4
     4fe:	0501                	addi	a0,a0,0
     500:	001a                	c.slli	zero,0x6
     502:	0402                	c.slli64	s0
     504:	097a0303          	lb	t1,151(s4)
     508:	0008                	.2byte	0x8
     50a:	0501                	addi	a0,a0,0
     50c:	04020013          	addi	zero,tp,64 # 40 <ROM_BASE-0xffc0>
     510:	09000303          	lb	t1,144(zero) # 90 <ROM_BASE-0xff70>
     514:	0000                	unimp
     516:	0501                	addi	a0,a0,0
     518:	0601                	addi	a2,a2,0
     51a:	04090803          	lb	a6,64(s2)
     51e:	0100                	addi	s0,sp,128
     520:	0306                	slli	t1,t1,0x1
     522:	000c0903          	lb	s2,0(s8)
     526:	0501                	addi	a0,a0,0
     528:	0305                	addi	t1,t1,1
     52a:	0901                	addi	s2,s2,0
     52c:	0000                	unimp
     52e:	0301                	addi	t1,t1,0
     530:	0901                	addi	s2,s2,0
     532:	0000                	unimp
     534:	0501                	addi	a0,a0,0
     536:	09000313          	li	t1,144
     53a:	0000                	unimp
     53c:	0501                	addi	a0,a0,0
     53e:	0601                	addi	a2,a2,0
     540:	00097e03          	.4byte	0x97e03
     544:	0100                	addi	s0,sp,128
     546:	0a090003          	lb	zero,160(s2)
     54a:	0100                	addi	s0,sp,128
     54c:	1305                	addi	t1,t1,-31
     54e:	06090203          	lb	tp,96(s2)
     552:	0100                	addi	s0,sp,128
     554:	0905                	addi	s2,s2,1
     556:	0200                	addi	s0,sp,256
     558:	0304                	addi	s1,sp,384
     55a:	0306                	slli	t1,t1,0x1
     55c:	0902                	c.slli64	s2
     55e:	0002                	c.slli64	zero
     560:	0001                	nop
     562:	0402                	c.slli64	s0
     564:	09010303          	lb	t1,144(sp)
     568:	0000                	unimp
     56a:	0001                	nop
     56c:	0402                	c.slli64	s0
     56e:	09010303          	lb	t1,144(sp)
     572:	0000                	unimp
     574:	0501                	addi	a0,a0,0
     576:	001d                	c.nop	7
     578:	0402                	c.slli64	s0
     57a:	7e030603          	lb	a2,2016(t1)
     57e:	0009                	c.nop	2
     580:	0100                	addi	s0,sp,128
     582:	0905                	addi	s2,s2,1
     584:	0200                	addi	s0,sp,256
     586:	0304                	addi	s1,sp,384
     588:	04090203          	lb	tp,64(s2)
     58c:	0100                	addi	s0,sp,128
     58e:	0200                	addi	s0,sp,256
     590:	0304                	addi	s1,sp,384
     592:	0306                	slli	t1,t1,0x1
     594:	0901                	addi	s2,s2,0
     596:	000a                	c.slli	zero,0x2
     598:	0501                	addi	a0,a0,0
     59a:	04020013          	addi	zero,tp,64 # 40 <ROM_BASE-0xffc0>
     59e:	7b030603          	lb	a2,1968(t1)
     5a2:	0409                	addi	s0,s0,2
     5a4:	0100                	addi	s0,sp,128
     5a6:	0905                	addi	s2,s2,1
     5a8:	0200                	addi	s0,sp,256
     5aa:	0304                	addi	s1,sp,384
     5ac:	02090503          	lb	a0,32(s2)
     5b0:	0100                	addi	s0,sp,128
     5b2:	0200                	addi	s0,sp,256
     5b4:	0304                	addi	s1,sp,384
     5b6:	0306                	slli	t1,t1,0x1
     5b8:	0901                	addi	s2,s2,0
     5ba:	0004                	.2byte	0x4
     5bc:	0501                	addi	a0,a0,0
     5be:	001a                	c.slli	zero,0x6
     5c0:	0402                	c.slli64	s0
     5c2:	097a0303          	lb	t1,151(s4)
     5c6:	0008                	.2byte	0x8
     5c8:	0501                	addi	a0,a0,0
     5ca:	04020013          	addi	zero,tp,64 # 40 <ROM_BASE-0xffc0>
     5ce:	09000303          	lb	t1,144(zero) # 90 <ROM_BASE-0xff70>
     5d2:	0000                	unimp
     5d4:	0501                	addi	a0,a0,0
     5d6:	0601                	addi	a2,a2,0
     5d8:	04090803          	lb	a6,64(s2)
     5dc:	0100                	addi	s0,sp,128
     5de:	0306                	slli	t1,t1,0x1
     5e0:	000c0903          	lb	s2,0(s8)
     5e4:	0501                	addi	a0,a0,0
     5e6:	0305                	addi	t1,t1,1
     5e8:	0901                	addi	s2,s2,0
     5ea:	0000                	unimp
     5ec:	0301                	addi	t1,t1,0
     5ee:	0901                	addi	s2,s2,0
     5f0:	0000                	unimp
     5f2:	0501                	addi	a0,a0,0
     5f4:	0601                	addi	a2,a2,0
     5f6:	00097e03          	.4byte	0x97e03
     5fa:	0100                	addi	s0,sp,128
     5fc:	0505                	addi	a0,a0,1
     5fe:	02090203          	lb	tp,32(s2)
     602:	0100                	addi	s0,sp,128
     604:	0105                	addi	sp,sp,1
     606:	02097e03          	.4byte	0x2097e03
     60a:	0100                	addi	s0,sp,128
     60c:	0505                	addi	a0,a0,1
     60e:	02090203          	lb	tp,32(s2)
     612:	0100                	addi	s0,sp,128
     614:	0306                	slli	t1,t1,0x1
     616:	0901                	addi	s2,s2,0
     618:	0004                	.2byte	0x4
     61a:	0301                	addi	t1,t1,0
     61c:	0901                	addi	s2,s2,0
     61e:	0008                	.2byte	0x8
     620:	0501                	addi	a0,a0,0
     622:	0601                	addi	a2,a2,0
     624:	04090103          	lb	sp,64(s2)
     628:	0100                	addi	s0,sp,128
     62a:	0505                	addi	a0,a0,1
     62c:	04097f03          	.4byte	0x4097f03
     630:	0100                	addi	s0,sp,128
     632:	0209                	addi	tp,tp,2 # 2 <ROM_BASE-0xfffe>
     634:	0000                	unimp
     636:	0101                	addi	sp,sp,0
     638:	0616                	slli	a2,a2,0x5
     63a:	0000                	unimp
     63c:	0005                	c.nop	1
     63e:	0008                	.2byte	0x8
     640:	0045                	c.nop	17
     642:	0000                	unimp
     644:	0101                	addi	sp,sp,0
     646:	fb01                	bnez	a4,556 <ROM_BASE-0xfaaa>
     648:	0d0e                	slli	s10,s10,0x3
     64a:	0100                	addi	s0,sp,128
     64c:	0101                	addi	sp,sp,0
     64e:	0001                	nop
     650:	0000                	unimp
     652:	0001                	nop
     654:	0100                	addi	s0,sp,128
     656:	0101                	addi	sp,sp,0
     658:	041f 0000 0000      	.byte	0x1f, 0x04, 0x00, 0x00, 0x00, 0x00
     65e:	0058                	addi	a4,sp,4
     660:	0000                	unimp
     662:	005c                	addi	a5,sp,4
     664:	0000                	unimp
     666:	0000008b          	.4byte	0x8b
     66a:	0102                	c.slli64	sp
     66c:	021f 050f 00ed      	.byte	0x1f, 0x02, 0x0f, 0x05, 0xed, 0x00
     672:	0000                	unimp
     674:	ed01                	bnez	a0,68c <ROM_BASE-0xf974>
     676:	0000                	unimp
     678:	0100                	addi	s0,sp,128
     67a:	00b6                	slli	ra,ra,0xd
     67c:	0000                	unimp
     67e:	c702                	sw	zero,140(sp)
     680:	0000                	unimp
     682:	0300                	addi	s0,sp,384
     684:	000000d7          	.4byte	0xd7
     688:	0501                	addi	a0,a0,0
     68a:	0001                	nop
     68c:	0209                	addi	tp,tp,2 # 2 <ROM_BASE-0xfffe>
     68e:	0254                	addi	a3,sp,260
     690:	0001                	nop
     692:	0000                	unimp
     694:	0000                	unimp
     696:	03050517          	auipc	a0,0x3050
     69a:	0901                	addi	s2,s2,0
     69c:	0000                	unimp
     69e:	0301                	addi	t1,t1,0
     6a0:	0901                	addi	s2,s2,0
     6a2:	0000                	unimp
     6a4:	0501                	addi	a0,a0,0 # 3050696 <_RODATA_END_+0x303ea6d>
     6a6:	0003060f          	.4byte	0x3060f
     6aa:	0009                	c.nop	2
     6ac:	0100                	addi	s0,sp,128
     6ae:	0105                	addi	sp,sp,1
     6b0:	02090103          	lb	sp,32(s2)
     6b4:	0100                	addi	s0,sp,128
     6b6:	0306                	slli	t1,t1,0x1
     6b8:	00020903          	lb	s2,0(tp) # 0 <ROM_BASE-0x10000>
     6bc:	0501                	addi	a0,a0,0
     6be:	0305                	addi	t1,t1,1
     6c0:	0901                	addi	s2,s2,0
     6c2:	0000                	unimp
     6c4:	0501                	addi	a0,a0,0
     6c6:	060c                	addi	a1,sp,768
     6c8:	00090003          	lb	zero,0(s2)
     6cc:	0100                	addi	s0,sp,128
     6ce:	0105                	addi	sp,sp,1
     6d0:	02090103          	lb	sp,32(s2)
     6d4:	0100                	addi	s0,sp,128
     6d6:	0306                	slli	t1,t1,0x1
     6d8:	00020903          	lb	s2,0(tp) # 0 <ROM_BASE-0x10000>
     6dc:	0501                	addi	a0,a0,0
     6de:	0305                	addi	t1,t1,1
     6e0:	0901                	addi	s2,s2,0
     6e2:	0000                	unimp
     6e4:	0501                	addi	a0,a0,0
     6e6:	0601                	addi	a2,a2,0
     6e8:	04097f03          	.4byte	0x4097f03
     6ec:	0100                	addi	s0,sp,128
     6ee:	0505                	addi	a0,a0,1
     6f0:	02090103          	lb	sp,32(s2)
     6f4:	0100                	addi	s0,sp,128
     6f6:	0105                	addi	sp,sp,1
     6f8:	04097f03          	.4byte	0x4097f03
     6fc:	0100                	addi	s0,sp,128
     6fe:	0505                	addi	a0,a0,1
     700:	06090103          	lb	sp,96(s2)
     704:	0100                	addi	s0,sp,128
     706:	0306                	slli	t1,t1,0x1
     708:	00040903          	lb	s2,0(s0)
     70c:	0301                	addi	t1,t1,0
     70e:	0972                	slli	s2,s2,0x1c
     710:	0000                	unimp
     712:	0301                	addi	t1,t1,0
     714:	0901                	addi	s2,s2,0
     716:	0000                	unimp
     718:	0501                	addi	a0,a0,0
     71a:	0003060f          	.4byte	0x3060f
     71e:	0009                	c.nop	2
     720:	0100                	addi	s0,sp,128
     722:	0505                	addi	a0,a0,1
     724:	0306                	slli	t1,t1,0x1
     726:	0008090f          	.4byte	0x8090f
     72a:	0501                	addi	a0,a0,0
     72c:	030a                	slli	t1,t1,0x2
     72e:	0900                	addi	s0,sp,144
     730:	0000                	unimp
     732:	0501                	addi	a0,a0,0
     734:	09000317          	auipc	t1,0x9000
     738:	0000                	unimp
     73a:	0501                	addi	a0,a0,0
     73c:	7103060f          	.4byte	0x7103060f
     740:	0009                	c.nop	2
     742:	0100                	addi	s0,sp,128
     744:	0905                	addi	s2,s2,1
     746:	0200                	addi	s0,sp,256
     748:	0304                	addi	s1,sp,384
     74a:	0306                	slli	t1,t1,0x1
     74c:	0911                	addi	s2,s2,4
     74e:	0002                	c.slli64	zero
     750:	0501                	addi	a0,a0,0
     752:	001e                	c.slli	zero,0x7
     754:	0402                	c.slli64	s0
     756:	097e0303          	lb	t1,151(t3)
     75a:	0002                	c.slli64	zero
     75c:	0501                	addi	a0,a0,0
     75e:	04020017          	auipc	zero,0x4020
     762:	09000303          	lb	t1,144(zero) # 90 <ROM_BASE-0xff70>
     766:	0000                	unimp
     768:	0501                	addi	a0,a0,0
     76a:	0305                	addi	t1,t1,1 # 9000735 <_RODATA_END_+0x8feeb0c>
     76c:	0906                	slli	s2,s2,0x1
     76e:	0004                	.2byte	0x4
     770:	0301                	addi	t1,t1,0
     772:	096a                	slli	s2,s2,0x1a
     774:	0000                	unimp
     776:	0301                	addi	t1,t1,0
     778:	0901                	addi	s2,s2,0
     77a:	0000                	unimp
     77c:	0501                	addi	a0,a0,0
     77e:	0003060f          	.4byte	0x3060f
     782:	0009                	c.nop	2
     784:	0100                	addi	s0,sp,128
     786:	0505                	addi	a0,a0,1
     788:	0306                	slli	t1,t1,0x1
     78a:	000a0917          	auipc	s2,0xa0
     78e:	0301                	addi	t1,t1,0
     790:	096e                	slli	s2,s2,0x1b
     792:	0000                	unimp
     794:	0501                	addi	a0,a0,0
     796:	060c                	addi	a1,sp,768
     798:	00090003          	lb	zero,0(s2) # a078a <_RODATA_END_+0x8eb61>
     79c:	0100                	addi	s0,sp,128
     79e:	0505                	addi	a0,a0,1
     7a0:	02091303          	lh	t1,32(s2)
     7a4:	0100                	addi	s0,sp,128
     7a6:	0c05                	addi	s8,s8,1
     7a8:	0c096d03          	lwu	s10,192(s2)
     7ac:	0100                	addi	s0,sp,128
     7ae:	0505                	addi	a0,a0,1
     7b0:	0306                	slli	t1,t1,0x1
     7b2:	00020913          	mv	s2,tp
     7b6:	0301                	addi	t1,t1,0
     7b8:	0901                	addi	s2,s2,0
     7ba:	0000                	unimp
     7bc:	0301                	addi	t1,t1,0
     7be:	0901                	addi	s2,s2,0
     7c0:	000a                	c.slli	zero,0x2
     7c2:	0301                	addi	t1,t1,0
     7c4:	000c0903          	lb	s2,0(s8)
     7c8:	0301                	addi	t1,t1,0
     7ca:	0962                	slli	s2,s2,0x18
     7cc:	0000                	unimp
     7ce:	0301                	addi	t1,t1,0
     7d0:	0901                	addi	s2,s2,0
     7d2:	0000                	unimp
     7d4:	0501                	addi	a0,a0,0
     7d6:	0003060f          	.4byte	0x3060f
     7da:	0009                	c.nop	2
     7dc:	0100                	addi	s0,sp,128
     7de:	0505                	addi	a0,a0,1
     7e0:	0306                	slli	t1,t1,0x1
     7e2:	091f 0006 0301      	.byte	0x1f, 0x09, 0x06, 0x00, 0x01, 0x03
     7e8:	0966                	slli	s2,s2,0x19
     7ea:	0000                	unimp
     7ec:	0501                	addi	a0,a0,0
     7ee:	060c                	addi	a1,sp,768
     7f0:	00090003          	lb	zero,0(s2)
     7f4:	0100                	addi	s0,sp,128
     7f6:	0505                	addi	a0,a0,1
     7f8:	02091b03          	lh	s6,32(s2)
     7fc:	0100                	addi	s0,sp,128
     7fe:	0c05                	addi	s8,s8,1
     800:	0c096503          	lwu	a0,192(s2)
     804:	0100                	addi	s0,sp,128
     806:	0505                	addi	a0,a0,1
     808:	0306                	slli	t1,t1,0x1
     80a:	0002091b          	sext.w	s2,tp
     80e:	0301                	addi	t1,t1,0
     810:	0901                	addi	s2,s2,0
     812:	0000                	unimp
     814:	0301                	addi	t1,t1,0
     816:	0901                	addi	s2,s2,0
     818:	000a                	c.slli	zero,0x2
     81a:	0301                	addi	t1,t1,0
     81c:	0902                	c.slli64	s2
     81e:	000c                	.2byte	0xc
     820:	0301                	addi	t1,t1,0
     822:	0000095b          	.4byte	0x95b
     826:	0301                	addi	t1,t1,0
     828:	0901                	addi	s2,s2,0
     82a:	0000                	unimp
     82c:	0501                	addi	a0,a0,0
     82e:	0003060f          	.4byte	0x3060f
     832:	0009                	c.nop	2
     834:	0100                	addi	s0,sp,128
     836:	0505                	addi	a0,a0,1
     838:	0306                	slli	t1,t1,0x1
     83a:	0926                	slli	s2,s2,0x9
     83c:	0004                	.2byte	0x4
     83e:	0501                	addi	a0,a0,0
     840:	0601                	addi	a2,a2,0
     842:	00090103          	lb	sp,0(s2)
     846:	0100                	addi	s0,sp,128
     848:	0505                	addi	a0,a0,1
     84a:	06097f03          	.4byte	0x6097f03
     84e:	0100                	addi	s0,sp,128
     850:	0105                	addi	sp,sp,1
     852:	04090103          	lb	sp,64(s2)
     856:	0100                	addi	s0,sp,128
     858:	0505                	addi	a0,a0,1
     85a:	00097f03          	.4byte	0x97f03
     85e:	0100                	addi	s0,sp,128
     860:	0105                	addi	sp,sp,1
     862:	04090103          	lb	sp,64(s2)
     866:	0100                	addi	s0,sp,128
     868:	0505                	addi	a0,a0,1
     86a:	02097f03          	.4byte	0x2097f03
     86e:	0100                	addi	s0,sp,128
     870:	0105                	addi	sp,sp,1
     872:	0306                	slli	t1,t1,0x1
     874:	0904                	addi	s1,sp,144
     876:	0002                	c.slli64	zero
     878:	0501                	addi	a0,a0,0
     87a:	0305                	addi	t1,t1,1
     87c:	0902                	c.slli64	s2
     87e:	0000                	unimp
     880:	0301                	addi	t1,t1,0
     882:	00000953          	.4byte	0x953
     886:	0301                	addi	t1,t1,0
     888:	0901                	addi	s2,s2,0
     88a:	0000                	unimp
     88c:	0501                	addi	a0,a0,0
     88e:	0601                	addi	a2,a2,0
     890:	00092a03          	lw	s4,0(s2)
     894:	0100                	addi	s0,sp,128
     896:	0f05                	addi	t5,t5,1
     898:	02095603          	lhu	a2,32(s2)
     89c:	0100                	addi	s0,sp,128
     89e:	0105                	addi	sp,sp,1
     8a0:	04092a03          	lw	s4,64(s2)
     8a4:	0100                	addi	s0,sp,128
     8a6:	0f05                	addi	t5,t5,1
     8a8:	06095603          	lhu	a2,96(s2)
     8ac:	0100                	addi	s0,sp,128
     8ae:	0505                	addi	a0,a0,1
     8b0:	0306                	slli	t1,t1,0x1
     8b2:	092e                	slli	s2,s2,0xb
     8b4:	0004                	.2byte	0x4
     8b6:	0301                	addi	t1,t1,0
     8b8:	0951                	addi	s2,s2,20
     8ba:	0000                	unimp
     8bc:	0301                	addi	t1,t1,0
     8be:	0901                	addi	s2,s2,0
     8c0:	0000                	unimp
     8c2:	0501                	addi	a0,a0,0
     8c4:	0003060f          	.4byte	0x3060f
     8c8:	0009                	c.nop	2
     8ca:	0100                	addi	s0,sp,128
     8cc:	0505                	addi	a0,a0,1
     8ce:	0306                	slli	t1,t1,0x1
     8d0:	0930                	addi	a2,sp,152
     8d2:	0002                	c.slli64	zero
     8d4:	0501                	addi	a0,a0,0
     8d6:	030a                	slli	t1,t1,0x2
     8d8:	0900                	addi	s0,sp,144
     8da:	0000                	unimp
     8dc:	0501                	addi	a0,a0,0
     8de:	09000317          	auipc	t1,0x9000
     8e2:	0000                	unimp
     8e4:	0501                	addi	a0,a0,0
     8e6:	5003060f          	.4byte	0x5003060f
     8ea:	0009                	c.nop	2
     8ec:	0100                	addi	s0,sp,128
     8ee:	0905                	addi	s2,s2,1
     8f0:	0200                	addi	s0,sp,256
     8f2:	0304                	addi	s1,sp,384
     8f4:	0306                	slli	t1,t1,0x1
     8f6:	0932                	slli	s2,s2,0xc
     8f8:	0004                	.2byte	0x4
     8fa:	0501                	addi	a0,a0,0
     8fc:	001f 0402 0303      	.byte	0x1f, 0x00, 0x02, 0x04, 0x03, 0x03
     902:	097e                	slli	s2,s2,0x1f
     904:	0002                	c.slli64	zero
     906:	0501                	addi	a0,a0,0
     908:	04020017          	auipc	zero,0x4020
     90c:	09000303          	lb	t1,144(zero) # 90 <ROM_BASE-0xff70>
     910:	0000                	unimp
     912:	0501                	addi	a0,a0,0
     914:	0305                	addi	t1,t1,1 # 90008df <_RODATA_END_+0x8feecb6>
     916:	00040907          	.4byte	0x40907
     91a:	0301                	addi	t1,t1,0
     91c:	0948                	addi	a0,sp,148
     91e:	0000                	unimp
     920:	0301                	addi	t1,t1,0
     922:	0901                	addi	s2,s2,0
     924:	0000                	unimp
     926:	0501                	addi	a0,a0,0
     928:	0003060f          	.4byte	0x3060f
     92c:	0009                	c.nop	2
     92e:	0100                	addi	s0,sp,128
     930:	0c05                	addi	s8,s8,1
     932:	0a090503          	lb	a0,160(s2)
     936:	0100                	addi	s0,sp,128
     938:	2d05                	addiw	s10,s10,1 # 18001 <_RODATA_END_+0x63d8>
     93a:	0200                	addi	s0,sp,256
     93c:	0104                	addi	s1,sp,128
     93e:	0306                	slli	t1,t1,0x1
     940:	0934                	addi	a3,sp,152
     942:	0004                	.2byte	0x4
     944:	0501                	addi	a0,a0,0
     946:	0005                	c.nop	1
     948:	0402                	c.slli64	s0
     94a:	0301                	addi	t1,t1,0
     94c:	094c                	addi	a1,sp,148
     94e:	0000                	unimp
     950:	0501                	addi	a0,a0,0
     952:	000c                	.2byte	0xc
     954:	0402                	c.slli64	s0
     956:	0601                	addi	a2,a2,0
     958:	00090003          	lb	zero,0(s2)
     95c:	0100                	addi	s0,sp,128
     95e:	2d05                	addiw	s10,s10,1
     960:	0200                	addi	s0,sp,256
     962:	0104                	addi	s1,sp,128
     964:	02093403          	ld	s0,32(s2)
     968:	0100                	addi	s0,sp,128
     96a:	0505                	addi	a0,a0,1
     96c:	0306                	slli	t1,t1,0x1
     96e:	00040903          	lb	s2,0(s0)
     972:	0301                	addi	t1,t1,0
     974:	0949                	addi	s2,s2,18
     976:	0000                	unimp
     978:	0501                	addi	a0,a0,0
     97a:	060c                	addi	a1,sp,768
     97c:	00090003          	lb	zero,0(s2)
     980:	0100                	addi	s0,sp,128
     982:	0505                	addi	a0,a0,1
     984:	0306                	slli	t1,t1,0x1
     986:	0939                	addi	s2,s2,14
     988:	0006                	c.slli	zero,0x1
     98a:	0301                	addi	t1,t1,0
     98c:	00000947          	.4byte	0x947
     990:	0501                	addi	a0,a0,0
     992:	0608                	addi	a0,sp,768
     994:	00093903          	ld	s2,0(s2)
     998:	0100                	addi	s0,sp,128
     99a:	0905                	addi	s2,s2,1
     99c:	0306                	slli	t1,t1,0x1
     99e:	0902                	c.slli64	s2
     9a0:	0004                	.2byte	0x4
     9a2:	0301                	addi	t1,t1,0
     9a4:	0901                	addi	s2,s2,0
     9a6:	000c                	.2byte	0xc
     9a8:	0501                	addi	a0,a0,0
     9aa:	0305                	addi	t1,t1,1
     9ac:	0944                	addi	s1,sp,148
     9ae:	0000                	unimp
     9b0:	0501                	addi	a0,a0,0
     9b2:	060c                	addi	a1,sp,768
     9b4:	00090003          	lb	zero,0(s2)
     9b8:	0100                	addi	s0,sp,128
     9ba:	0905                	addi	s2,s2,1
     9bc:	02093c03          	ld	s8,32(s2)
     9c0:	0100                	addi	s0,sp,128
     9c2:	0306                	slli	t1,t1,0x1
     9c4:	0901                	addi	s2,s2,0
     9c6:	0008                	.2byte	0x8
     9c8:	0501                	addi	a0,a0,0
     9ca:	0305                	addi	t1,t1,1
     9cc:	0904                	addi	s1,sp,144
     9ce:	000c                	.2byte	0xc
     9d0:	0301                	addi	t1,t1,0
     9d2:	7fb9                	lui	t6,0xfffee
     9d4:	0009                	c.nop	2
     9d6:	0100                	addi	s0,sp,128
     9d8:	00090103          	lb	sp,0(s2)
     9dc:	0100                	addi	s0,sp,128
     9de:	0105                	addi	sp,sp,1
     9e0:	0306                	slli	t1,t1,0x1
     9e2:	00cc                	addi	a1,sp,68
     9e4:	0009                	c.nop	2
     9e6:	0100                	addi	s0,sp,128
     9e8:	0f05                	addi	t5,t5,1
     9ea:	097fb403          	ld	s0,151(t6) # fffffffffffee097 <_RODATA_END_+0xfffffffffffdc46e>
     9ee:	0004                	.2byte	0x4
     9f0:	0501                	addi	a0,a0,0
     9f2:	0605                	addi	a2,a2,1
     9f4:	0900c903          	lbu	s2,144(ra)
     9f8:	0008                	.2byte	0x8
     9fa:	0301                	addi	t1,t1,0
     9fc:	7fb6                	ld	t6,360(sp)
     9fe:	0009                	c.nop	2
     a00:	0100                	addi	s0,sp,128
     a02:	00090103          	lb	sp,0(s2)
     a06:	0100                	addi	s0,sp,128
     a08:	0f05                	addi	t5,t5,1
     a0a:	0306                	slli	t1,t1,0x1
     a0c:	0900                	addi	s0,sp,144
     a0e:	0000                	unimp
     a10:	0501                	addi	a0,a0,0
     a12:	0605                	addi	a2,a2,1
     a14:	0900cb03          	lbu	s6,144(ra)
     a18:	0004                	.2byte	0x4
     a1a:	0501                	addi	a0,a0,0
     a1c:	0601                	addi	a2,a2,0
     a1e:	00090103          	lb	sp,0(s2)
     a22:	0100                	addi	s0,sp,128
     a24:	0306                	slli	t1,t1,0x1
     a26:	000a0903          	lb	s2,0(s4)
     a2a:	0501                	addi	a0,a0,0
     a2c:	0305                	addi	t1,t1,1
     a2e:	0901                	addi	s2,s2,0
     a30:	0000                	unimp
     a32:	0301                	addi	t1,t1,0
     a34:	0902                	c.slli64	s2
     a36:	0000                	unimp
     a38:	0501                	addi	a0,a0,0
     a3a:	0608                	addi	a0,sp,768
     a3c:	00090003          	lb	zero,0(s2)
     a40:	0100                	addi	s0,sp,128
     a42:	0505                	addi	a0,a0,1
     a44:	0306                	slli	t1,t1,0x1
     a46:	0904                	addi	s1,sp,144
     a48:	0008                	.2byte	0x8
     a4a:	0301                	addi	t1,t1,0
     a4c:	7fa9                	lui	t6,0xfffea
     a4e:	0009                	c.nop	2
     a50:	0100                	addi	s0,sp,128
     a52:	00090103          	lb	sp,0(s2)
     a56:	0100                	addi	s0,sp,128
     a58:	0f05                	addi	t5,t5,1
     a5a:	0306                	slli	t1,t1,0x1
     a5c:	0900                	addi	s0,sp,144
     a5e:	0000                	unimp
     a60:	0501                	addi	a0,a0,0
     a62:	0605                	addi	a2,a2,1
     a64:	0900d803          	lhu	a6,144(ra)
     a68:	0008                	.2byte	0x8
     a6a:	0501                	addi	a0,a0,0
     a6c:	030a                	slli	t1,t1,0x2
     a6e:	0900                	addi	s0,sp,144
     a70:	0000                	unimp
     a72:	0501                	addi	a0,a0,0
     a74:	a803060f          	.4byte	0xa803060f
     a78:	097f                	.2byte	0x97f
     a7a:	0000                	unimp
     a7c:	0501                	addi	a0,a0,0
     a7e:	0305                	addi	t1,t1,1
     a80:	00d8                	addi	a4,sp,68
     a82:	0409                	addi	s0,s0,2
     a84:	0100                	addi	s0,sp,128
     a86:	1705                	addi	a4,a4,-31
     a88:	0200                	addi	s0,sp,256
     a8a:	0104                	addi	s1,sp,128
     a8c:	0306                	slli	t1,t1,0x1
     a8e:	0900                	addi	s0,sp,144
     a90:	0002                	c.slli64	zero
     a92:	0501                	addi	a0,a0,0
     a94:	0009                	c.nop	2
     a96:	0402                	c.slli64	s0
     a98:	09070303          	lb	t1,144(a4)
     a9c:	000c                	.2byte	0xc
     a9e:	0501                	addi	a0,a0,0
     aa0:	001e                	c.slli	zero,0x7
     aa2:	0402                	c.slli64	s0
     aa4:	097e0303          	lb	t1,151(t3)
     aa8:	0002                	c.slli64	zero
     aaa:	0501                	addi	a0,a0,0
     aac:	04020017          	auipc	zero,0x4020
     ab0:	09000303          	lb	t1,144(zero) # 90 <ROM_BASE-0xff70>
     ab4:	0000                	unimp
     ab6:	0501                	addi	a0,a0,0
     ab8:	0305                	addi	t1,t1,1
     aba:	00040907          	.4byte	0x40907
     abe:	0301                	addi	t1,t1,0
     ac0:	00097f9b          	.4byte	0x97f9b
     ac4:	0100                	addi	s0,sp,128
     ac6:	00090103          	lb	sp,0(s2)
     aca:	0100                	addi	s0,sp,128
     acc:	0f05                	addi	t5,t5,1
     ace:	0306                	slli	t1,t1,0x1
     ad0:	0900                	addi	s0,sp,144
     ad2:	0000                	unimp
     ad4:	0501                	addi	a0,a0,0
     ad6:	030c                	addi	a1,sp,384
     ad8:	0905                	addi	s2,s2,1
     ada:	000a                	c.slli	zero,0x2
     adc:	0501                	addi	a0,a0,0
     ade:	0005                	c.nop	1
     ae0:	0402                	c.slli64	s0
     ae2:	0601                	addi	a2,a2,0
     ae4:	0900e103          	lwu	sp,144(ra)
     ae8:	0004                	.2byte	0x4
     aea:	0501                	addi	a0,a0,0
     aec:	0009                	c.nop	2
     aee:	0402                	c.slli64	s0
     af0:	0301                	addi	t1,t1,0
     af2:	0902                	c.slli64	s2
     af4:	0000                	unimp
     af6:	0501                	addi	a0,a0,0
     af8:	0005                	c.nop	1
     afa:	0402                	c.slli64	s0
     afc:	0301                	addi	t1,t1,0
     afe:	7f9d                	lui	t6,0xfffe7
     b00:	0009                	c.nop	2
     b02:	0100                	addi	s0,sp,128
     b04:	0c05                	addi	s8,s8,1
     b06:	0200                	addi	s0,sp,256
     b08:	0104                	addi	s1,sp,128
     b0a:	0306                	slli	t1,t1,0x1
     b0c:	0900                	addi	s0,sp,144
     b0e:	0000                	unimp
     b10:	0501                	addi	a0,a0,0
     b12:	001d                	c.nop	7
     b14:	0402                	c.slli64	s0
     b16:	0601                	addi	a2,a2,0
     b18:	0900e403          	lwu	s0,144(ra)
     b1c:	0002                	c.slli64	zero
     b1e:	0501                	addi	a0,a0,0
     b20:	060c                	addi	a1,sp,768
     b22:	097f9c03          	lh	s8,151(t6) # fffffffffffe7097 <_RODATA_END_+0xfffffffffffd546e>
     b26:	0004                	.2byte	0x4
     b28:	0501                	addi	a0,a0,0
     b2a:	04020017          	auipc	zero,0x4020
     b2e:	0301                	addi	t1,t1,0
     b30:	00e6                	slli	ra,ra,0x19
     b32:	0809                	addi	a6,a6,2
     b34:	0100                	addi	s0,sp,128
     b36:	0200                	addi	s0,sp,256
     b38:	0104                	addi	s1,sp,128
     b3a:	0306                	slli	t1,t1,0x1
     b3c:	0900                	addi	s0,sp,144
     b3e:	0004                	.2byte	0x4
     b40:	0501                	addi	a0,a0,0
     b42:	0305                	addi	t1,t1,1
     b44:	090a                	slli	s2,s2,0x2
     b46:	0004                	.2byte	0x4
     b48:	0301                	addi	t1,t1,0
     b4a:	7f8a                	ld	t6,160(sp)
     b4c:	0009                	c.nop	2
     b4e:	0100                	addi	s0,sp,128
     b50:	00090103          	lb	sp,0(s2)
     b54:	0100                	addi	s0,sp,128
     b56:	0f05                	addi	t5,t5,1
     b58:	0306                	slli	t1,t1,0x1
     b5a:	0900                	addi	s0,sp,144
     b5c:	0000                	unimp
     b5e:	0501                	addi	a0,a0,0
     b60:	0605                	addi	a2,a2,1
     b62:	0900f803          	.4byte	0x900f803
     b66:	0008                	.2byte	0x8
     b68:	0301                	addi	t1,t1,0
     b6a:	00097f87          	.4byte	0x97f87
     b6e:	0100                	addi	s0,sp,128
     b70:	00090103          	lb	sp,0(s2)
     b74:	0100                	addi	s0,sp,128
     b76:	0f05                	addi	t5,t5,1
     b78:	0306                	slli	t1,t1,0x1
     b7a:	0900                	addi	s0,sp,144
     b7c:	0000                	unimp
     b7e:	0501                	addi	a0,a0,0
     b80:	0605                	addi	a2,a2,1
     b82:	0900fa03          	.4byte	0x900fa03
     b86:	0004                	.2byte	0x4
     b88:	0501                	addi	a0,a0,0
     b8a:	060c                	addi	a1,sp,768
     b8c:	00090003          	lb	zero,0(s2)
     b90:	0100                	addi	s0,sp,128
     b92:	0905                	addi	s2,s2,1
     b94:	0200                	addi	s0,sp,256
     b96:	0304                	addi	s1,sp,384
     b98:	0306                	slli	t1,t1,0x1
     b9a:	0960                	addi	s0,sp,156
     b9c:	0004                	.2byte	0x4
     b9e:	0501                	addi	a0,a0,0
     ba0:	002a                	c.slli	zero,0xa
     ba2:	0402                	c.slli64	s0
     ba4:	00030603          	lb	a2,0(t1)
     ba8:	0009                	c.nop	2
     baa:	0100                	addi	s0,sp,128
     bac:	0905                	addi	s2,s2,1
     bae:	0200                	addi	s0,sp,256
     bb0:	0304                	addi	s1,sp,384
     bb2:	04090003          	lb	zero,64(s2)
     bb6:	0100                	addi	s0,sp,128
     bb8:	0505                	addi	a0,a0,1
     bba:	0200                	addi	s0,sp,256
     bbc:	0304                	addi	s1,sp,384
     bbe:	0306                	slli	t1,t1,0x1
     bc0:	7fa5                	lui	t6,0xfffe9
     bc2:	0409                	addi	s0,s0,2
     bc4:	0100                	addi	s0,sp,128
     bc6:	0200                	addi	s0,sp,256
     bc8:	0304                	addi	s1,sp,384
     bca:	00090103          	lb	sp,0(s2)
     bce:	0100                	addi	s0,sp,128
     bd0:	0f05                	addi	t5,t5,1
     bd2:	0200                	addi	s0,sp,256
     bd4:	0304                	addi	s1,sp,384
     bd6:	0306                	slli	t1,t1,0x1
     bd8:	0900                	addi	s0,sp,144
     bda:	0002                	c.slli64	zero
     bdc:	0501                	addi	a0,a0,0
     bde:	001f 0402 0603      	.byte	0x1f, 0x00, 0x02, 0x04, 0x03, 0x06
     be4:	0900d803          	lhu	a6,144(ra)
     be8:	0002                	c.slli64	zero
     bea:	0501                	addi	a0,a0,0
     bec:	0309                	addi	t1,t1,2
     bee:	0915                	addi	s2,s2,5
     bf0:	0002                	c.slli64	zero
     bf2:	0501                	addi	a0,a0,0
     bf4:	0305                	addi	t1,t1,1
     bf6:	7f98                	ld	a4,56(a5)
     bf8:	0009                	c.nop	2
     bfa:	0100                	addi	s0,sp,128
     bfc:	0c05                	addi	s8,s8,1
     bfe:	0306                	slli	t1,t1,0x1
     c00:	0900                	addi	s0,sp,144
     c02:	0000                	unimp
     c04:	0501                	addi	a0,a0,0
     c06:	0609                	addi	a2,a2,2
     c08:	0900e903          	lwu	s2,144(ra)
     c0c:	0002                	c.slli64	zero
     c0e:	0501                	addi	a0,a0,0
     c10:	060c                	addi	a1,sp,768
     c12:	00090003          	lb	zero,0(s2)
     c16:	0100                	addi	s0,sp,128
     c18:	0d05                	addi	s10,s10,1
     c1a:	0306                	slli	t1,t1,0x1
     c1c:	0902                	c.slli64	s2
     c1e:	0004                	.2byte	0x4
     c20:	0501                	addi	a0,a0,0
     c22:	0305                	addi	t1,t1,1
     c24:	7f95                	lui	t6,0xfffe5
     c26:	0009                	c.nop	2
     c28:	0100                	addi	s0,sp,128
     c2a:	0c05                	addi	s8,s8,1
     c2c:	0306                	slli	t1,t1,0x1
     c2e:	0900                	addi	s0,sp,144
     c30:	0000                	unimp
     c32:	0501                	addi	a0,a0,0
     c34:	0316                	slli	t1,t1,0x5
     c36:	040900eb          	.4byte	0x40900eb
     c3a:	0100                	addi	s0,sp,128
     c3c:	1005                	c.nop	-31
     c3e:	0c096303          	lwu	t1,192(s2)
     c42:	0100                	addi	s0,sp,128
     c44:	0105                	addi	sp,sp,1
     c46:	02092803          	lw	a6,32(s2)
     c4a:	0100                	addi	s0,sp,128
     c4c:	0209                	addi	tp,tp,2 # 2 <ROM_BASE-0xfffe>
     c4e:	0000                	unimp
     c50:	0101                	addi	sp,sp,0
     c52:	0991                	addi	s3,s3,4
     c54:	0000                	unimp
     c56:	0005                	c.nop	1
     c58:	0008                	.2byte	0x8
     c5a:	004a                	c.slli	zero,0x12
     c5c:	0000                	unimp
     c5e:	0101                	addi	sp,sp,0
     c60:	fb01                	bnez	a4,b70 <ROM_BASE-0xf490>
     c62:	0d0e                	slli	s10,s10,0x3
     c64:	0100                	addi	s0,sp,128
     c66:	0101                	addi	sp,sp,0
     c68:	0001                	nop
     c6a:	0000                	unimp
     c6c:	0001                	nop
     c6e:	0100                	addi	s0,sp,128
     c70:	0101                	addi	sp,sp,0
     c72:	041f 0000 0000      	.byte	0x1f, 0x04, 0x00, 0x00, 0x00, 0x00
     c78:	0058                	addi	a4,sp,4
     c7a:	0000                	unimp
     c7c:	005c                	addi	a5,sp,4
     c7e:	0000                	unimp
     c80:	0000008b          	.4byte	0x8b
     c84:	0102                	c.slli64	sp
     c86:	021f 060f 00f7      	.byte	0x1f, 0x02, 0x0f, 0x06, 0xf7, 0x00
     c8c:	0000                	unimp
     c8e:	f701                	bnez	a4,b96 <ROM_BASE-0xf46a>
     c90:	0000                	unimp
     c92:	0100                	addi	s0,sp,128
     c94:	00b6                	slli	ra,ra,0xd
     c96:	0000                	unimp
     c98:	c702                	sw	zero,140(sp)
     c9a:	0000                	unimp
     c9c:	0300                	addi	s0,sp,384
     c9e:	000000d7          	.4byte	0xd7
     ca2:	fc01                	bnez	s0,bba <ROM_BASE-0xf446>
     ca4:	0000                	unimp
     ca6:	0100                	addi	s0,sp,128
     ca8:	0105                	addi	sp,sp,1
     caa:	0900                	addi	s0,sp,144
     cac:	ec02                	sd	zero,24(sp)
     cae:	00000103          	lb	sp,0(zero) # 0 <ROM_BASE-0x10000>
     cb2:	0000                	unimp
     cb4:	1800                	addi	s0,sp,48
     cb6:	0505                	addi	a0,a0,1
     cb8:	00090103          	lb	sp,0(s2)
     cbc:	0100                	addi	s0,sp,128
     cbe:	0c05                	addi	s8,s8,1
     cc0:	0306                	slli	t1,t1,0x1
     cc2:	0900                	addi	s0,sp,144
     cc4:	0000                	unimp
     cc6:	0501                	addi	a0,a0,0
     cc8:	0601                	addi	a2,a2,0
     cca:	06090403          	lb	s0,96(s2)
     cce:	0100                	addi	s0,sp,128
     cd0:	0505                	addi	a0,a0,1
     cd2:	00090103          	lb	sp,0(s2)
     cd6:	0100                	addi	s0,sp,128
     cd8:	00090103          	lb	sp,0(s2)
     cdc:	0100                	addi	s0,sp,128
     cde:	00090203          	lb	tp,0(s2)
     ce2:	0100                	addi	s0,sp,128
     ce4:	0105                	addi	sp,sp,1
     ce6:	0306                	slli	t1,t1,0x1
     ce8:	097c                	addi	a5,sp,156
     cea:	0000                	unimp
     cec:	0301                	addi	t1,t1,0
     cee:	0900                	addi	s0,sp,144
     cf0:	000e                	c.slli	zero,0x3
     cf2:	0501                	addi	a0,a0,0
     cf4:	0305                	addi	t1,t1,1
     cf6:	0904                	addi	s1,sp,144
     cf8:	0002                	c.slli64	zero
     cfa:	0601                	addi	a2,a2,0
     cfc:	04090103          	lb	sp,64(s2)
     d00:	0100                	addi	s0,sp,128
     d02:	08090103          	lb	sp,128(s2)
     d06:	0100                	addi	s0,sp,128
     d08:	08090103          	lb	sp,128(s2)
     d0c:	0100                	addi	s0,sp,128
     d0e:	1205                	addi	tp,tp,-31 # ffffffffffffffe1 <_RODATA_END_+0xfffffffffffee3b8>
     d10:	0306                	slli	t1,t1,0x1
     d12:	0900                	addi	s0,sp,144
     d14:	0000                	unimp
     d16:	0501                	addi	a0,a0,0
     d18:	0305                	addi	t1,t1,1
     d1a:	0900                	addi	s0,sp,144
     d1c:	0004                	.2byte	0x4
     d1e:	0601                	addi	a2,a2,0
     d20:	08090103          	lb	sp,128(s2)
     d24:	0100                	addi	s0,sp,128
     d26:	1205                	addi	tp,tp,-31 # ffffffffffffffe1 <_RODATA_END_+0xfffffffffffee3b8>
     d28:	0306                	slli	t1,t1,0x1
     d2a:	0900                	addi	s0,sp,144
     d2c:	0000                	unimp
     d2e:	0501                	addi	a0,a0,0
     d30:	0305                	addi	t1,t1,1
     d32:	0900                	addi	s0,sp,144
     d34:	0004                	.2byte	0x4
     d36:	0601                	addi	a2,a2,0
     d38:	08090103          	lb	sp,128(s2)
     d3c:	0100                	addi	s0,sp,128
     d3e:	08090103          	lb	sp,128(s2)
     d42:	0100                	addi	s0,sp,128
     d44:	06090203          	lb	tp,96(s2)
     d48:	0100                	addi	s0,sp,128
     d4a:	0306                	slli	t1,t1,0x1
     d4c:	097e                	slli	s2,s2,0x1f
     d4e:	0000                	unimp
     d50:	0601                	addi	a2,a2,0
     d52:	04090303          	lb	t1,64(s2)
     d56:	0100                	addi	s0,sp,128
     d58:	0905                	addi	s2,s2,1
     d5a:	00090203          	lb	tp,0(s2)
     d5e:	0100                	addi	s0,sp,128
     d60:	0d05                	addi	s10,s10,1
     d62:	0306                	slli	t1,t1,0x1
     d64:	0900                	addi	s0,sp,144
     d66:	0000                	unimp
     d68:	0501                	addi	a0,a0,0
     d6a:	0609                	addi	a2,a2,2
     d6c:	04090103          	lb	sp,64(s2)
     d70:	0100                	addi	s0,sp,128
     d72:	0c05                	addi	s8,s8,1
     d74:	0306                	slli	t1,t1,0x1
     d76:	0900                	addi	s0,sp,144
     d78:	0000                	unimp
     d7a:	0501                	addi	a0,a0,0
     d7c:	0612                	slli	a2,a2,0x4
     d7e:	0c090403          	lb	s0,192(s2)
     d82:	0100                	addi	s0,sp,128
     d84:	0505                	addi	a0,a0,1
     d86:	04090103          	lb	sp,64(s2)
     d8a:	0100                	addi	s0,sp,128
     d8c:	00090303          	lb	t1,0(s2)
     d90:	0100                	addi	s0,sp,128
     d92:	00090103          	lb	sp,0(s2)
     d96:	0100                	addi	s0,sp,128
     d98:	0105                	addi	sp,sp,1
     d9a:	0306                	slli	t1,t1,0x1
     d9c:	0901                	addi	s2,s2,0
     d9e:	0000                	unimp
     da0:	0601                	addi	a2,a2,0
     da2:	0c090303          	lb	t1,192(s2)
     da6:	0100                	addi	s0,sp,128
     da8:	0505                	addi	a0,a0,1
     daa:	00090103          	lb	sp,0(s2)
     dae:	0100                	addi	s0,sp,128
     db0:	0105                	addi	sp,sp,1
     db2:	0306                	slli	t1,t1,0x1
     db4:	097f                	.2byte	0x97f
     db6:	0000                	unimp
     db8:	0501                	addi	a0,a0,0
     dba:	0305                	addi	t1,t1,1
     dbc:	0901                	addi	s2,s2,0
     dbe:	0006                	c.slli	zero,0x1
     dc0:	0501                	addi	a0,a0,0
     dc2:	0301                	addi	t1,t1,0
     dc4:	097f                	.2byte	0x97f
     dc6:	0008                	.2byte	0x8
     dc8:	0301                	addi	t1,t1,0
     dca:	0900                	addi	s0,sp,144
     dcc:	0004                	.2byte	0x4
     dce:	0501                	addi	a0,a0,0
     dd0:	0305                	addi	t1,t1,1
     dd2:	0901                	addi	s2,s2,0
     dd4:	0002                	c.slli64	zero
     dd6:	0601                	addi	a2,a2,0
     dd8:	04090103          	lb	sp,64(s2)
     ddc:	0100                	addi	s0,sp,128
     dde:	06090103          	lb	sp,96(s2)
     de2:	0100                	addi	s0,sp,128
     de4:	0c090103          	lb	sp,192(s2)
     de8:	0100                	addi	s0,sp,128
     dea:	06090103          	lb	sp,96(s2)
     dee:	0100                	addi	s0,sp,128
     df0:	0105                	addi	sp,sp,1
     df2:	0306                	slli	t1,t1,0x1
     df4:	0901                	addi	s2,s2,0
     df6:	0000                	unimp
     df8:	0501                	addi	a0,a0,0
     dfa:	0305                	addi	t1,t1,1
     dfc:	097f                	.2byte	0x97f
     dfe:	0006                	c.slli	zero,0x1
     e00:	0501                	addi	a0,a0,0
     e02:	0301                	addi	t1,t1,0
     e04:	0901                	addi	s2,s2,0
     e06:	0004                	.2byte	0x4
     e08:	0501                	addi	a0,a0,0
     e0a:	0305                	addi	t1,t1,1
     e0c:	097f                	.2byte	0x97f
     e0e:	0000                	unimp
     e10:	0501                	addi	a0,a0,0
     e12:	0301                	addi	t1,t1,0
     e14:	0901                	addi	s2,s2,0
     e16:	0004                	.2byte	0x4
     e18:	0501                	addi	a0,a0,0
     e1a:	0305                	addi	t1,t1,1
     e1c:	097f                	.2byte	0x97f
     e1e:	0002                	c.slli64	zero
     e20:	0501                	addi	a0,a0,0
     e22:	0601                	addi	a2,a2,0
     e24:	02090403          	lb	s0,32(s2)
     e28:	0100                	addi	s0,sp,128
     e2a:	0505                	addi	a0,a0,1
     e2c:	00090103          	lb	sp,0(s2)
     e30:	0100                	addi	s0,sp,128
     e32:	00090103          	lb	sp,0(s2)
     e36:	0100                	addi	s0,sp,128
     e38:	00090103          	lb	sp,0(s2)
     e3c:	0100                	addi	s0,sp,128
     e3e:	0e05                	addi	t3,t3,1
     e40:	00090003          	lb	zero,0(s2)
     e44:	0100                	addi	s0,sp,128
     e46:	0105                	addi	sp,sp,1
     e48:	0306                	slli	t1,t1,0x1
     e4a:	097d                	addi	s2,s2,31
     e4c:	0000                	unimp
     e4e:	0301                	addi	t1,t1,0
     e50:	0900                	addi	s0,sp,144
     e52:	000c                	.2byte	0xc
     e54:	0501                	addi	a0,a0,0
     e56:	030e                	slli	t1,t1,0x3
     e58:	00040903          	lb	s2,0(s0)
     e5c:	0501                	addi	a0,a0,0
     e5e:	0609                	addi	a2,a2,2
     e60:	02090203          	lb	tp,32(s2)
     e64:	0100                	addi	s0,sp,128
     e66:	0d05                	addi	s10,s10,1
     e68:	0306                	slli	t1,t1,0x1
     e6a:	0900                	addi	s0,sp,144
     e6c:	0000                	unimp
     e6e:	0501                	addi	a0,a0,0
     e70:	030c                	addi	a1,sp,384
     e72:	000c0903          	lb	s2,0(s8)
     e76:	0501                	addi	a0,a0,0
     e78:	030d                	addi	t1,t1,3
     e7a:	097d                	addi	s2,s2,31
     e7c:	0002                	c.slli64	zero
     e7e:	0501                	addi	a0,a0,0
     e80:	0609                	addi	a2,a2,2
     e82:	02090103          	lb	sp,32(s2)
     e86:	0100                	addi	s0,sp,128
     e88:	04090103          	lb	sp,64(s2)
     e8c:	0100                	addi	s0,sp,128
     e8e:	00090103          	lb	sp,0(s2)
     e92:	0100                	addi	s0,sp,128
     e94:	0c05                	addi	s8,s8,1
     e96:	0306                	slli	t1,t1,0x1
     e98:	0900                	addi	s0,sp,144
     e9a:	0000                	unimp
     e9c:	0501                	addi	a0,a0,0
     e9e:	060e                	slli	a2,a2,0x3
     ea0:	02097b03          	.4byte	0x2097b03
     ea4:	0100                	addi	s0,sp,128
     ea6:	0505                	addi	a0,a0,1
     ea8:	04090803          	lb	a6,64(s2)
     eac:	0100                	addi	s0,sp,128
     eae:	0e090103          	lb	sp,224(s2)
     eb2:	0100                	addi	s0,sp,128
     eb4:	0e05                	addi	t3,t3,1
     eb6:	0306                	slli	t1,t1,0x1
     eb8:	0900                	addi	s0,sp,144
     eba:	0000                	unimp
     ebc:	0501                	addi	a0,a0,0
     ebe:	0301                	addi	t1,t1,0
     ec0:	0901                	addi	s2,s2,0
     ec2:	0002                	c.slli64	zero
     ec4:	0501                	addi	a0,a0,0
     ec6:	0314                	addi	a3,sp,384
     ec8:	097c                	addi	a5,sp,156
     eca:	000c                	.2byte	0xc
     ecc:	0501                	addi	a0,a0,0
     ece:	0601                	addi	a2,a2,0
     ed0:	04090703          	lb	a4,64(s2)
     ed4:	0100                	addi	s0,sp,128
     ed6:	0505                	addi	a0,a0,1
     ed8:	00090103          	lb	sp,0(s2)
     edc:	0100                	addi	s0,sp,128
     ede:	0105                	addi	sp,sp,1
     ee0:	0306                	slli	t1,t1,0x1
     ee2:	097f                	.2byte	0x97f
     ee4:	0000                	unimp
     ee6:	0501                	addi	a0,a0,0
     ee8:	0312                	slli	t1,t1,0x4
     eea:	0901                	addi	s2,s2,0
     eec:	0002                	c.slli64	zero
     eee:	0501                	addi	a0,a0,0
     ef0:	0301                	addi	t1,t1,0
     ef2:	097f                	.2byte	0x97f
     ef4:	000a                	c.slli	zero,0x2
     ef6:	0501                	addi	a0,a0,0
     ef8:	0312                	slli	t1,t1,0x4
     efa:	0901                	addi	s2,s2,0
     efc:	0008                	.2byte	0x8
     efe:	0501                	addi	a0,a0,0
     f00:	0605                	addi	a2,a2,1
     f02:	06090103          	lb	sp,96(s2)
     f06:	0100                	addi	s0,sp,128
     f08:	04090103          	lb	sp,64(s2)
     f0c:	0100                	addi	s0,sp,128
     f0e:	04090103          	lb	sp,64(s2)
     f12:	0100                	addi	s0,sp,128
     f14:	1205                	addi	tp,tp,-31 # ffffffffffffffe1 <_RODATA_END_+0xfffffffffffee3b8>
     f16:	0306                	slli	t1,t1,0x1
     f18:	0900                	addi	s0,sp,144
     f1a:	0000                	unimp
     f1c:	0501                	addi	a0,a0,0
     f1e:	0605                	addi	a2,a2,1
     f20:	06090103          	lb	sp,96(s2)
     f24:	0100                	addi	s0,sp,128
     f26:	1205                	addi	tp,tp,-31 # ffffffffffffffe1 <_RODATA_END_+0xfffffffffffee3b8>
     f28:	0306                	slli	t1,t1,0x1
     f2a:	0900                	addi	s0,sp,144
     f2c:	0000                	unimp
     f2e:	0501                	addi	a0,a0,0
     f30:	0605                	addi	a2,a2,1
     f32:	06090103          	lb	sp,96(s2)
     f36:	0100                	addi	s0,sp,128
     f38:	04090203          	lb	tp,64(s2)
     f3c:	0100                	addi	s0,sp,128
     f3e:	04090103          	lb	sp,64(s2)
     f42:	0100                	addi	s0,sp,128
     f44:	2b05                	addiw	s6,s6,1
     f46:	0306                	slli	t1,t1,0x1
     f48:	0900                	addi	s0,sp,144
     f4a:	0000                	unimp
     f4c:	0501                	addi	a0,a0,0
     f4e:	0016                	c.slli	zero,0x5
     f50:	0402                	c.slli64	s0
     f52:	0301                	addi	t1,t1,0
     f54:	0900                	addi	s0,sp,144
     f56:	0008                	.2byte	0x8
     f58:	0501                	addi	a0,a0,0
     f5a:	0402002b          	.4byte	0x402002b
     f5e:	09000303          	lb	t1,144(zero) # 90 <ROM_BASE-0xff70>
     f62:	0006                	c.slli	zero,0x1
     f64:	0501                	addi	a0,a0,0
     f66:	0001                	nop
     f68:	0402                	c.slli64	s0
     f6a:	0308                	addi	a0,sp,384
     f6c:	0901                	addi	s2,s2,0
     f6e:	000a                	c.slli	zero,0x2
     f70:	0601                	addi	a2,a2,0
     f72:	0c090303          	lb	t1,192(s2)
     f76:	0100                	addi	s0,sp,128
     f78:	0505                	addi	a0,a0,1
     f7a:	00090103          	lb	sp,0(s2)
     f7e:	0100                	addi	s0,sp,128
     f80:	0105                	addi	sp,sp,1
     f82:	0306                	slli	t1,t1,0x1
     f84:	097f                	.2byte	0x97f
     f86:	0000                	unimp
     f88:	0501                	addi	a0,a0,0
     f8a:	0311                	addi	t1,t1,4
     f8c:	0901                	addi	s2,s2,0
     f8e:	0002                	c.slli64	zero
     f90:	0501                	addi	a0,a0,0
     f92:	0301                	addi	t1,t1,0
     f94:	097f                	.2byte	0x97f
     f96:	000a                	c.slli	zero,0x2
     f98:	0501                	addi	a0,a0,0
     f9a:	0311                	addi	t1,t1,4
     f9c:	0901                	addi	s2,s2,0
     f9e:	0004                	.2byte	0x4
     fa0:	0501                	addi	a0,a0,0
     fa2:	0605                	addi	a2,a2,1
     fa4:	06090103          	lb	sp,96(s2)
     fa8:	0100                	addi	s0,sp,128
     faa:	04090103          	lb	sp,64(s2)
     fae:	0100                	addi	s0,sp,128
     fb0:	0e090103          	lb	sp,224(s2)
     fb4:	0100                	addi	s0,sp,128
     fb6:	0105                	addi	sp,sp,1
     fb8:	0306                	slli	t1,t1,0x1
     fba:	0901                	addi	s2,s2,0
     fbc:	0000                	unimp
     fbe:	0501                	addi	a0,a0,0
     fc0:	030e                	slli	t1,t1,0x3
     fc2:	097f                	.2byte	0x97f
     fc4:	0002                	c.slli64	zero
     fc6:	0501                	addi	a0,a0,0
     fc8:	0301                	addi	t1,t1,0
     fca:	0901                	addi	s2,s2,0
     fcc:	0004                	.2byte	0x4
     fce:	0501                	addi	a0,a0,0
     fd0:	030e                	slli	t1,t1,0x3
     fd2:	097f                	.2byte	0x97f
     fd4:	0002                	c.slli64	zero
     fd6:	0501                	addi	a0,a0,0
     fd8:	0301                	addi	t1,t1,0
     fda:	0901                	addi	s2,s2,0
     fdc:	0002                	c.slli64	zero
     fde:	0601                	addi	a2,a2,0
     fe0:	08090303          	lb	t1,128(s2)
     fe4:	0100                	addi	s0,sp,128
     fe6:	1005                	c.nop	-31
     fe8:	0306                	slli	t1,t1,0x1
     fea:	0908                	addi	a0,sp,144
     fec:	0008                	.2byte	0x8
     fee:	0501                	addi	a0,a0,0
     ff0:	0005                	c.nop	1
     ff2:	0402                	c.slli64	s0
     ff4:	0601                	addi	a2,a2,0
     ff6:	02097903          	.4byte	0x2097903
     ffa:	0100                	addi	s0,sp,128
     ffc:	0200                	addi	s0,sp,256
     ffe:	0104                	addi	s1,sp,128
    1000:	00090103          	lb	sp,0(s2)
    1004:	0100                	addi	s0,sp,128
    1006:	0905                	addi	s2,s2,1
    1008:	0200                	addi	s0,sp,256
    100a:	0104                	addi	s1,sp,128
    100c:	00090203          	lb	tp,0(s2)
    1010:	0100                	addi	s0,sp,128
    1012:	0200                	addi	s0,sp,256
    1014:	0104                	addi	s1,sp,128
    1016:	04090103          	lb	sp,64(s2)
    101a:	0100                	addi	s0,sp,128
    101c:	0d05                	addi	s10,s10,1
    101e:	0200                	addi	s0,sp,256
    1020:	0104                	addi	s1,sp,128
    1022:	0306                	slli	t1,t1,0x1
    1024:	0900                	addi	s0,sp,144
    1026:	0000                	unimp
    1028:	0501                	addi	a0,a0,0
    102a:	0009                	c.nop	2
    102c:	0402                	c.slli64	s0
    102e:	0601                	addi	a2,a2,0
    1030:	12090103          	lb	sp,288(s2)
    1034:	0100                	addi	s0,sp,128
    1036:	0200                	addi	s0,sp,256
    1038:	0104                	addi	s1,sp,128
    103a:	0e090103          	lb	sp,224(s2)
    103e:	0100                	addi	s0,sp,128
    1040:	1005                	c.nop	-31
    1042:	0200                	addi	s0,sp,256
    1044:	0104                	addi	s1,sp,128
    1046:	04090103          	lb	sp,64(s2)
    104a:	0100                	addi	s0,sp,128
    104c:	0505                	addi	a0,a0,1
    104e:	04090103          	lb	sp,64(s2)
    1052:	0100                	addi	s0,sp,128
    1054:	0105                	addi	sp,sp,1
    1056:	0306                	slli	t1,t1,0x1
    1058:	0901                	addi	s2,s2,0
    105a:	0000                	unimp
    105c:	0501                	addi	a0,a0,0
    105e:	097f030f          	.4byte	0x97f030f
    1062:	0002                	c.slli64	zero
    1064:	0501                	addi	a0,a0,0
    1066:	0301                	addi	t1,t1,0
    1068:	0901                	addi	s2,s2,0
    106a:	0004                	.2byte	0x4
    106c:	0601                	addi	a2,a2,0
    106e:	0c090303          	lb	t1,192(s2)
    1072:	0100                	addi	s0,sp,128
    1074:	0505                	addi	a0,a0,1
    1076:	00090103          	lb	sp,0(s2)
    107a:	0100                	addi	s0,sp,128
    107c:	0105                	addi	sp,sp,1
    107e:	0306                	slli	t1,t1,0x1
    1080:	097f                	.2byte	0x97f
    1082:	0000                	unimp
    1084:	0501                	addi	a0,a0,0
    1086:	0305                	addi	t1,t1,1
    1088:	0901                	addi	s2,s2,0
    108a:	0006                	c.slli	zero,0x1
    108c:	0601                	addi	a2,a2,0
    108e:	04090203          	lb	tp,64(s2)
    1092:	0100                	addi	s0,sp,128
    1094:	0c090703          	lb	a4,192(s2)
    1098:	0100                	addi	s0,sp,128
    109a:	0a05                	addi	s4,s4,1
    109c:	00090003          	lb	zero,0(s2)
    10a0:	0100                	addi	s0,sp,128
    10a2:	1705                	addi	a4,a4,-31
    10a4:	00090003          	lb	zero,0(s2)
    10a8:	0100                	addi	s0,sp,128
    10aa:	0505                	addi	a0,a0,1
    10ac:	0306                	slli	t1,t1,0x1
    10ae:	0979                	addi	s2,s2,30
    10b0:	0000                	unimp
    10b2:	0501                	addi	a0,a0,0
    10b4:	0009                	c.nop	2
    10b6:	0402                	c.slli64	s0
    10b8:	08030603          	lb	a2,128(t1)
    10bc:	0209                	addi	tp,tp,2 # 2 <ROM_BASE-0xfffe>
    10be:	0100                	addi	s0,sp,128
    10c0:	1705                	addi	a4,a4,-31
    10c2:	0200                	addi	s0,sp,256
    10c4:	0304                	addi	s1,sp,384
    10c6:	0306                	slli	t1,t1,0x1
    10c8:	097f                	.2byte	0x97f
    10ca:	0000                	unimp
    10cc:	0501                	addi	a0,a0,0
    10ce:	0009                	c.nop	2
    10d0:	0402                	c.slli64	s0
    10d2:	09010303          	lb	t1,144(sp)
    10d6:	0002                	c.slli64	zero
    10d8:	0501                	addi	a0,a0,0
    10da:	001e                	c.slli	zero,0x7
    10dc:	0402                	c.slli64	s0
    10de:	7f030603          	lb	a2,2032(t1)
    10e2:	0409                	addi	s0,s0,2
    10e4:	0100                	addi	s0,sp,128
    10e6:	1705                	addi	a4,a4,-31
    10e8:	0200                	addi	s0,sp,256
    10ea:	0304                	addi	s1,sp,384
    10ec:	00090003          	lb	zero,0(s2)
    10f0:	0100                	addi	s0,sp,128
    10f2:	0505                	addi	a0,a0,1
    10f4:	02090303          	lb	t1,32(s2)
    10f8:	0100                	addi	s0,sp,128
    10fa:	0a05                	addi	s4,s4,1
    10fc:	0306                	slli	t1,t1,0x1
    10fe:	0900                	addi	s0,sp,144
    1100:	0000                	unimp
    1102:	0501                	addi	a0,a0,0
    1104:	0310                	addi	a2,sp,384
    1106:	0901                	addi	s2,s2,0
    1108:	0004                	.2byte	0x4
    110a:	0501                	addi	a0,a0,0
    110c:	0308                	addi	a0,sp,384
    110e:	097f                	.2byte	0x97f
    1110:	0002                	c.slli64	zero
    1112:	0501                	addi	a0,a0,0
    1114:	0605                	addi	a2,a2,1
    1116:	02090203          	lb	tp,32(s2)
    111a:	0100                	addi	s0,sp,128
    111c:	0a05                	addi	s4,s4,1
    111e:	0306                	slli	t1,t1,0x1
    1120:	0900                	addi	s0,sp,144
    1122:	0000                	unimp
    1124:	0501                	addi	a0,a0,0
    1126:	0310                	addi	a2,sp,384
    1128:	0901                	addi	s2,s2,0
    112a:	0004                	.2byte	0x4
    112c:	0501                	addi	a0,a0,0
    112e:	0308                	addi	a0,sp,384
    1130:	097f                	.2byte	0x97f
    1132:	0002                	c.slli64	zero
    1134:	0501                	addi	a0,a0,0
    1136:	0605                	addi	a2,a2,1
    1138:	02090203          	lb	tp,32(s2)
    113c:	0100                	addi	s0,sp,128
    113e:	0a05                	addi	s4,s4,1
    1140:	0306                	slli	t1,t1,0x1
    1142:	0900                	addi	s0,sp,144
    1144:	0000                	unimp
    1146:	0501                	addi	a0,a0,0
    1148:	0310                	addi	a2,sp,384
    114a:	0901                	addi	s2,s2,0
    114c:	0004                	.2byte	0x4
    114e:	0501                	addi	a0,a0,0
    1150:	0308                	addi	a0,sp,384
    1152:	097f                	.2byte	0x97f
    1154:	0002                	c.slli64	zero
    1156:	0501                	addi	a0,a0,0
    1158:	030c                	addi	a1,sp,384
    115a:	0902                	c.slli64	s2
    115c:	0002                	c.slli64	zero
    115e:	0501                	addi	a0,a0,0
    1160:	0301                	addi	t1,t1,0
    1162:	0901                	addi	s2,s2,0
    1164:	0002                	c.slli64	zero
    1166:	0601                	addi	a2,a2,0
    1168:	0a090303          	lb	t1,160(s2)
    116c:	0100                	addi	s0,sp,128
    116e:	0505                	addi	a0,a0,1
    1170:	00090203          	lb	tp,0(s2)
    1174:	0100                	addi	s0,sp,128
    1176:	0d05                	addi	s10,s10,1
    1178:	0306                	slli	t1,t1,0x1
    117a:	0900                	addi	s0,sp,144
    117c:	0000                	unimp
    117e:	0501                	addi	a0,a0,0
    1180:	0605                	addi	a2,a2,1
    1182:	02090103          	lb	sp,32(s2)
    1186:	0100                	addi	s0,sp,128
    1188:	0f05                	addi	t5,t5,1
    118a:	0306                	slli	t1,t1,0x1
    118c:	0900                	addi	s0,sp,144
    118e:	0000                	unimp
    1190:	0501                	addi	a0,a0,0
    1192:	0605                	addi	a2,a2,1
    1194:	10090103          	lb	sp,256(s2)
    1198:	0100                	addi	s0,sp,128
    119a:	1c05                	addi	s8,s8,-31
    119c:	0306                	slli	t1,t1,0x1
    119e:	0900                	addi	s0,sp,144
    11a0:	0000                	unimp
    11a2:	0501                	addi	a0,a0,0
    11a4:	0605                	addi	a2,a2,1
    11a6:	08090103          	lb	sp,128(s2)
    11aa:	0100                	addi	s0,sp,128
    11ac:	0f05                	addi	t5,t5,1
    11ae:	0306                	slli	t1,t1,0x1
    11b0:	097f                	.2byte	0x97f
    11b2:	0000                	unimp
    11b4:	0501                	addi	a0,a0,0
    11b6:	0301                	addi	t1,t1,0
    11b8:	0902                	c.slli64	s2
    11ba:	0002                	c.slli64	zero
    11bc:	0601                	addi	a2,a2,0
    11be:	06090303          	lb	t1,96(s2)
    11c2:	0100                	addi	s0,sp,128
    11c4:	0505                	addi	a0,a0,1
    11c6:	00090203          	lb	tp,0(s2)
    11ca:	0100                	addi	s0,sp,128
    11cc:	0e090103          	lb	sp,224(s2)
    11d0:	0100                	addi	s0,sp,128
    11d2:	0905                	addi	s2,s2,1
    11d4:	0306                	slli	t1,t1,0x1
    11d6:	0900                	addi	s0,sp,144
    11d8:	0000                	unimp
    11da:	0501                	addi	a0,a0,0
    11dc:	0605                	addi	a2,a2,1
    11de:	04090103          	lb	sp,64(s2)
    11e2:	0100                	addi	s0,sp,128
    11e4:	0c05                	addi	s8,s8,1
    11e6:	0306                	slli	t1,t1,0x1
    11e8:	0900                	addi	s0,sp,144
    11ea:	0000                	unimp
    11ec:	0501                	addi	a0,a0,0
    11ee:	0605                	addi	a2,a2,1
    11f0:	08090103          	lb	sp,128(s2)
    11f4:	0100                	addi	s0,sp,128
    11f6:	1005                	c.nop	-31
    11f8:	0306                	slli	t1,t1,0x1
    11fa:	0900                	addi	s0,sp,144
    11fc:	0000                	unimp
    11fe:	0501                	addi	a0,a0,0
    1200:	0309                	addi	t1,t1,2
    1202:	0900                	addi	s0,sp,144
    1204:	0004                	.2byte	0x4
    1206:	0501                	addi	a0,a0,0
    1208:	0605                	addi	a2,a2,1
    120a:	02090103          	lb	sp,32(s2)
    120e:	0100                	addi	s0,sp,128
    1210:	1905                	addi	s2,s2,-31
    1212:	0306                	slli	t1,t1,0x1
    1214:	0900                	addi	s0,sp,144
    1216:	0000                	unimp
    1218:	0501                	addi	a0,a0,0
    121a:	0309                	addi	t1,t1,2
    121c:	0900                	addi	s0,sp,144
    121e:	0012                	c.slli	zero,0x4
    1220:	0501                	addi	a0,a0,0
    1222:	0605                	addi	a2,a2,1
    1224:	02090103          	lb	sp,32(s2)
    1228:	0100                	addi	s0,sp,128
    122a:	0105                	addi	sp,sp,1
    122c:	0306                	slli	t1,t1,0x1
    122e:	0901                	addi	s2,s2,0
    1230:	0000                	unimp
    1232:	0601                	addi	a2,a2,0
    1234:	06090303          	lb	t1,96(s2)
    1238:	0100                	addi	s0,sp,128
    123a:	0505                	addi	a0,a0,1
    123c:	00090103          	lb	sp,0(s2)
    1240:	0100                	addi	s0,sp,128
    1242:	00090103          	lb	sp,0(s2)
    1246:	0100                	addi	s0,sp,128
    1248:	0105                	addi	sp,sp,1
    124a:	0306                	slli	t1,t1,0x1
    124c:	097e                	slli	s2,s2,0x1f
    124e:	0000                	unimp
    1250:	0501                	addi	a0,a0,0
    1252:	030a                	slli	t1,t1,0x2
    1254:	0902                	c.slli64	s2
    1256:	0004                	.2byte	0x4
    1258:	0501                	addi	a0,a0,0
    125a:	0301                	addi	t1,t1,0
    125c:	097e                	slli	s2,s2,0x1f
    125e:	0004                	.2byte	0x4
    1260:	0301                	addi	t1,t1,0
    1262:	0900                	addi	s0,sp,144
    1264:	0010                	.2byte	0x10
    1266:	0501                	addi	a0,a0,0
    1268:	030a                	slli	t1,t1,0x2
    126a:	0902                	c.slli64	s2
    126c:	0004                	.2byte	0x4
    126e:	0501                	addi	a0,a0,0
    1270:	0605                	addi	a2,a2,1
    1272:	04090103          	lb	sp,64(s2)
    1276:	0100                	addi	s0,sp,128
    1278:	00090203          	lb	tp,0(s2)
    127c:	0100                	addi	s0,sp,128
    127e:	00090103          	lb	sp,0(s2)
    1282:	0100                	addi	s0,sp,128
    1284:	0a05                	addi	s4,s4,1
    1286:	00090003          	lb	zero,0(s2)
    128a:	0100                	addi	s0,sp,128
    128c:	1705                	addi	a4,a4,-31
    128e:	00090003          	lb	zero,0(s2)
    1292:	0100                	addi	s0,sp,128
    1294:	0a05                	addi	s4,s4,1
    1296:	0306                	slli	t1,t1,0x1
    1298:	097c                	addi	a5,sp,156
    129a:	0000                	unimp
    129c:	0501                	addi	a0,a0,0
    129e:	0905030f          	.4byte	0x905030f
    12a2:	0002                	c.slli64	zero
    12a4:	0501                	addi	a0,a0,0
    12a6:	097f0317          	auipc	t1,0x97f0
    12aa:	0002                	c.slli64	zero
    12ac:	0501                	addi	a0,a0,0
    12ae:	0009                	c.nop	2
    12b0:	0402                	c.slli64	s0
    12b2:	01030603          	lb	a2,16(t1) # 97f12b6 <_RODATA_END_+0x97df68d>
    12b6:	0409                	addi	s0,s0,2
    12b8:	0100                	addi	s0,sp,128
    12ba:	0f05                	addi	t5,t5,1
    12bc:	0200                	addi	s0,sp,256
    12be:	0304                	addi	s1,sp,384
    12c0:	0306                	slli	t1,t1,0x1
    12c2:	0900                	addi	s0,sp,144
    12c4:	0000                	unimp
    12c6:	0501                	addi	a0,a0,0
    12c8:	001f 0402 0603      	.byte	0x1f, 0x00, 0x02, 0x04, 0x03, 0x06
    12ce:	08097f03          	.4byte	0x8097f03
    12d2:	0100                	addi	s0,sp,128
    12d4:	1705                	addi	a4,a4,-31
    12d6:	0200                	addi	s0,sp,256
    12d8:	0304                	addi	s1,sp,384
    12da:	00090003          	lb	zero,0(s2)
    12de:	0100                	addi	s0,sp,128
    12e0:	0505                	addi	a0,a0,1
    12e2:	06090303          	lb	t1,96(s2)
    12e6:	0100                	addi	s0,sp,128
    12e8:	00090103          	lb	sp,0(s2)
    12ec:	0100                	addi	s0,sp,128
    12ee:	00090103          	lb	sp,0(s2)
    12f2:	0100                	addi	s0,sp,128
    12f4:	0b05                	addi	s6,s6,1
    12f6:	0306                	slli	t1,t1,0x1
    12f8:	0900                	addi	s0,sp,144
    12fa:	0000                	unimp
    12fc:	0501                	addi	a0,a0,0
    12fe:	0605                	addi	a2,a2,1
    1300:	0a090103          	lb	sp,160(s2)
    1304:	0100                	addi	s0,sp,128
    1306:	1e05                	addi	t3,t3,-31
    1308:	0306                	slli	t1,t1,0x1
    130a:	0900                	addi	s0,sp,144
    130c:	0000                	unimp
    130e:	0501                	addi	a0,a0,0
    1310:	0900030b          	.4byte	0x900030b
    1314:	0004                	.2byte	0x4
    1316:	0501                	addi	a0,a0,0
    1318:	0605                	addi	a2,a2,1
    131a:	08090103          	lb	sp,128(s2)
    131e:	0100                	addi	s0,sp,128
    1320:	1e05                	addi	t3,t3,-31
    1322:	0306                	slli	t1,t1,0x1
    1324:	0900                	addi	s0,sp,144
    1326:	0000                	unimp
    1328:	0501                	addi	a0,a0,0
    132a:	0900030b          	.4byte	0x900030b
    132e:	0004                	.2byte	0x4
    1330:	0501                	addi	a0,a0,0
    1332:	0605                	addi	a2,a2,1
    1334:	08090103          	lb	sp,128(s2)
    1338:	0100                	addi	s0,sp,128
    133a:	0b05                	addi	s6,s6,1
    133c:	0306                	slli	t1,t1,0x1
    133e:	0900                	addi	s0,sp,144
    1340:	0000                	unimp
    1342:	0501                	addi	a0,a0,0
    1344:	0605                	addi	a2,a2,1
    1346:	08090103          	lb	sp,128(s2)
    134a:	0100                	addi	s0,sp,128
    134c:	1005                	c.nop	-31
    134e:	0306                	slli	t1,t1,0x1
    1350:	0900                	addi	s0,sp,144
    1352:	0000                	unimp
    1354:	0501                	addi	a0,a0,0
    1356:	0316                	slli	t1,t1,0x5
    1358:	0900                	addi	s0,sp,144
    135a:	0004                	.2byte	0x4
    135c:	0501                	addi	a0,a0,0
    135e:	0605                	addi	a2,a2,1
    1360:	04090103          	lb	sp,64(s2)
    1364:	0100                	addi	s0,sp,128
    1366:	0905                	addi	s2,s2,1
    1368:	0306                	slli	t1,t1,0x1
    136a:	0900                	addi	s0,sp,144
    136c:	0000                	unimp
    136e:	0501                	addi	a0,a0,0
    1370:	0308                	addi	a0,sp,384
    1372:	0900                	addi	s0,sp,144
    1374:	000c                	.2byte	0xc
    1376:	0501                	addi	a0,a0,0
    1378:	090f031b          	addiw	t1,t5,144
    137c:	0002                	c.slli64	zero
    137e:	0001                	nop
    1380:	0402                	c.slli64	s0
    1382:	0601                	addi	a2,a2,0
    1384:	08090003          	lb	zero,128(s2)
    1388:	0100                	addi	s0,sp,128
    138a:	1005                	c.nop	-31
    138c:	0200                	addi	s0,sp,256
    138e:	0104                	addi	s1,sp,128
    1390:	0306                	slli	t1,t1,0x1
    1392:	0900                	addi	s0,sp,144
    1394:	0000                	unimp
    1396:	0501                	addi	a0,a0,0
    1398:	0402001b          	addiw	zero,tp,64 # 40 <ROM_BASE-0xffc0>
    139c:	0301                	addi	t1,t1,0
    139e:	0900                	addi	s0,sp,144
    13a0:	0004                	.2byte	0x4
    13a2:	0501                	addi	a0,a0,0
    13a4:	030d                	addi	t1,t1,3
    13a6:	097e                	slli	s2,s2,0x1f
    13a8:	0004                	.2byte	0x4
    13aa:	0501                	addi	a0,a0,0
    13ac:	0314                	addi	a3,sp,384
    13ae:	0911                	addi	s2,s2,4
    13b0:	0002                	c.slli64	zero
    13b2:	0501                	addi	a0,a0,0
    13b4:	0609                	addi	a2,a2,2
    13b6:	04097303          	.4byte	0x4097303
    13ba:	0100                	addi	s0,sp,128
    13bc:	0d05                	addi	s10,s10,1
    13be:	00090203          	lb	tp,0(s2)
    13c2:	0100                	addi	s0,sp,128
    13c4:	00090103          	lb	sp,0(s2)
    13c8:	0100                	addi	s0,sp,128
    13ca:	0c090103          	lb	sp,192(s2)
    13ce:	0100                	addi	s0,sp,128
    13d0:	1205                	addi	tp,tp,-31 # ffffffffffffffe1 <_RODATA_END_+0xfffffffffffee3b8>
    13d2:	00090003          	lb	zero,0(s2)
    13d6:	0100                	addi	s0,sp,128
    13d8:	1f05                	addi	t5,t5,-31
    13da:	00090003          	lb	zero,0(s2)
    13de:	0100                	addi	s0,sp,128
    13e0:	0d05                	addi	s10,s10,1
    13e2:	0306                	slli	t1,t1,0x1
    13e4:	097f                	.2byte	0x97f
    13e6:	0000                	unimp
    13e8:	0501                	addi	a0,a0,0
    13ea:	031f 0901 0002      	.byte	0x1f, 0x03, 0x01, 0x09, 0x02, 0x00
    13f0:	0501                	addi	a0,a0,0
    13f2:	0011                	c.nop	4
    13f4:	0402                	c.slli64	s0
    13f6:	02030603          	lb	a2,32(t1)
    13fa:	0409                	addi	s0,s0,2
    13fc:	0100                	addi	s0,sp,128
    13fe:	2305                	addiw	t1,t1,1
    1400:	0200                	addi	s0,sp,256
    1402:	0304                	addi	s1,sp,384
    1404:	0306                	slli	t1,t1,0x1
    1406:	0900                	addi	s0,sp,144
    1408:	0000                	unimp
    140a:	0501                	addi	a0,a0,0
    140c:	04020017          	auipc	zero,0x4020
    1410:	09000303          	lb	t1,144(zero) # 90 <ROM_BASE-0xff70>
    1414:	0004                	.2byte	0x4
    1416:	0501                	addi	a0,a0,0
    1418:	001f 0402 0303      	.byte	0x1f, 0x00, 0x02, 0x04, 0x03, 0x03
    141e:	097e                	slli	s2,s2,0x1f
    1420:	0006                	c.slli	zero,0x1
    1422:	0501                	addi	a0,a0,0
    1424:	04020017          	auipc	zero,0x4020
    1428:	09020303          	lb	t1,144(tp) # 90 <ROM_BASE-0xff70>
    142c:	0002                	c.slli64	zero
    142e:	0501                	addi	a0,a0,0
    1430:	0036                	c.slli	zero,0xd
    1432:	0402                	c.slli64	s0
    1434:	7e030603          	lb	a2,2016(t1)
    1438:	0609                	addi	a2,a2,2
    143a:	0100                	addi	s0,sp,128
    143c:	1f05                	addi	t5,t5,-31
    143e:	0200                	addi	s0,sp,256
    1440:	0304                	addi	s1,sp,384
    1442:	00090003          	lb	zero,0(s2)
    1446:	0100                	addi	s0,sp,128
    1448:	0d05                	addi	s10,s10,1
    144a:	04090403          	lb	s0,64(s2)
    144e:	0100                	addi	s0,sp,128
    1450:	0f05                	addi	t5,t5,1
    1452:	0306                	slli	t1,t1,0x1
    1454:	0900                	addi	s0,sp,144
    1456:	0000                	unimp
    1458:	0501                	addi	a0,a0,0
    145a:	060d                	addi	a2,a2,3
    145c:	04090103          	lb	sp,64(s2)
    1460:	0100                	addi	s0,sp,128
    1462:	1405                	addi	s0,s0,-31
    1464:	00090403          	lb	s0,0(s2)
    1468:	0100                	addi	s0,sp,128
    146a:	0905                	addi	s2,s2,1
    146c:	04090203          	lb	tp,64(s2)
    1470:	0100                	addi	s0,sp,128
    1472:	1e05                	addi	t3,t3,-31
    1474:	0306                	slli	t1,t1,0x1
    1476:	0900                	addi	s0,sp,144
    1478:	0000                	unimp
    147a:	0501                	addi	a0,a0,0
    147c:	0311                	addi	t1,t1,4
    147e:	0900                	addi	s0,sp,144
    1480:	0004                	.2byte	0x4
    1482:	0501                	addi	a0,a0,0
    1484:	0609                	addi	a2,a2,2
    1486:	0a090103          	lb	sp,160(s2)
    148a:	0100                	addi	s0,sp,128
    148c:	1405                	addi	s0,s0,-31
    148e:	0306                	slli	t1,t1,0x1
    1490:	0900                	addi	s0,sp,144
    1492:	0000                	unimp
    1494:	0501                	addi	a0,a0,0
    1496:	0609                	addi	a2,a2,2
    1498:	04090203          	lb	tp,64(s2)
    149c:	0100                	addi	s0,sp,128
    149e:	1105                	addi	sp,sp,-31
    14a0:	0306                	slli	t1,t1,0x1
    14a2:	097e                	slli	s2,s2,0x1f
    14a4:	0000                	unimp
    14a6:	0501                	addi	a0,a0,0
    14a8:	030c                	addi	a1,sp,384
    14aa:	0902                	c.slli64	s2
    14ac:	0004                	.2byte	0x4
    14ae:	0501                	addi	a0,a0,0
    14b0:	0609                	addi	a2,a2,2
    14b2:	0a090503          	lb	a0,160(s2)
    14b6:	0100                	addi	s0,sp,128
    14b8:	0c05                	addi	s8,s8,1
    14ba:	0306                	slli	t1,t1,0x1
    14bc:	0900                	addi	s0,sp,144
    14be:	0004                	.2byte	0x4
    14c0:	0501                	addi	a0,a0,0
    14c2:	060d                	addi	a2,a2,3
    14c4:	02090203          	lb	tp,32(s2)
    14c8:	0100                	addi	s0,sp,128
    14ca:	1205                	addi	tp,tp,-31 # ffffffffffffffe1 <_RODATA_END_+0xfffffffffffee3b8>
    14cc:	0c090203          	lb	tp,192(s2)
    14d0:	0100                	addi	s0,sp,128
    14d2:	0905                	addi	s2,s2,1
    14d4:	0306                	slli	t1,t1,0x1
    14d6:	00060947          	.4byte	0x60947
    14da:	0501                	addi	a0,a0,0
    14dc:	0605                	addi	a2,a2,1
    14de:	02093b03          	ld	s6,32(s2)
    14e2:	0100                	addi	s0,sp,128
    14e4:	0a090103          	lb	sp,160(s2)
    14e8:	0100                	addi	s0,sp,128
    14ea:	04090103          	lb	sp,64(s2)
    14ee:	0100                	addi	s0,sp,128
    14f0:	0c05                	addi	s8,s8,1
    14f2:	0306                	slli	t1,t1,0x1
    14f4:	0900                	addi	s0,sp,144
    14f6:	0000                	unimp
    14f8:	0501                	addi	a0,a0,0
    14fa:	060d                	addi	a2,a2,3
    14fc:	02095303          	lhu	t1,32(s2)
    1500:	0100                	addi	s0,sp,128
    1502:	2105                	addiw	sp,sp,1
    1504:	04097f03          	.4byte	0x4097f03
    1508:	0100                	addi	s0,sp,128
    150a:	1b05                	addi	s6,s6,-31
    150c:	00090003          	lb	zero,0(s2)
    1510:	0100                	addi	s0,sp,128
    1512:	0d05                	addi	s10,s10,1
    1514:	00090103          	lb	sp,0(s2)
    1518:	0100                	addi	s0,sp,128
    151a:	2105                	addiw	sp,sp,1
    151c:	04097f03          	.4byte	0x4097f03
    1520:	0100                	addi	s0,sp,128
    1522:	1b05                	addi	s6,s6,-31
    1524:	00090003          	lb	zero,0(s2)
    1528:	0100                	addi	s0,sp,128
    152a:	0d05                	addi	s10,s10,1
    152c:	00090103          	lb	sp,0(s2)
    1530:	0100                	addi	s0,sp,128
    1532:	2105                	addiw	sp,sp,1
    1534:	04097f03          	.4byte	0x4097f03
    1538:	0100                	addi	s0,sp,128
    153a:	1b05                	addi	s6,s6,-31
    153c:	00090003          	lb	zero,0(s2)
    1540:	0100                	addi	s0,sp,128
    1542:	0d05                	addi	s10,s10,1
    1544:	00090103          	lb	sp,0(s2)
    1548:	0100                	addi	s0,sp,128
    154a:	2105                	addiw	sp,sp,1
    154c:	04097f03          	.4byte	0x4097f03
    1550:	0100                	addi	s0,sp,128
    1552:	1b05                	addi	s6,s6,-31
    1554:	00090003          	lb	zero,0(s2)
    1558:	0100                	addi	s0,sp,128
    155a:	0d05                	addi	s10,s10,1
    155c:	00090103          	lb	sp,0(s2)
    1560:	0100                	addi	s0,sp,128
    1562:	2105                	addiw	sp,sp,1
    1564:	04097f03          	.4byte	0x4097f03
    1568:	0100                	addi	s0,sp,128
    156a:	1b05                	addi	s6,s6,-31
    156c:	00090003          	lb	zero,0(s2)
    1570:	0100                	addi	s0,sp,128
    1572:	0d05                	addi	s10,s10,1
    1574:	00090103          	lb	sp,0(s2)
    1578:	0100                	addi	s0,sp,128
    157a:	2105                	addiw	sp,sp,1
    157c:	04097f03          	.4byte	0x4097f03
    1580:	0100                	addi	s0,sp,128
    1582:	1b05                	addi	s6,s6,-31
    1584:	00090003          	lb	zero,0(s2)
    1588:	0100                	addi	s0,sp,128
    158a:	0d05                	addi	s10,s10,1
    158c:	00090103          	lb	sp,0(s2)
    1590:	0100                	addi	s0,sp,128
    1592:	2105                	addiw	sp,sp,1
    1594:	04097f03          	.4byte	0x4097f03
    1598:	0100                	addi	s0,sp,128
    159a:	1b05                	addi	s6,s6,-31
    159c:	00090003          	lb	zero,0(s2)
    15a0:	0100                	addi	s0,sp,128
    15a2:	0d05                	addi	s10,s10,1
    15a4:	00090103          	lb	sp,0(s2)
    15a8:	0100                	addi	s0,sp,128
    15aa:	2105                	addiw	sp,sp,1
    15ac:	04097f03          	.4byte	0x4097f03
    15b0:	0100                	addi	s0,sp,128
    15b2:	1b05                	addi	s6,s6,-31
    15b4:	00090003          	lb	zero,0(s2)
    15b8:	0100                	addi	s0,sp,128
    15ba:	0905                	addi	s2,s2,1
    15bc:	00090303          	lb	t1,0(s2)
    15c0:	0100                	addi	s0,sp,128
    15c2:	0c090103          	lb	sp,192(s2)
    15c6:	0100                	addi	s0,sp,128
    15c8:	1005                	c.nop	-31
    15ca:	0306                	slli	t1,t1,0x1
    15cc:	0900                	addi	s0,sp,144
    15ce:	0000                	unimp
    15d0:	0501                	addi	a0,a0,0
    15d2:	0301                	addi	t1,t1,0
    15d4:	0002092b          	.4byte	0x2092b
    15d8:	0501                	addi	a0,a0,0
    15da:	0310                	addi	a2,sp,384
    15dc:	0974                	addi	a3,sp,156
    15de:	0018                	.2byte	0x18
    15e0:	0901                	addi	s2,s2,0
    15e2:	0004                	.2byte	0x4
    15e4:	0100                	addi	s0,sp,128
    15e6:	7701                	lui	a4,0xfffe0
    15e8:	0004                	.2byte	0x4
    15ea:	0500                	addi	s0,sp,640
    15ec:	0800                	addi	s0,sp,16
    15ee:	5800                	lw	s0,48(s0)
    15f0:	0000                	unimp
    15f2:	0100                	addi	s0,sp,128
    15f4:	0101                	addi	sp,sp,0
    15f6:	000d0efb          	.4byte	0xd0efb
    15fa:	0101                	addi	sp,sp,0
    15fc:	0101                	addi	sp,sp,0
    15fe:	0000                	unimp
    1600:	0100                	addi	s0,sp,128
    1602:	0000                	unimp
    1604:	0101                	addi	sp,sp,0
    1606:	1f01                	addi	t5,t5,-32
    1608:	0005                	c.nop	1
    160a:	0000                	unimp
    160c:	5800                	lw	s0,48(s0)
    160e:	0000                	unimp
    1610:	5c00                	lw	s0,56(s0)
    1612:	0000                	unimp
    1614:	8b00                	.2byte	0x8b00
    1616:	0000                	unimp
    1618:	0c00                	addi	s0,sp,528
    161a:	0001                	nop
    161c:	0200                	addi	s0,sp,256
    161e:	1f01                	addi	t5,t5,-32
    1620:	0f02                	c.slli64	t5
    1622:	0608                	addi	a0,sp,768
    1624:	0001                	nop
    1626:	0100                	addi	s0,sp,128
    1628:	0106                	slli	sp,sp,0x1
    162a:	0000                	unimp
    162c:	b601                	j	112c <ROM_BASE-0xeed4>
    162e:	0000                	unimp
    1630:	0200                	addi	s0,sp,256
    1632:	000000c7          	.4byte	0xc7
    1636:	0000d103          	lhu	sp,0(ra)
    163a:	0100                	addi	s0,sp,128
    163c:	0142                	slli	sp,sp,0x10
    163e:	0000                	unimp
    1640:	d704                	sw	s1,40(a4)
    1642:	0000                	unimp
    1644:	0100                	addi	s0,sp,128
    1646:	0000014b          	.4byte	0x14b
    164a:	0501                	addi	a0,a0,0
    164c:	0001                	nop
    164e:	0209                	addi	tp,tp,2 # 2 <ROM_BASE-0xfffe>
    1650:	07ba                	slli	a5,a5,0xe
    1652:	0001                	nop
    1654:	0000                	unimp
    1656:	0000                	unimp
    1658:	0519                	addi	a0,a0,6
    165a:	0305                	addi	t1,t1,1
    165c:	0901                	addi	s2,s2,0
    165e:	0000                	unimp
    1660:	0501                	addi	a0,a0,0
    1662:	0601                	addi	a2,a2,0
    1664:	00097f03          	.4byte	0x97f03
    1668:	0100                	addi	s0,sp,128
    166a:	18090003          	lb	zero,384(s2)
    166e:	0100                	addi	s0,sp,128
    1670:	0f05                	addi	t5,t5,1
    1672:	02090103          	lb	sp,32(s2)
    1676:	0100                	addi	s0,sp,128
    1678:	0505                	addi	a0,a0,1
    167a:	0306                	slli	t1,t1,0x1
    167c:	0901                	addi	s2,s2,0
    167e:	0004                	.2byte	0x4
    1680:	0501                	addi	a0,a0,0
    1682:	0608                	addi	a0,sp,768
    1684:	00090003          	lb	zero,0(s2)
    1688:	0100                	addi	s0,sp,128
    168a:	0905                	addi	s2,s2,1
    168c:	0306                	slli	t1,t1,0x1
    168e:	0901                	addi	s2,s2,0
    1690:	0002                	c.slli64	zero
    1692:	0301                	addi	t1,t1,0
    1694:	0901                	addi	s2,s2,0
    1696:	000c                	.2byte	0xc
    1698:	0501                	addi	a0,a0,0
    169a:	0610                	addi	a2,sp,768
    169c:	00090003          	lb	zero,0(s2)
    16a0:	0100                	addi	s0,sp,128
    16a2:	0105                	addi	sp,sp,1
    16a4:	0900e003          	lwu	zero,144(ra)
    16a8:	0002                	c.slli64	zero
    16aa:	0501                	addi	a0,a0,0
    16ac:	0605                	addi	a2,a2,1
    16ae:	097fa303          	lw	t1,151(t6) # fffffffffffe5097 <_RODATA_END_+0xfffffffffffd346e>
    16b2:	001e                	c.slli	zero,0x7
    16b4:	0301                	addi	t1,t1,0
    16b6:	000c0903          	lb	s2,0(s8)
    16ba:	0301                	addi	t1,t1,0
    16bc:	0901                	addi	s2,s2,0
    16be:	0000                	unimp
    16c0:	0501                	addi	a0,a0,0
    16c2:	060d                	addi	a2,a2,3
    16c4:	00090003          	lb	zero,0(s2)
    16c8:	0100                	addi	s0,sp,128
    16ca:	0f05                	addi	t5,t5,1
    16cc:	02090203          	lb	tp,32(s2)
    16d0:	0100                	addi	s0,sp,128
    16d2:	0d05                	addi	s10,s10,1
    16d4:	0a097e03          	.4byte	0xa097e03
    16d8:	0100                	addi	s0,sp,128
    16da:	0505                	addi	a0,a0,1
    16dc:	0306                	slli	t1,t1,0x1
    16de:	0902                	c.slli64	s2
    16e0:	0002                	c.slli64	zero
    16e2:	0501                	addi	a0,a0,0
    16e4:	0003060f          	.4byte	0x3060f
    16e8:	0009                	c.nop	2
    16ea:	0100                	addi	s0,sp,128
    16ec:	0505                	addi	a0,a0,1
    16ee:	0306                	slli	t1,t1,0x1
    16f0:	0902                	c.slli64	s2
    16f2:	0002                	c.slli64	zero
    16f4:	0501                	addi	a0,a0,0
    16f6:	0608                	addi	a0,sp,768
    16f8:	00090003          	lb	zero,0(s2)
    16fc:	0100                	addi	s0,sp,128
    16fe:	0905                	addi	s2,s2,1
    1700:	0306                	slli	t1,t1,0x1
    1702:	0902                	c.slli64	s2
    1704:	0002                	c.slli64	zero
    1706:	0301                	addi	t1,t1,0
    1708:	0901                	addi	s2,s2,0
    170a:	000c                	.2byte	0xc
    170c:	0301                	addi	t1,t1,0
    170e:	0901                	addi	s2,s2,0
    1710:	000c                	.2byte	0xc
    1712:	0301                	addi	t1,t1,0
    1714:	0901                	addi	s2,s2,0
    1716:	0006                	c.slli	zero,0x1
    1718:	0601                	addi	a2,a2,0
    171a:	08092603          	lw	a2,128(s2)
    171e:	0100                	addi	s0,sp,128
    1720:	0306                	slli	t1,t1,0x1
    1722:	0901                	addi	s2,s2,0
    1724:	0004                	.2byte	0x4
    1726:	0501                	addi	a0,a0,0
    1728:	0610                	addi	a2,sp,768
    172a:	00095a03          	lhu	s4,0(s2)
    172e:	0100                	addi	s0,sp,128
    1730:	0505                	addi	a0,a0,1
    1732:	0306                	slli	t1,t1,0x1
    1734:	00040903          	lb	s2,0(s0)
    1738:	0301                	addi	t1,t1,0
    173a:	0902                	c.slli64	s2
    173c:	0000                	unimp
    173e:	0301                	addi	t1,t1,0
    1740:	0901                	addi	s2,s2,0
    1742:	000c                	.2byte	0xc
    1744:	0301                	addi	t1,t1,0
    1746:	0901                	addi	s2,s2,0
    1748:	000c                	.2byte	0xc
    174a:	0301                	addi	t1,t1,0
    174c:	0901                	addi	s2,s2,0
    174e:	0006                	c.slli	zero,0x1
    1750:	0301                	addi	t1,t1,0
    1752:	0901                	addi	s2,s2,0
    1754:	000c                	.2byte	0xc
    1756:	0301                	addi	t1,t1,0
    1758:	0901                	addi	s2,s2,0
    175a:	0006                	c.slli	zero,0x1
    175c:	0301                	addi	t1,t1,0
    175e:	0901                	addi	s2,s2,0
    1760:	000c                	.2byte	0xc
    1762:	0301                	addi	t1,t1,0
    1764:	0901                	addi	s2,s2,0
    1766:	0006                	c.slli	zero,0x1
    1768:	0301                	addi	t1,t1,0
    176a:	0901                	addi	s2,s2,0
    176c:	000c                	.2byte	0xc
    176e:	0301                	addi	t1,t1,0
    1770:	0901                	addi	s2,s2,0
    1772:	0006                	c.slli	zero,0x1
    1774:	0301                	addi	t1,t1,0
    1776:	0901                	addi	s2,s2,0
    1778:	000c                	.2byte	0xc
    177a:	0301                	addi	t1,t1,0
    177c:	0901                	addi	s2,s2,0
    177e:	0006                	c.slli	zero,0x1
    1780:	0301                	addi	t1,t1,0
    1782:	0901                	addi	s2,s2,0
    1784:	000c                	.2byte	0xc
    1786:	0301                	addi	t1,t1,0
    1788:	0901                	addi	s2,s2,0
    178a:	0006                	c.slli	zero,0x1
    178c:	0301                	addi	t1,t1,0
    178e:	0901                	addi	s2,s2,0
    1790:	000c                	.2byte	0xc
    1792:	0301                	addi	t1,t1,0
    1794:	0901                	addi	s2,s2,0
    1796:	0006                	c.slli	zero,0x1
    1798:	0301                	addi	t1,t1,0
    179a:	0901                	addi	s2,s2,0
    179c:	000c                	.2byte	0xc
    179e:	0301                	addi	t1,t1,0
    17a0:	0901                	addi	s2,s2,0
    17a2:	0006                	c.slli	zero,0x1
    17a4:	0301                	addi	t1,t1,0
    17a6:	0901                	addi	s2,s2,0
    17a8:	000c                	.2byte	0xc
    17aa:	0301                	addi	t1,t1,0
    17ac:	0901                	addi	s2,s2,0
    17ae:	0006                	c.slli	zero,0x1
    17b0:	0301                	addi	t1,t1,0
    17b2:	0901                	addi	s2,s2,0
    17b4:	000c                	.2byte	0xc
    17b6:	0301                	addi	t1,t1,0
    17b8:	0901                	addi	s2,s2,0
    17ba:	0006                	c.slli	zero,0x1
    17bc:	0301                	addi	t1,t1,0
    17be:	0902                	c.slli64	s2
    17c0:	000c                	.2byte	0xc
    17c2:	0501                	addi	a0,a0,0
    17c4:	0203060b          	.4byte	0x203060b
    17c8:	0009                	c.nop	2
    17ca:	0100                	addi	s0,sp,128
    17cc:	0d05                	addi	s10,s10,1
    17ce:	04097e03          	.4byte	0x4097e03
    17d2:	0100                	addi	s0,sp,128
    17d4:	0b05                	addi	s6,s6,1
    17d6:	02090203          	lb	tp,32(s2)
    17da:	0100                	addi	s0,sp,128
    17dc:	0d05                	addi	s10,s10,1
    17de:	08097e03          	.4byte	0x8097e03
    17e2:	0100                	addi	s0,sp,128
    17e4:	0505                	addi	a0,a0,1
    17e6:	0306                	slli	t1,t1,0x1
    17e8:	0902                	c.slli64	s2
    17ea:	0002                	c.slli64	zero
    17ec:	0501                	addi	a0,a0,0
    17ee:	0003060b          	.4byte	0x3060b
    17f2:	0009                	c.nop	2
    17f4:	0100                	addi	s0,sp,128
    17f6:	0505                	addi	a0,a0,1
    17f8:	0306                	slli	t1,t1,0x1
    17fa:	0902                	c.slli64	s2
    17fc:	0002                	c.slli64	zero
    17fe:	0501                	addi	a0,a0,0
    1800:	0608                	addi	a0,sp,768
    1802:	02090003          	lb	zero,32(s2)
    1806:	0100                	addi	s0,sp,128
    1808:	1b05                	addi	s6,s6,-31
    180a:	04090f03          	lb	t5,64(s2)
    180e:	0100                	addi	s0,sp,128
    1810:	1705                	addi	a4,a4,-31 # fffffffffffdffe1 <_RODATA_END_+0xfffffffffffce3b8>
    1812:	02097a03          	.4byte	0x2097a03
    1816:	0100                	addi	s0,sp,128
    1818:	0905                	addi	s2,s2,1
    181a:	0306                	slli	t1,t1,0x1
    181c:	0902                	c.slli64	s2
    181e:	0002                	c.slli64	zero
    1820:	0601                	addi	a2,a2,0
    1822:	00090103          	lb	sp,0(s2)
    1826:	0100                	addi	s0,sp,128
    1828:	0c090103          	lb	sp,192(s2)
    182c:	0100                	addi	s0,sp,128
    182e:	08090103          	lb	sp,128(s2)
    1832:	0100                	addi	s0,sp,128
    1834:	1e05                	addi	t3,t3,-31
    1836:	08097d03          	.4byte	0x8097d03
    183a:	0100                	addi	s0,sp,128
    183c:	0905                	addi	s2,s2,1
    183e:	0306                	slli	t1,t1,0x1
    1840:	0901                	addi	s2,s2,0
    1842:	0004                	.2byte	0x4
    1844:	0301                	addi	t1,t1,0
    1846:	0901                	addi	s2,s2,0
    1848:	0000                	unimp
    184a:	0301                	addi	t1,t1,0
    184c:	0901                	addi	s2,s2,0
    184e:	0000                	unimp
    1850:	0301                	addi	t1,t1,0
    1852:	0901                	addi	s2,s2,0
    1854:	0004                	.2byte	0x4
    1856:	0501                	addi	a0,a0,0
    1858:	030e                	slli	t1,t1,0x3
    185a:	0900                	addi	s0,sp,144
    185c:	0000                	unimp
    185e:	0501                	addi	a0,a0,0
    1860:	0900031b          	addiw	t1,zero,144
    1864:	0000                	unimp
    1866:	0501                	addi	a0,a0,0
    1868:	0609                	addi	a2,a2,2
    186a:	00097f03          	.4byte	0x97f03
    186e:	0100                	addi	s0,sp,128
    1870:	0d05                	addi	s10,s10,1
    1872:	0200                	addi	s0,sp,256
    1874:	0304                	addi	s1,sp,384
    1876:	0306                	slli	t1,t1,0x1
    1878:	0902                	c.slli64	s2
    187a:	0002                	c.slli64	zero
    187c:	0501                	addi	a0,a0,0
    187e:	0402001b          	addiw	zero,tp,64 # 40 <ROM_BASE-0xffc0>
    1882:	7f030603          	lb	a2,2032(t1)
    1886:	0809                	addi	a6,a6,2
    1888:	0100                	addi	s0,sp,128
    188a:	0d05                	addi	s10,s10,1
    188c:	0200                	addi	s0,sp,256
    188e:	0304                	addi	s1,sp,384
    1890:	02090103          	lb	sp,32(s2)
    1894:	0100                	addi	s0,sp,128
    1896:	2205                	addiw	tp,tp,1 # 1 <ROM_BASE-0xffff>
    1898:	0200                	addi	s0,sp,256
    189a:	0304                	addi	s1,sp,384
    189c:	0306                	slli	t1,t1,0x1
    189e:	097f                	.2byte	0x97f
    18a0:	0004                	.2byte	0x4
    18a2:	0501                	addi	a0,a0,0
    18a4:	0402001b          	addiw	zero,tp,64 # 40 <ROM_BASE-0xffc0>
    18a8:	09000303          	lb	t1,144(zero) # 90 <ROM_BASE-0xff70>
    18ac:	0000                	unimp
    18ae:	0501                	addi	a0,a0,0
    18b0:	0309                	addi	t1,t1,2
    18b2:	0902                	c.slli64	s2
    18b4:	0004                	.2byte	0x4
    18b6:	0301                	addi	t1,t1,0
    18b8:	0901                	addi	s2,s2,0
    18ba:	000c                	.2byte	0xc
    18bc:	0501                	addi	a0,a0,0
    18be:	030e                	slli	t1,t1,0x3
    18c0:	0900                	addi	s0,sp,144
    18c2:	0000                	unimp
    18c4:	0501                	addi	a0,a0,0
    18c6:	0900031b          	addiw	t1,zero,144
    18ca:	0000                	unimp
    18cc:	0501                	addi	a0,a0,0
    18ce:	000d                	c.nop	3
    18d0:	0402                	c.slli64	s0
    18d2:	09010303          	lb	t1,144(sp)
    18d6:	0004                	.2byte	0x4
    18d8:	0501                	addi	a0,a0,0
    18da:	0402001b          	addiw	zero,tp,64 # 40 <ROM_BASE-0xffc0>
    18de:	7f030603          	lb	a2,2032(t1)
    18e2:	0409                	addi	s0,s0,2
    18e4:	0100                	addi	s0,sp,128
    18e6:	0d05                	addi	s10,s10,1
    18e8:	0200                	addi	s0,sp,256
    18ea:	0304                	addi	s1,sp,384
    18ec:	02090103          	lb	sp,32(s2)
    18f0:	0100                	addi	s0,sp,128
    18f2:	2205                	addiw	tp,tp,1 # 1 <ROM_BASE-0xffff>
    18f4:	0200                	addi	s0,sp,256
    18f6:	0304                	addi	s1,sp,384
    18f8:	0306                	slli	t1,t1,0x1
    18fa:	097f                	.2byte	0x97f
    18fc:	0004                	.2byte	0x4
    18fe:	0501                	addi	a0,a0,0
    1900:	0402001b          	addiw	zero,tp,64 # 40 <ROM_BASE-0xffc0>
    1904:	09000303          	lb	t1,144(zero) # 90 <ROM_BASE-0xff70>
    1908:	0000                	unimp
    190a:	0501                	addi	a0,a0,0
    190c:	0309                	addi	t1,t1,2
    190e:	0902                	c.slli64	s2
    1910:	0004                	.2byte	0x4
    1912:	0301                	addi	t1,t1,0
    1914:	0901                	addi	s2,s2,0
    1916:	000c                	.2byte	0xc
    1918:	0501                	addi	a0,a0,0
    191a:	0603061b          	addiw	a2,t1,96
    191e:	0609                	addi	a2,a2,2
    1920:	0100                	addi	s0,sp,128
    1922:	0905                	addi	s2,s2,1
    1924:	04097a03          	.4byte	0x4097a03
    1928:	0100                	addi	s0,sp,128
    192a:	0306                	slli	t1,t1,0x1
    192c:	0901                	addi	s2,s2,0
    192e:	0004                	.2byte	0x4
    1930:	0301                	addi	t1,t1,0
    1932:	0901                	addi	s2,s2,0
    1934:	000c                	.2byte	0xc
    1936:	0301                	addi	t1,t1,0
    1938:	0901                	addi	s2,s2,0
    193a:	0006                	c.slli	zero,0x1
    193c:	0301                	addi	t1,t1,0
    193e:	0901                	addi	s2,s2,0
    1940:	000c                	.2byte	0xc
    1942:	0301                	addi	t1,t1,0
    1944:	0901                	addi	s2,s2,0
    1946:	0006                	c.slli	zero,0x1
    1948:	0301                	addi	t1,t1,0
    194a:	0901                	addi	s2,s2,0
    194c:	000c                	.2byte	0xc
    194e:	0501                	addi	a0,a0,0
    1950:	030e                	slli	t1,t1,0x3
    1952:	0900                	addi	s0,sp,144
    1954:	0000                	unimp
    1956:	0501                	addi	a0,a0,0
    1958:	0900031b          	addiw	t1,zero,144
    195c:	0000                	unimp
    195e:	0501                	addi	a0,a0,0
    1960:	000d                	c.nop	3
    1962:	0402                	c.slli64	s0
    1964:	09010303          	lb	t1,144(sp)
    1968:	0000                	unimp
    196a:	0501                	addi	a0,a0,0
    196c:	0402001b          	addiw	zero,tp,64 # 40 <ROM_BASE-0xffc0>
    1970:	7f030603          	lb	a2,2032(t1)
    1974:	0409                	addi	s0,s0,2
    1976:	0100                	addi	s0,sp,128
    1978:	0d05                	addi	s10,s10,1
    197a:	0200                	addi	s0,sp,256
    197c:	0304                	addi	s1,sp,384
    197e:	02090103          	lb	sp,32(s2)
    1982:	0100                	addi	s0,sp,128
    1984:	2205                	addiw	tp,tp,1 # 1 <ROM_BASE-0xffff>
    1986:	0200                	addi	s0,sp,256
    1988:	0304                	addi	s1,sp,384
    198a:	0306                	slli	t1,t1,0x1
    198c:	097f                	.2byte	0x97f
    198e:	0004                	.2byte	0x4
    1990:	0501                	addi	a0,a0,0
    1992:	0402001b          	addiw	zero,tp,64 # 40 <ROM_BASE-0xffc0>
    1996:	09000303          	lb	t1,144(zero) # 90 <ROM_BASE-0xff70>
    199a:	0000                	unimp
    199c:	0501                	addi	a0,a0,0
    199e:	0009                	c.nop	2
    19a0:	0402                	c.slli64	s0
    19a2:	0302                	c.slli64	t1
    19a4:	0902                	c.slli64	s2
    19a6:	0004                	.2byte	0x4
    19a8:	0501                	addi	a0,a0,0
    19aa:	001d                	c.nop	7
    19ac:	0402                	c.slli64	s0
    19ae:	0602                	c.slli64	a2
    19b0:	08096c03          	lwu	s8,128(s2)
    19b4:	0100                	addi	s0,sp,128
    19b6:	0905                	addi	s2,s2,1
    19b8:	0200                	addi	s0,sp,256
    19ba:	0204                	addi	s1,sp,256
    19bc:	02091403          	lh	s0,32(s2)
    19c0:	0100                	addi	s0,sp,128
    19c2:	1d05                	addi	s10,s10,-31
    19c4:	0200                	addi	s0,sp,256
    19c6:	0204                	addi	s1,sp,256
    19c8:	0306                	slli	t1,t1,0x1
    19ca:	096c                	addi	a1,sp,156
    19cc:	0004                	.2byte	0x4
    19ce:	0501                	addi	a0,a0,0
    19d0:	04020017          	auipc	zero,0x4020
    19d4:	0302                	c.slli64	t1
    19d6:	0900                	addi	s0,sp,144
    19d8:	0000                	unimp
    19da:	0501                	addi	a0,a0,0
    19dc:	0305                	addi	t1,t1,1
    19de:	00080917          	auipc	s2,0x80
    19e2:	0301                	addi	t1,t1,0
    19e4:	0901                	addi	s2,s2,0 # 819de <_RODATA_END_+0x6fdb5>
    19e6:	0000                	unimp
    19e8:	0301                	addi	t1,t1,0
    19ea:	0901                	addi	s2,s2,0
    19ec:	000c                	.2byte	0xc
    19ee:	0501                	addi	a0,a0,0
    19f0:	0639                	addi	a2,a2,14
    19f2:	00090003          	lb	zero,0(s2)
    19f6:	0100                	addi	s0,sp,128
    19f8:	0b05                	addi	s6,s6,1
    19fa:	04090003          	lb	zero,64(s2)
    19fe:	0100                	addi	s0,sp,128
    1a00:	0505                	addi	a0,a0,1
    1a02:	0306                	slli	t1,t1,0x1
    1a04:	0902                	c.slli64	s2
    1a06:	0010                	.2byte	0x10
    1a08:	0501                	addi	a0,a0,0
    1a0a:	0608                	addi	a0,sp,768
    1a0c:	00090003          	lb	zero,0(s2)
    1a10:	0100                	addi	s0,sp,128
    1a12:	0905                	addi	s2,s2,1
    1a14:	0306                	slli	t1,t1,0x1
    1a16:	0902                	c.slli64	s2
    1a18:	0002                	c.slli64	zero
    1a1a:	0301                	addi	t1,t1,0
    1a1c:	0901                	addi	s2,s2,0
    1a1e:	000c                	.2byte	0xc
    1a20:	0301                	addi	t1,t1,0
    1a22:	0901                	addi	s2,s2,0
    1a24:	000c                	.2byte	0xc
    1a26:	0301                	addi	t1,t1,0
    1a28:	0901                	addi	s2,s2,0
    1a2a:	0006                	c.slli	zero,0x1
    1a2c:	0301                	addi	t1,t1,0
    1a2e:	0959                	addi	s2,s2,22
    1a30:	000a                	c.slli	zero,0x2
    1a32:	0301                	addi	t1,t1,0
    1a34:	0901                	addi	s2,s2,0
    1a36:	000c                	.2byte	0xc
    1a38:	0301                	addi	t1,t1,0
    1a3a:	0901                	addi	s2,s2,0
    1a3c:	000c                	.2byte	0xc
    1a3e:	0301                	addi	t1,t1,0
    1a40:	0901                	addi	s2,s2,0
    1a42:	0006                	c.slli	zero,0x1
    1a44:	0501                	addi	a0,a0,0
    1a46:	0305                	addi	t1,t1,1
    1a48:	0928                	addi	a0,sp,152
    1a4a:	000a                	c.slli	zero,0x2
    1a4c:	0301                	addi	t1,t1,0
    1a4e:	0901                	addi	s2,s2,0
    1a50:	000c                	.2byte	0xc
    1a52:	0501                	addi	a0,a0,0
    1a54:	060c                	addi	a1,sp,768
    1a56:	00090003          	lb	zero,0(s2)
    1a5a:	0100                	addi	s0,sp,128
    1a5c:	0209                	addi	tp,tp,2 # 2 <ROM_BASE-0xfffe>
    1a5e:	0000                	unimp
    1a60:	0101                	addi	sp,sp,0

Disassembly of section .debug_line_str:

0000000000000000 <.debug_line_str>:
   0:	6d6f682f          	.4byte	0x6d6f682f
   4:	2f65                	addiw	t5,t5,25
   6:	616d                	addi	sp,sp,240
   8:	2f78                	.2byte	0x2f78
   a:	6b726f57          	.4byte	0x6b726f57
   e:	7261                	lui	tp,0xffff8
  10:	6165                	addi	sp,sp,112
  12:	6c75632f          	.4byte	0x6c75632f
  16:	736e6173          	csrrsi	sp,mhpmevent22h,28
  1a:	646f6d2f          	.4byte	0x646f6d2f
  1e:	6c75                	lui	s8,0x1d
  20:	7365                	lui	t1,0xffff9
  22:	6176632f          	.4byte	0x6176632f
  26:	2f36                	.2byte	0x2f36
  28:	65726f63          	bltu	tp,s7,686 <ROM_BASE-0xf97a>
  2c:	5f76                	lw	t5,124(sp)
  2e:	7061                	c.lui	zero,0xffff8
  30:	2f75                	addiw	t5,t5,29
  32:	7066                	.2byte	0x7066
  34:	732f6167          	.4byte	0x732f6167
  38:	6372                	ld	t1,280(sp)
  3a:	6f6f622f          	.4byte	0x6f6f622f
  3e:	7274                	ld	a3,224(a2)
  40:	73006d6f          	jal	s10,6770 <ROM_BASE-0x9890>
  44:	6174                	ld	a3,192(a0)
  46:	7472                	ld	s0,312(sp)
  48:	7075                	c.lui	zero,0xffffd
  4a:	532e                	lw	t1,232(sp)
  4c:	7300                	ld	s0,32(a4)
  4e:	6372                	ld	t1,280(sp)
  50:	69616d2f          	.4byte	0x69616d2f
  54:	2e6e                	.2byte	0x2e6e
  56:	72730063          	beq	t1,t2,776 <ROM_BASE-0xf88a>
  5a:	6f2f0063          	beq	t5,s2,73a <ROM_BASE-0xf8c6>
  5e:	7470                	ld	a2,232(s0)
  60:	7369722f          	.4byte	0x7369722f
  64:	722f7663          	bgeu	t5,sp,790 <ROM_BASE-0xf870>
  68:	7369                	lui	t1,0xffffa
  6a:	34367663          	bgeu	a2,gp,3b6 <ROM_BASE-0xfc4a>
  6e:	752d                	lui	a0,0xfffeb
  70:	6b6e                	ld	s6,216(sp)
  72:	6f6e                	ld	t5,216(sp)
  74:	652d6e77          	.4byte	0x652d6e77
  78:	666c                	ld	a1,200(a2)
  7a:	636e692f          	.4byte	0x636e692f
  7e:	756c                	ld	a1,232(a0)
  80:	6564                	ld	s1,200(a0)
  82:	63616d2f          	.4byte	0x63616d2f
  86:	6968                	ld	a0,208(a0)
  88:	656e                	ld	a0,216(sp)
  8a:	2f00                	.2byte	0x2f00
  8c:	2f74706f          	j	47b82 <_RODATA_END_+0x35f59>
  90:	6972                	ld	s2,280(sp)
  92:	2f766373          	csrrsi	t1,0x2f7,12
  96:	6972                	ld	s2,280(sp)
  98:	36766373          	csrrsi	t1,0x367,12
  9c:	2d34                	.2byte	0x2d34
  9e:	6e75                	lui	t3,0x1d
  a0:	776f6e6b          	.4byte	0x776f6e6b
  a4:	2d6e                	.2byte	0x2d6e
  a6:	6c65                	lui	s8,0x19
  a8:	2f66                	.2byte	0x2f66
  aa:	6e69                	lui	t3,0x1a
  ac:	64756c63          	bltu	a0,t2,704 <ROM_BASE-0xf8fc>
  b0:	2f65                	addiw	t5,t5,25
  b2:	00737973          	csrrci	s2,0x7,6
  b6:	645f 6665 7561      	.byte	0x5f, 0x64, 0x65, 0x66, 0x61, 0x75
  bc:	746c                	ld	a1,232(s0)
  be:	745f 7079 7365      	.byte	0x5f, 0x74, 0x79, 0x70, 0x65, 0x73
  c4:	682e                	ld	a6,200(sp)
  c6:	5f00                	lw	s0,56(a4)
  c8:	69647473          	csrrci	s0,0x696,8
  cc:	746e                	ld	s0,248(sp)
  ce:	682e                	ld	a6,200(sp)
  d0:	6700                	ld	s0,8(a4)
  d2:	7470                	ld	a2,232(s0)
  d4:	682e                	ld	a6,200(sp)
  d6:	7500                	ld	s0,40(a0)
  d8:	7261                	lui	tp,0xffff8
  da:	2e74                	.2byte	0x2e74
  dc:	0068                	addi	a0,sp,12
  de:	2f637273          	csrrci	tp,0x2f6,6
  e2:	6175                	addi	sp,sp,368
  e4:	7472                	ld	s0,312(sp)
  e6:	632e                	ld	t1,200(sp)
  e8:	7300                	ld	s0,32(a4)
  ea:	6372                	ld	t1,280(sp)
  ec:	6970732f          	.4byte	0x6970732f
  f0:	632e                	ld	t1,200(sp)
  f2:	7300                	ld	s0,32(a4)
  f4:	6372                	ld	t1,280(sp)
  f6:	2e64732f          	.4byte	0x2e64732f
  fa:	70730063          	beq	t1,t2,7fa <ROM_BASE-0xf806>
  fe:	2e69                	addiw	t3,t3,26 # 1a01a <_RODATA_END_+0x83f1>
 100:	0068                	addi	a0,sp,12
 102:	2f637273          	csrrci	tp,0x2f6,6
 106:	2e747067          	.4byte	0x2e747067
 10a:	6f2f0063          	beq	t5,s2,7ea <ROM_BASE-0xf816>
 10e:	7470                	ld	a2,232(s0)
 110:	7369722f          	.4byte	0x7369722f
 114:	6c2f7663          	bgeu	t5,sp,7e0 <ROM_BASE-0xf820>
 118:	6269                	lui	tp,0x1a
 11a:	6363672f          	.4byte	0x6363672f
 11e:	7369722f          	.4byte	0x7369722f
 122:	34367663          	bgeu	a2,gp,46e <ROM_BASE-0xfb92>
 126:	752d                	lui	a0,0xfffeb
 128:	6b6e                	ld	s6,216(sp)
 12a:	6f6e                	ld	t5,216(sp)
 12c:	652d6e77          	.4byte	0x652d6e77
 130:	666c                	ld	a1,200(a2)
 132:	2e32312f          	.4byte	0x2e32312f
 136:	2e32                	.2byte	0x2e32
 138:	2f30                	.2byte	0x2f30
 13a:	6e69                	lui	t3,0x1a
 13c:	64756c63          	bltu	a0,t2,794 <ROM_BASE-0xf86c>
 140:	0065                	c.nop	25
 142:	64647473          	csrrci	s0,0x646,8
 146:	6665                	lui	a2,0x19
 148:	682e                	ld	a6,200(sp)
 14a:	7300                	ld	s0,32(a4)
 14c:	2e64                	.2byte	0x2e64
 14e:	0068                	addi	a0,sp,12

Disassembly of section .debug_info:

0000000000000000 <.debug_info>:
       0:	0025                	c.nop	9
       2:	0000                	unimp
       4:	0005                	c.nop	1
       6:	0801                	addi	a6,a6,0
       8:	0000                	unimp
       a:	0000                	unimp
       c:	0001                	nop
       e:	0000                	unimp
      10:	0000                	unimp
      12:	0100                	addi	s0,sp,128
      14:	0000                	unimp
      16:	0000                	unimp
      18:	9000                	.2byte	0x9000
      1a:	0001                	nop
      1c:	0000                	unimp
      1e:	0a00                	addi	s0,sp,272
      20:	0000                	unimp
      22:	4d00                	lw	s0,24(a0)
      24:	0000                	unimp
      26:	0100                	addi	s0,sp,128
      28:	7180                	ld	s0,32(a1)
      2a:	0001                	nop
      2c:	0500                	addi	s0,sp,640
      2e:	0100                	addi	s0,sp,128
      30:	1408                	addi	a0,sp,544
      32:	0000                	unimp
      34:	0600                	addi	s0,sp,768
      36:	00df 0000 4d1d      	.byte	0xdf, 0x00, 0x00, 0x00, 0x1d, 0x4d
      3c:	0000                	unimp
      3e:	0000                	unimp
      40:	0000                	unimp
      42:	0c00                	addi	s0,sp,528
	...
      4c:	0000                	unimp
      4e:	a400                	.2byte	0xa400
      50:	0000                	unimp
      52:	0100                	addi	s0,sp,128
      54:	0601                	addi	a2,a2,0 # 19000 <_RODATA_END_+0x73d7>
      56:	007a                	c.slli	zero,0x1e
      58:	0000                	unimp
      5a:	5902                	lw	s2,32(sp)
      5c:	0000                	unimp
      5e:	0200                	addi	s0,sp,256
      60:	003d182b          	.4byte	0x3d182b
      64:	0000                	unimp
      66:	0101                	addi	sp,sp,0
      68:	7808                	ld	a0,48(s0)
      6a:	0000                	unimp
      6c:	0100                	addi	s0,sp,128
      6e:	0502                	c.slli64	a0
      70:	015f 0000 0201      	.byte	0x5f, 0x01, 0x00, 0x00, 0x01, 0x02
      76:	0000a407          	.4byte	0xa407
      7a:	0700                	addi	s0,sp,896
      7c:	0504                	addi	s1,sp,640
      7e:	6e69                	lui	t3,0x1a
      80:	0074                	addi	a3,sp,12
      82:	b702                	.2byte	0xb702
      84:	0000                	unimp
      86:	0200                	addi	s0,sp,256
      88:	0065194f          	.4byte	0x65194f
      8c:	0000                	unimp
      8e:	0401                	addi	s0,s0,0
      90:	00009707          	.4byte	0x9707
      94:	0100                	addi	s0,sp,128
      96:	0508                	addi	a0,sp,640
      98:	0390                	addi	a2,sp,448
      9a:	0000                	unimp
      9c:	0801                	addi	a6,a6,0
      9e:	00009207          	.4byte	0x9207
      a2:	0200                	addi	s0,sp,256
      a4:	0000005b          	.4byte	0x5b
      a8:	31131803          	lh	a6,785(t1) # ffffffffffffa311 <_RODATA_END_+0xfffffffffffe86e8>
      ac:	0000                	unimp
      ae:	0200                	addi	s0,sp,256
      b0:	00b9                	addi	ra,ra,14
      b2:	0000                	unimp
      b4:	59143003          	ld	zero,1425(s0)
      b8:	0000                	unimp
      ba:	0800                	addi	s0,sp,16
      bc:	00c2                	slli	ra,ra,0x10
      be:	0000                	unimp
      c0:	2704                	.2byte	0x2704
      c2:	5205                	li	tp,-31
      c4:	0000                	unimp
      c6:	ad00                	.2byte	0xad00
      c8:	0000                	unimp
      ca:	0400                	addi	s0,sp,512
      cc:	00ad                	addi	ra,ra,11
      ce:	0000                	unimp
      d0:	8604                	.2byte	0x8604
      d2:	0000                	unimp
      d4:	0000                	unimp
      d6:	7a05                	lui	s4,0xfffe1
      d8:	0000                	unimp
      da:	0900                	addi	s0,sp,144
      dc:	006d                	c.nop	27
      de:	0000                	unimp
      e0:	1505                	addi	a0,a0,-31 # fffffffffffeafe1 <_RODATA_END_+0xfffffffffffd93b8>
      e2:	c406                	sw	ra,8(sp)
      e4:	0000                	unimp
      e6:	0400                	addi	s0,sp,512
      e8:	00c4                	addi	s1,sp,68
      ea:	0000                	unimp
      ec:	0500                	addi	s0,sp,640
      ee:	00d0                	addi	a2,sp,68
      f0:	0000                	unimp
      f2:	0101                	addi	sp,sp,0
      f4:	8108                	.2byte	0x8108
      f6:	0000                	unimp
      f8:	0a00                	addi	s0,sp,272
      fa:	00c9                	addi	ra,ra,18
      fc:	0000                	unimp
      fe:	0000630b          	.4byte	0x630b
     102:	0500                	addi	s0,sp,640
     104:	00e30613          	addi	a2,t1,14
     108:	0000                	unimp
     10a:	000c                	.2byte	0xc
     10c:	860d                	srai	a2,a2,0x3
     10e:	0000                	unimp
     110:	0100                	addi	s0,sp,128
     112:	0610                	addi	a2,sp,768
     114:	0100                	addi	s0,sp,128
     116:	0001                	nop
     118:	0000                	unimp
     11a:	0000                	unimp
     11c:	0002                	c.slli64	zero
     11e:	0000                	unimp
     120:	0000                	unimp
     122:	0000                	unimp
     124:	9c01                	subw	s0,s0,s0
     126:	da0e                	sw	gp,52(sp)
     128:	0000                	unimp
     12a:	0100                	addi	s0,sp,128
     12c:	0506                	slli	a0,a0,0x1
     12e:	0052                	c.slli	zero,0x14
     130:	0000                	unimp
     132:	0a7e                	slli	s4,s4,0x1f
     134:	0001                	nop
     136:	0000                	unimp
     138:	0000                	unimp
     13a:	0034                	addi	a3,sp,8
     13c:	0000                	unimp
     13e:	0000                	unimp
     140:	0000                	unimp
     142:	9c01                	subw	s0,s0,s0
     144:	7365720f          	.4byte	0x7365720f
     148:	0100                	addi	s0,sp,128
     14a:	0052090b          	.4byte	0x52090b
     14e:	0000                	unimp
     150:	9410                	.2byte	0x9410
     152:	010a                	slli	sp,sp,0x2
     154:	0000                	unimp
     156:	0000                	unimp
     158:	d500                	sw	s0,40(a0)
     15a:	0000                	unimp
     15c:	4a00                	lw	s0,16(a2)
     15e:	0001                	nop
     160:	0300                	addi	s0,sp,384
     162:	5a01                	li	s4,-32
     164:	0c05                	addi	s8,s8,1 # 19001 <_RODATA_END_+0x73d8>
     166:	f080                	sd	s0,32(s1)
     168:	02fa                	slli	t0,t0,0x1e
     16a:	045b0103          	lb	sp,69(s6)
     16e:	e108                	sd	a0,0(a0)
     170:	2439                	addiw	s0,s0,14
     172:	1100                	addi	s0,sp,160
     174:	0aa0                	addi	s0,sp,344
     176:	0001                	nop
     178:	0000                	unimp
     17a:	0000                	unimp
     17c:	00b2                	slli	ra,ra,0xc
     17e:	0000                	unimp
     180:	aa12                	.2byte	0xaa12
     182:	010a                	slli	sp,sp,0x2
     184:	0000                	unimp
     186:	0000                	unimp
     188:	9200                	.2byte	0x9200
     18a:	0000                	unimp
     18c:	0300                	addi	s0,sp,384
     18e:	5a01                	li	s4,-32
     190:	244b4003          	lbu	zero,580(s6)
     194:	035b0103          	lb	sp,53(s6)
     198:	000a                	c.slli	zero,0x2
     19a:	0080                	addi	s0,sp,64
     19c:	0000                	unimp
     19e:	0671                	addi	a2,a2,28
     1a0:	0000                	unimp
     1a2:	0005                	c.nop	1
     1a4:	0801                	addi	a6,a6,0
     1a6:	0110                	addi	a2,sp,128
     1a8:	0000                	unimp
     1aa:	df19                	beqz	a4,c8 <ROM_BASE-0xff38>
     1ac:	0000                	unimp
     1ae:	1d00                	addi	s0,sp,688
     1b0:	00de                	slli	ra,ra,0x17
     1b2:	0000                	unimp
     1b4:	0000                	unimp
     1b6:	0000                	unimp
     1b8:	0102                	c.slli64	sp
     1ba:	0001                	nop
     1bc:	0000                	unimp
     1be:	0000                	unimp
     1c0:	0152                	slli	sp,sp,0x14
     1c2:	0000                	unimp
     1c4:	0000                	unimp
     1c6:	0000                	unimp
     1c8:	0000017b          	.4byte	0x17b
     1cc:	0102                	c.slli64	sp
     1ce:	7a06                	ld	s4,96(sp)
     1d0:	0000                	unimp
     1d2:	0300                	addi	s0,sp,384
     1d4:	0059                	c.nop	22
     1d6:	0000                	unimp
     1d8:	2b02                	.2byte	0x2b02
     1da:	4118                	lw	a4,0(a0)
     1dc:	0000                	unimp
     1de:	0200                	addi	s0,sp,256
     1e0:	0801                	addi	a6,a6,0
     1e2:	0078                	addi	a4,sp,12
     1e4:	0000                	unimp
     1e6:	0202                	c.slli64	tp
     1e8:	5f05                	li	t5,-31
     1ea:	0001                	nop
     1ec:	0200                	addi	s0,sp,256
     1ee:	0702                	c.slli64	a4
     1f0:	00a4                	addi	s1,sp,72
     1f2:	0000                	unimp
     1f4:	041a                	slli	s0,s0,0x6
     1f6:	6905                	lui	s2,0x1
     1f8:	746e                	ld	s0,248(sp)
     1fa:	0300                	addi	s0,sp,384
     1fc:	000000b7          	lui	ra,0x0
     200:	4f02                	lw	t5,0(sp)
     202:	6919                	lui	s2,0x6
     204:	0000                	unimp
     206:	0200                	addi	s0,sp,256
     208:	0704                	addi	s1,sp,896
     20a:	00000097          	auipc	ra,0x0
     20e:	0802                	c.slli64	a6
     210:	9005                	srli	s0,s0,0x21
     212:	03000003          	lb	zero,48(zero) # 30 <ROM_BASE-0xffd0>
     216:	0205                	addi	tp,tp,1 # 1a001 <_RODATA_END_+0x83d8>
     218:	0000                	unimp
     21a:	6902                	ld	s2,0(sp)
     21c:	8319                	srli	a4,a4,0x6
     21e:	0000                	unimp
     220:	0200                	addi	s0,sp,256
     222:	0708                	addi	a0,sp,896
     224:	0092                	slli	ra,ra,0x4
     226:	0000                	unimp
     228:	0001a403          	lw	s0,0(gp)
     22c:	0200                	addi	s0,sp,256
     22e:	1ae8                	addi	a0,sp,380
     230:	00000083          	lb	ra,0(zero) # 0 <ROM_BASE-0x10000>
     234:	00005b03          	lhu	s6,0(zero) # 0 <ROM_BASE-0x10000>
     238:	0300                	addi	s0,sp,384
     23a:	1318                	addi	a4,sp,416
     23c:	0035                	c.nop	13
     23e:	0000                	unimp
     240:	0000961b          	slliw	a2,ra,0x0
     244:	0300                	addi	s0,sp,384
     246:	00b9                	addi	ra,ra,14 # 218 <ROM_BASE-0xfde8>
     248:	0000                	unimp
     24a:	5d143003          	ld	zero,1489(s0)
     24e:	0000                	unimp
     250:	0300                	addi	s0,sp,384
     252:	00000207          	.4byte	0x207
     256:	77143c03          	ld	s8,1905(s0)
     25a:	0000                	unimp
     25c:	0300                	addi	s0,sp,384
     25e:	01a6                	slli	gp,gp,0x9
     260:	0000                	unimp
     262:	8a155203          	lhu	tp,-1887(a0)
     266:	0000                	unimp
     268:	1100                	addi	s0,sp,160
     26a:	0096                	slli	ra,ra,0x5
     26c:	0000                	unimp
     26e:	000000db          	.4byte	0xdb
     272:	8312                	mv	t1,tp
     274:	0000                	unimp
     276:	0f00                	addi	s0,sp,912
     278:	1c00                	addi	s0,sp,560
     27a:	01b0                	addi	a2,sp,200
     27c:	0000                	unimp
     27e:	3101                	addiw	sp,sp,-32
     280:	cb09                	beqz	a4,292 <ROM_BASE-0xfd6e>
     282:	0000                	unimp
     284:	0900                	addi	s0,sp,144
     286:	010b0003          	lb	zero,16(s6)
     28a:	0000                	unimp
     28c:	0000                	unimp
     28e:	0500                	addi	s0,sp,640
     290:	01e5                	addi	gp,gp,25
     292:	0000                	unimp
     294:	3855                	addiw	a6,a6,-11
     296:	0102                	c.slli64	sp
     298:	0000                	unimp
     29a:	0000                	unimp
     29c:	1c00                	addi	s0,sp,560
     29e:	0000                	unimp
     2a0:	0000                	unimp
     2a2:	0000                	unimp
     2a4:	0100                	addi	s0,sp,128
     2a6:	5d9c                	lw	a5,56(a1)
     2a8:	0001                	nop
     2aa:	0700                	addi	s0,sp,896
     2ac:	01f0                	addi	a2,sp,204
     2ae:	0000                	unimp
     2b0:	1e55                	addi	t3,t3,-11 # 19ff5 <_RODATA_END_+0x83cc>
     2b2:	0096                	slli	ra,ra,0x5
     2b4:	0000                	unimp
     2b6:	000c                	.2byte	0xc
     2b8:	0000                	unimp
     2ba:	7865680b          	.4byte	0x7865680b
     2be:	5700                	lw	s0,40(a4)
     2c0:	5d0d                	li	s10,-29
     2c2:	0001                	nop
     2c4:	0200                	addi	s0,sp,256
     2c6:	6891                	lui	a7,0x4
     2c8:	420c                	lw	a1,0(a2)
     2ca:	0102                	c.slli64	sp
     2cc:	0000                	unimp
     2ce:	0000                	unimp
     2d0:	a100                	.2byte	0xa100
     2d2:	0002                	c.slli64	zero
     2d4:	4200                	lw	s0,0(a2)
     2d6:	0001                	nop
     2d8:	0800                	addi	s0,sp,16
     2da:	5b01                	li	s6,-32
     2dc:	9102                	jalr	sp
     2de:	0068                	addi	a0,sp,12
     2e0:	4a06                	lw	s4,64(sp)
     2e2:	0102                	c.slli64	sp
     2e4:	0000                	unimp
     2e6:	0000                	unimp
     2e8:	fd00                	sd	s0,56(a0)
     2ea:	0004                	.2byte	0x4
     2ec:	1d00                	addi	s0,sp,688
     2ee:	0254                	addi	a3,sp,260
     2f0:	0001                	nop
     2f2:	0000                	unimp
     2f4:	0000                	unimp
     2f6:	04fd                	addi	s1,s1,31
     2f8:	0000                	unimp
     2fa:	1100                	addi	s0,sp,160
     2fc:	0096                	slli	ra,ra,0x5
     2fe:	0000                	unimp
     300:	016d                	addi	sp,sp,27
     302:	0000                	unimp
     304:	8312                	mv	t1,tp
     306:	0000                	unimp
     308:	0100                	addi	s0,sp,128
     30a:	0500                	addi	s0,sp,640
     30c:	01f5                	addi	gp,gp,29
     30e:	0000                	unimp
     310:	f648                	sd	a0,168(a2)
     312:	0101                	addi	sp,sp,0
     314:	0000                	unimp
     316:	0000                	unimp
     318:	4200                	lw	s0,0(a2)
     31a:	0000                	unimp
     31c:	0000                	unimp
     31e:	0000                	unimp
     320:	0100                	addi	s0,sp,128
     322:	079c                	addi	a5,sp,960
     324:	0002                	c.slli64	zero
     326:	0700                	addi	s0,sp,896
     328:	01c5                	addi	gp,gp,17
     32a:	0000                	unimp
     32c:	1f48                	addi	a0,sp,948
     32e:	000000b3          	add	ra,zero,zero
     332:	0036                	c.slli	zero,0xd
     334:	0000                	unimp
     336:	6909                	lui	s2,0x2
     338:	4a00                	lw	s0,16(a2)
     33a:	5609                	li	a2,-30
     33c:	0000                	unimp
     33e:	7300                	ld	s0,32(a4)
     340:	0000                	unimp
     342:	0d00                	addi	s0,sp,656
     344:	00a4                	addi	s1,sp,72
     346:	0000                	unimp
     348:	6309                	lui	t1,0x2
     34a:	7275                	lui	tp,0xffffd
     34c:	4d00                	lw	s0,24(a0)
     34e:	9611                	srai	a2,a2,0x24
     350:	0000                	unimp
     352:	8800                	.2byte	0x8800
     354:	0000                	unimp
     356:	0b00                	addi	s0,sp,400
     358:	6568                	ld	a0,200(a0)
     35a:	0078                	addi	a4,sp,12
     35c:	114e                	slli	sp,sp,0x33
     35e:	015d                	addi	sp,sp,23
     360:	0000                	unimp
     362:	9102                	jalr	sp
     364:	0c58                	addi	a4,sp,532
     366:	0216                	slli	tp,tp,0x5
     368:	0001                	nop
     36a:	0000                	unimp
     36c:	0000                	unimp
     36e:	02a1                	addi	t0,t0,8
     370:	0000                	unimp
     372:	000001eb          	.4byte	0x1eb
     376:	0108                	addi	a0,sp,128
     378:	085a                	slli	a6,a6,0x16
     37a:	0079                	c.nop	30
     37c:	0078                	addi	a4,sp,12
     37e:	ff08                	sd	a0,56(a4)
     380:	251a                	.2byte	0x251a
     382:	0108                	addi	a0,sp,128
     384:	5891025b          	.4byte	0x5891025b
     388:	0600                	addi	s0,sp,768
     38a:	0220                	addi	s0,sp,264
     38c:	0001                	nop
     38e:	0000                	unimp
     390:	0000                	unimp
     392:	04fd                	addi	s1,s1,31
     394:	0000                	unimp
     396:	2806                	.2byte	0x2806
     398:	0102                	c.slli64	sp
     39a:	0000                	unimp
     39c:	0000                	unimp
     39e:	fd00                	sd	s0,56(a0)
     3a0:	0004                	.2byte	0x4
     3a2:	0000                	unimp
     3a4:	0500                	addi	s0,sp,640
     3a6:	0169                	addi	sp,sp,26
     3a8:	0000                	unimp
     3aa:	0101b63b          	.4byte	0x101b63b
     3ae:	0000                	unimp
     3b0:	0000                	unimp
     3b2:	4000                	lw	s0,0(s0)
     3b4:	0000                	unimp
     3b6:	0000                	unimp
     3b8:	0000                	unimp
     3ba:	0100                	addi	s0,sp,128
     3bc:	a19c                	.2byte	0xa19c
     3be:	0002                	c.slli64	zero
     3c0:	0700                	addi	s0,sp,896
     3c2:	01c5                	addi	gp,gp,17
     3c4:	0000                	unimp
     3c6:	00a71e3b          	sllw	t3,a4,a0
     3ca:	0000                	unimp
     3cc:	000000a7          	.4byte	0xa7
     3d0:	6909                	lui	s2,0x2
     3d2:	3d00                	.2byte	0x3d00
     3d4:	5609                	li	a2,-30
     3d6:	0000                	unimp
     3d8:	d100                	sw	s0,32(a0)
     3da:	0000                	unimp
     3dc:	0d00                	addi	s0,sp,656
     3de:	0081                	addi	ra,ra,0
     3e0:	0000                	unimp
     3e2:	6309                	lui	t1,0x2
     3e4:	7275                	lui	tp,0xffffd
     3e6:	4000                	lw	s0,0(s0)
     3e8:	9611                	srai	a2,a2,0x24
     3ea:	0000                	unimp
     3ec:	e600                	sd	s0,8(a2)
     3ee:	0000                	unimp
     3f0:	0b00                	addi	s0,sp,400
     3f2:	6568                	ld	a0,200(a0)
     3f4:	0078                	addi	a4,sp,12
     3f6:	1141                	addi	sp,sp,-16
     3f8:	015d                	addi	sp,sp,23
     3fa:	0000                	unimp
     3fc:	9102                	jalr	sp
     3fe:	0c58                	addi	a4,sp,532
     400:	01d4                	addi	a3,sp,196
     402:	0001                	nop
     404:	0000                	unimp
     406:	0000                	unimp
     408:	02a1                	addi	t0,t0,8
     40a:	0000                	unimp
     40c:	0285                	addi	t0,t0,1
     40e:	0000                	unimp
     410:	0108                	addi	a0,sp,128
     412:	085a                	slli	a6,a6,0x16
     414:	0079                	c.nop	30
     416:	0078                	addi	a4,sp,12
     418:	ff08                	sd	a0,56(a4)
     41a:	251a                	.2byte	0x251a
     41c:	0108                	addi	a0,sp,128
     41e:	5891025b          	.4byte	0x5891025b
     422:	0600                	addi	s0,sp,768
     424:	01de                	slli	gp,gp,0x17
     426:	0001                	nop
     428:	0000                	unimp
     42a:	0000                	unimp
     42c:	04fd                	addi	s1,s1,31
     42e:	0000                	unimp
     430:	e606                	sd	ra,264(sp)
     432:	0101                	addi	sp,sp,0
     434:	0000                	unimp
     436:	0000                	unimp
     438:	fd00                	sd	s0,56(a0)
     43a:	0004                	.2byte	0x4
     43c:	0000                	unimp
     43e:	0500                	addi	s0,sp,640
     440:	01ca                	slli	gp,gp,0x12
     442:	0000                	unimp
     444:	9234                	.2byte	0x9234
     446:	0101                	addi	sp,sp,0
     448:	0000                	unimp
     44a:	0000                	unimp
     44c:	2400                	.2byte	0x2400
     44e:	0000                	unimp
     450:	0000                	unimp
     452:	0000                	unimp
     454:	0100                	addi	s0,sp,128
     456:	da9c                	sw	a5,48(a3)
     458:	0002                	c.slli64	zero
     45a:	1300                	addi	s0,sp,416
     45c:	6e69                	lui	t3,0x1a
     45e:	0070                	addi	a2,sp,12
     460:	1934                	addi	a3,sp,184
     462:	0096                	slli	ra,ra,0x5
     464:	0000                	unimp
     466:	00ff                	.2byte	0xff
     468:	0000                	unimp
     46a:	7214                	ld	a3,32(a2)
     46c:	7365                	lui	t1,0xffff9
     46e:	3400                	.2byte	0x3400
     470:	da26                	sw	s1,52(sp)
     472:	0002                	c.slli64	zero
     474:	0100                	addi	s0,sp,128
     476:	960e005b          	.4byte	0x960e005b
     47a:	0000                	unimp
     47c:	0500                	addi	s0,sp,640
     47e:	006d                	c.nop	27
     480:	0000                	unimp
     482:	01017427          	.4byte	0x1017427
     486:	0000                	unimp
     488:	0000                	unimp
     48a:	1e00                	addi	s0,sp,816
     48c:	0000                	unimp
     48e:	0000                	unimp
     490:	0000                	unimp
     492:	0100                	addi	s0,sp,128
     494:	279c                	.2byte	0x279c
     496:	13000003          	lb	zero,304(zero) # 130 <ROM_BASE-0xfed0>
     49a:	00727473          	csrrci	s0,0x7,4
     49e:	03271d27          	.4byte	0x3271d27
     4a2:	0000                	unimp
     4a4:	0129                	addi	sp,sp,10
     4a6:	0000                	unimp
     4a8:	6309                	lui	t1,0x2
     4aa:	7275                	lui	tp,0xffffd
     4ac:	2900                	.2byte	0x2900
     4ae:	2711                	addiw	a4,a4,4
     4b0:	53000003          	lb	zero,1328(zero) # 530 <ROM_BASE-0xfad0>
     4b4:	0001                	nop
     4b6:	0600                	addi	s0,sp,768
     4b8:	018e                	slli	gp,gp,0x3
     4ba:	0001                	nop
     4bc:	0000                	unimp
     4be:	0000                	unimp
     4c0:	04fd                	addi	s1,s1,31
     4c2:	0000                	unimp
     4c4:	0e00                	addi	s0,sp,784
     4c6:	00000333          	add	t1,zero,zero
     4ca:	0102                	c.slli64	sp
     4cc:	8108                	.2byte	0x8108
     4ce:	0000                	unimp
     4d0:	1e00                	addi	s0,sp,816
     4d2:	032c                	addi	a1,sp,392
     4d4:	0000                	unimp
     4d6:	6305                	lui	t1,0x1
     4d8:	0000                	unimp
     4da:	1a00                	addi	s0,sp,304
     4dc:	0130                	addi	a2,sp,136
     4de:	0001                	nop
     4e0:	0000                	unimp
     4e2:	0000                	unimp
     4e4:	0044                	addi	s1,sp,4
     4e6:	0000                	unimp
     4e8:	0000                	unimp
     4ea:	0000                	unimp
     4ec:	9c01                	subw	s0,s0,s0
     4ee:	04fd                	addi	s1,s1,31
     4f0:	0000                	unimp
     4f2:	0001e007          	.4byte	0x1e007
     4f6:	1a00                	addi	s0,sp,304
     4f8:	a719                	j	bfe <ROM_BASE-0xf402>
     4fa:	0000                	unimp
     4fc:	7a00                	ld	s0,48(a2)
     4fe:	0001                	nop
     500:	0700                	addi	s0,sp,896
     502:	01d5                	addi	gp,gp,21
     504:	0000                	unimp
     506:	281a                	.2byte	0x281a
     508:	000000a7          	.4byte	0xa7
     50c:	01a4                	addi	s1,sp,200
     50e:	0000                	unimp
     510:	1c1f 0002 0100      	.byte	0x1f, 0x1c, 0x02, 0x00, 0x00, 0x01
     516:	0e1c                	addi	a5,sp,784
     518:	000000a7          	.4byte	0xa7
     51c:	01ce                	slli	gp,gp,0x13
     51e:	0000                	unimp
     520:	b40a                	.2byte	0xb40a
     522:	0005                	c.nop	1
     524:	3800                	.2byte	0x3800
     526:	0101                	addi	sp,sp,0
     528:	0000                	unimp
     52a:	0000                	unimp
     52c:	0800                	addi	s0,sp,16
     52e:	0000                	unimp
     530:	0000                	unimp
     532:	0000                	unimp
     534:	1e00                	addi	s0,sp,816
     536:	03b8                	addi	a4,sp,456
     538:	0000                	unimp
     53a:	cc01                	beqz	s0,552 <ROM_BASE-0xfaae>
     53c:	0005                	c.nop	1
     53e:	fb00                	sd	s0,48(a4)
     540:	0001                	nop
     542:	0100                	addi	s0,sp,128
     544:	05c1                	addi	a1,a1,16 # 8010 <ROM_BASE-0x7ff0>
     546:	0000                	unimp
     548:	0210                	addi	a2,sp,256
     54a:	0000                	unimp
     54c:	d704                	sw	s1,40(a4)
     54e:	0005                	c.nop	1
     550:	1000                	addi	s0,sp,32
     552:	0002                	c.slli64	zero
     554:	0000                	unimp
     556:	b40a                	.2byte	0xb40a
     558:	0005                	c.nop	1
     55a:	4000                	lw	s0,0(s0)
     55c:	0101                	addi	sp,sp,0
     55e:	0000                	unimp
     560:	0000                	unimp
     562:	0800                	addi	s0,sp,16
     564:	0000                	unimp
     566:	0000                	unimp
     568:	0000                	unimp
     56a:	1f00                	addi	s0,sp,944
     56c:	03ee                	slli	t2,t2,0x1b
     56e:	0000                	unimp
     570:	cc01                	beqz	s0,588 <ROM_BASE-0xfa78>
     572:	0005                	c.nop	1
     574:	2900                	.2byte	0x2900
     576:	0002                	c.slli64	zero
     578:	0100                	addi	s0,sp,128
     57a:	05c1                	addi	a1,a1,16
     57c:	0000                	unimp
     57e:	0000023f 0005d704 	.8byte	0x5d7040000023f
     586:	3f00                	.2byte	0x3f00
     588:	0002                	c.slli64	zero
     58a:	0000                	unimp
     58c:	b415                	j	ffffffffffffffb0 <_RODATA_END_+0xfffffffffffee387>
     58e:	0005                	c.nop	1
     590:	4c00                	lw	s0,24(s0)
     592:	0101                	addi	sp,sp,0
     594:	0000                	unimp
     596:	0000                	unimp
     598:	5e00                	lw	s0,56(a2)
     59a:	0000                	unimp
     59c:	2000                	.2byte	0x2000
     59e:	2705                	addiw	a4,a4,1
     5a0:	0004                	.2byte	0x4
     5a2:	0100                	addi	s0,sp,128
     5a4:	05cc                	addi	a1,sp,708
     5a6:	0000                	unimp
     5a8:	0258                	addi	a4,sp,260
     5aa:	0000                	unimp
     5ac:	c101                	beqz	a0,5ac <ROM_BASE-0xfa54>
     5ae:	0005                	c.nop	1
     5b0:	6c00                	ld	s0,24(s0)
     5b2:	0002                	c.slli64	zero
     5b4:	0d00                	addi	s0,sp,656
     5b6:	005e                	c.slli	zero,0x17
     5b8:	0000                	unimp
     5ba:	d704                	sw	s1,40(a4)
     5bc:	0005                	c.nop	1
     5be:	6c00                	ld	s0,24(s0)
     5c0:	0002                	c.slli64	zero
     5c2:	0000                	unimp
     5c4:	0a00                	addi	s0,sp,272
     5c6:	05b4                	addi	a3,sp,712
     5c8:	0000                	unimp
     5ca:	0158                	addi	a4,sp,132
     5cc:	0001                	nop
     5ce:	0000                	unimp
     5d0:	0000                	unimp
     5d2:	0004                	.2byte	0x4
     5d4:	0000                	unimp
     5d6:	0000                	unimp
     5d8:	0000                	unimp
     5da:	5d21                	li	s10,-24
     5dc:	0004                	.2byte	0x4
     5de:	0100                	addi	s0,sp,128
     5e0:	05cc                	addi	a1,sp,708
     5e2:	0000                	unimp
     5e4:	00000283          	lb	t0,0(zero) # 0 <ROM_BASE-0x10000>
     5e8:	c101                	beqz	a0,5e8 <ROM_BASE-0xfa18>
     5ea:	0005                	c.nop	1
     5ec:	9700                	.2byte	0x9700
     5ee:	0002                	c.slli64	zero
     5f0:	0400                	addi	s0,sp,512
     5f2:	000005d7          	.4byte	0x5d7
     5f6:	00000297          	auipc	t0,0x0
     5fa:	0a00                	addi	s0,sp,272
     5fc:	05b4                	addi	a3,sp,712
     5fe:	0000                	unimp
     600:	015c                	addi	a5,sp,132
     602:	0001                	nop
     604:	0000                	unimp
     606:	0000                	unimp
     608:	0006                	c.slli	zero,0x1
     60a:	0000                	unimp
     60c:	0000                	unimp
     60e:	0000                	unimp
     610:	9322                	add	t1,t1,s0
     612:	0004                	.2byte	0x4
     614:	0100                	addi	s0,sp,128
     616:	05cc                	addi	a1,sp,708
     618:	0000                	unimp
     61a:	02b0                	addi	a2,sp,328
     61c:	0000                	unimp
     61e:	c101                	beqz	a0,61e <ROM_BASE-0xf9e2>
     620:	0005                	c.nop	1
     622:	c500                	sw	s0,8(a0)
     624:	0002                	c.slli64	zero
     626:	0400                	addi	s0,sp,512
     628:	000005d7          	.4byte	0x5d7
     62c:	02c5                	addi	t0,t0,17 # 607 <ROM_BASE-0xf9f9>
     62e:	0000                	unimp
     630:	0a00                	addi	s0,sp,272
     632:	05b4                	addi	a3,sp,712
     634:	0000                	unimp
     636:	0162                	slli	sp,sp,0x18
     638:	0001                	nop
     63a:	0000                	unimp
     63c:	0000                	unimp
     63e:	0008                	.2byte	0x8
     640:	0000                	unimp
     642:	0000                	unimp
     644:	0000                	unimp
     646:	0004c923          	.4byte	0x4c923
     64a:	0100                	addi	s0,sp,128
     64c:	05cc                	addi	a1,sp,708
     64e:	0000                	unimp
     650:	02de                	slli	t0,t0,0x17
     652:	0000                	unimp
     654:	c101                	beqz	a0,654 <ROM_BASE-0xf9ac>
     656:	0005                	c.nop	1
     658:	f400                	sd	s0,40(s0)
     65a:	0002                	c.slli64	zero
     65c:	0400                	addi	s0,sp,512
     65e:	000005d7          	.4byte	0x5d7
     662:	02f4                	addi	a3,sp,332
     664:	0000                	unimp
     666:	0f00                	addi	s0,sp,912
     668:	05b4                	addi	a3,sp,712
     66a:	0000                	unimp
     66c:	016a                	slli	sp,sp,0x1a
     66e:	0001                	nop
     670:	0000                	unimp
     672:	0000                	unimp
     674:	0008                	.2byte	0x8
     676:	0000                	unimp
     678:	0000                	unimp
     67a:	0000                	unimp
     67c:	0524                	addi	s1,sp,648
     67e:	cc01                	beqz	s0,696 <ROM_BASE-0xf96a>
     680:	0005                	c.nop	1
     682:	0d00                	addi	s0,sp,656
     684:	01000003          	lb	zero,16(zero) # 10 <ROM_BASE-0xfff0>
     688:	05c1                	addi	a1,a1,16
     68a:	0000                	unimp
     68c:	00000323          	sb	zero,6(zero) # 6 <ROM_BASE-0xfffa>
     690:	d704                	sw	s1,40(a4)
     692:	0005                	c.nop	1
     694:	2300                	.2byte	0x2300
     696:	00000003          	lb	zero,0(zero) # 0 <ROM_BASE-0x10000>
     69a:	0500                	addi	s0,sp,640
     69c:	00000197          	auipc	gp,0x0
     6a0:	01011c13          	slli	s8,sp,0x10
     6a4:	0000                	unimp
     6a6:	0000                	unimp
     6a8:	1400                	addi	s0,sp,544
     6aa:	0000                	unimp
     6ac:	0000                	unimp
     6ae:	0000                	unimp
     6b0:	0100                	addi	s0,sp,128
     6b2:	8a9c                	.2byte	0x8a9c
     6b4:	0005                	c.nop	1
     6b6:	1400                	addi	s0,sp,544
     6b8:	0061                	c.nop	24
     6ba:	032c1813          	slli	a6,s8,0x32
     6be:	0000                	unimp
     6c0:	5a01                	li	s4,-32
     6c2:	8a15                	andi	a2,a2,5
     6c4:	0005                	c.nop	1
     6c6:	1c00                	addi	s0,sp,560
     6c8:	0101                	addi	sp,sp,0
     6ca:	0000                	unimp
     6cc:	0000                	unimp
     6ce:	3b00                	.2byte	0x3b00
     6d0:	0000                	unimp
     6d2:	1500                	addi	s0,sp,672
     6d4:	560c                	lw	a1,40(a2)
     6d6:	0005                	c.nop	1
     6d8:	2000                	.2byte	0x2000
     6da:	00000597          	auipc	a1,0x0
     6de:	011c                	addi	a5,sp,128
     6e0:	0001                	nop
     6e2:	0000                	unimp
     6e4:	0000                	unimp
     6e6:	0000003b          	addw	zero,zero,zero
     6ea:	1001                	c.nop	-32
     6ec:	160c                	addi	a1,sp,800
     6ee:	05a8                	addi	a0,sp,712
     6f0:	0000                	unimp
     6f2:	0000                	unimp
     6f4:	0005b40f          	.4byte	0x5b40f
     6f8:	2a00                	.2byte	0x2a00
     6fa:	0101                	addi	sp,sp,0
     6fc:	0000                	unimp
     6fe:	0000                	unimp
     700:	0400                	addi	s0,sp,512
     702:	0000                	unimp
     704:	0000                	unimp
     706:	0000                	unimp
     708:	1700                	addi	s0,sp,928
     70a:	0105                	addi	sp,sp,1
     70c:	05cc                	addi	a1,sp,708
     70e:	0000                	unimp
     710:	033c                	addi	a5,sp,392
     712:	0000                	unimp
     714:	c101                	beqz	a0,714 <ROM_BASE-0xf8ec>
     716:	0005                	c.nop	1
     718:	5000                	lw	s0,32(s0)
     71a:	04000003          	lb	zero,64(zero) # 40 <ROM_BASE-0xffc0>
     71e:	000005d7          	.4byte	0x5d7
     722:	0350                	addi	a2,sp,388
     724:	0000                	unimp
     726:	0000                	unimp
     728:	7821                	lui	a6,0xfffe8
     72a:	0001                	nop
     72c:	0100                	addi	s0,sp,128
     72e:	050e                	slli	a0,a0,0x3
     730:	0056                	c.slli	zero,0x15
     732:	0000                	unimp
     734:	2201                	sext.w	tp,tp
     736:	0210                	addi	a2,sp,256
     738:	0000                	unimp
     73a:	0901                	addi	s2,s2,0 # 2000 <ROM_BASE-0xe000>
     73c:	9609                	srai	a2,a2,0x22
     73e:	0000                	unimp
     740:	0100                	addi	s0,sp,128
     742:	05b4                	addi	a3,sp,712
     744:	0000                	unimp
     746:	c510                	sw	a2,8(a0)
     748:	0001                	nop
     74a:	0900                	addi	s0,sp,144
     74c:	bf1f 0000 0000      	.byte	0x1f, 0xbf, 0x00, 0x00, 0x00, 0x00
     752:	00018a23          	sb	zero,20(gp) # 6b0 <ROM_BASE-0xf950>
     756:	0100                	addi	s0,sp,128
     758:	e4010603          	lb	a2,-448(sp)
     75c:	0005                	c.nop	1
     75e:	1000                	addi	s0,sp,32
     760:	01c5                	addi	gp,gp,17
     762:	0000                	unimp
     764:	00bf1d03          	lh	s10,11(t5)
     768:	0000                	unimp
     76a:	da10                	sw	a2,48(a2)
     76c:	0001                	nop
     76e:	0300                	addi	s0,sp,384
     770:	0000962b          	.4byte	0x962b
     774:	2400                	.2byte	0x2400
     776:	01c1                	addi	gp,gp,16
     778:	0000                	unimp
     77a:	0501                	addi	a0,a0,0
     77c:	0005e417          	auipc	s0,0x5e
     780:	0000                	unimp
     782:	a20e                	.2byte	0xa20e
     784:	0000                	unimp
     786:	1700                	addi	s0,sp,928
     788:	05b4                	addi	a3,sp,712
     78a:	0000                	unimp
     78c:	0102                	c.slli64	sp
     78e:	0001                	nop
     790:	0000                	unimp
     792:	0000                	unimp
     794:	0006                	c.slli	zero,0x1
     796:	0000                	unimp
     798:	0000                	unimp
     79a:	0000                	unimp
     79c:	9c01                	subw	s0,s0,s0
     79e:	061a                	slli	a2,a2,0x6
     7a0:	0000                	unimp
     7a2:	c118                	sw	a4,0(a0)
     7a4:	0005                	c.nop	1
     7a6:	0100                	addi	s0,sp,128
     7a8:	185a                	slli	a6,a6,0x36
     7aa:	05cc                	addi	a1,sp,708
     7ac:	0000                	unimp
     7ae:	5b01                	li	s6,-32
     7b0:	d725                	beqz	a4,718 <ROM_BASE-0xf8e8>
     7b2:	0005                	c.nop	1
     7b4:	0100                	addi	s0,sp,128
     7b6:	005a                	c.slli	zero,0x16
     7b8:	00059717          	auipc	a4,0x59
     7bc:	0800                	addi	s0,sp,16
     7be:	0101                	addi	sp,sp,0
     7c0:	0000                	unimp
     7c2:	0000                	unimp
     7c4:	0600                	addi	s0,sp,768
     7c6:	0000                	unimp
     7c8:	0000                	unimp
     7ca:	0000                	unimp
     7cc:	0100                	addi	s0,sp,128
     7ce:	3f9c                	.2byte	0x3f9c
     7d0:	0006                	c.slli	zero,0x1
     7d2:	0100                	addi	s0,sp,128
     7d4:	05a8                	addi	a0,sp,712
     7d6:	0000                	unimp
     7d8:	00000367          	jalr	t1,zero # 0 <ROM_BASE-0x10000>
     7dc:	2600                	.2byte	0x2600
     7de:	058a                	slli	a1,a1,0x2
     7e0:	0000                	unimp
     7e2:	010e                	slli	sp,sp,0x3
     7e4:	0001                	nop
     7e6:	0000                	unimp
     7e8:	0000                	unimp
     7ea:	000e                	c.slli	zero,0x3
     7ec:	0000                	unimp
     7ee:	0000                	unimp
     7f0:	0000                	unimp
     7f2:	9c01                	subw	s0,s0,s0
     7f4:	0005970f          	.4byte	0x5970f
     7f8:	0e00                	addi	s0,sp,784
     7fa:	0101                	addi	sp,sp,0
     7fc:	0000                	unimp
     7fe:	0000                	unimp
     800:	0800                	addi	s0,sp,16
     802:	0000                	unimp
     804:	0000                	unimp
     806:	0000                	unimp
     808:	1000                	addi	s0,sp,32
     80a:	160c                	addi	a1,sp,800
     80c:	05a8                	addi	a0,sp,712
     80e:	0000                	unimp
     810:	0000                	unimp
     812:	ac00                	.2byte	0xac00
     814:	05000007          	.4byte	0x5000007
     818:	0100                	addi	s0,sp,128
     81a:	3308                	.2byte	0x3308
     81c:	18000003          	lb	zero,384(zero) # 180 <ROM_BASE-0xfe80>
     820:	00df 0000 e91d      	.byte	0xdf, 0x00, 0x00, 0x00, 0x1d, 0xe9
     826:	0000                	unimp
     828:	0000                	unimp
     82a:	0000                	unimp
     82c:	5400                	lw	s0,40(s0)
     82e:	0102                	c.slli64	sp
     830:	0000                	unimp
     832:	0000                	unimp
     834:	9800                	.2byte	0x9800
     836:	0001                	nop
     838:	0000                	unimp
     83a:	0000                	unimp
     83c:	3800                	.2byte	0x3800
     83e:	0006                	c.slli	zero,0x1
     840:	0500                	addi	s0,sp,640
     842:	0601                	addi	a2,a2,0
     844:	007a                	c.slli	zero,0x1e
     846:	0000                	unimp
     848:	5906                	lw	s2,96(sp)
     84a:	0000                	unimp
     84c:	0200                	addi	s0,sp,256
     84e:	0041182b          	.4byte	0x41182b
     852:	0000                	unimp
     854:	0105                	addi	sp,sp,1
     856:	7808                	ld	a0,48(s0)
     858:	0000                	unimp
     85a:	0500                	addi	s0,sp,640
     85c:	0502                	c.slli64	a0
     85e:	015f 0000 0205      	.byte	0x5f, 0x01, 0x00, 0x00, 0x05, 0x02
     864:	0000a407          	.4byte	0xa407
     868:	1900                	addi	s0,sp,176
     86a:	0504                	addi	s1,sp,640
     86c:	6e69                	lui	t3,0x1a
     86e:	0074                	addi	a3,sp,12
     870:	b706                	.2byte	0xb706
     872:	0000                	unimp
     874:	0200                	addi	s0,sp,256
     876:	0069194f          	.4byte	0x69194f
     87a:	0000                	unimp
     87c:	0405                	addi	s0,s0,1 # 5e77d <_RODATA_END_+0x4cb54>
     87e:	00009707          	.4byte	0x9707
     882:	0500                	addi	s0,sp,640
     884:	0508                	addi	a0,sp,640
     886:	0390                	addi	a2,sp,448
     888:	0000                	unimp
     88a:	0506                	slli	a0,a0,0x1
     88c:	0002                	c.slli64	zero
     88e:	0200                	addi	s0,sp,256
     890:	1969                	addi	s2,s2,-6
     892:	00000083          	lb	ra,0(zero) # 0 <ROM_BASE-0x10000>
     896:	0805                	addi	a6,a6,1 # fffffffffffe8001 <_RODATA_END_+0xfffffffffffd63d8>
     898:	00009207          	.4byte	0x9207
     89c:	0600                	addi	s0,sp,768
     89e:	01a4                	addi	s1,sp,200
     8a0:	0000                	unimp
     8a2:	e802                	sd	zero,16(sp)
     8a4:	831a                	mv	t1,t1
     8a6:	0000                	unimp
     8a8:	0600                	addi	s0,sp,768
     8aa:	0000005b          	.4byte	0x5b
     8ae:	35131803          	lh	a6,849(t1) # 1351 <ROM_BASE-0xecaf>
     8b2:	0000                	unimp
     8b4:	0600                	addi	s0,sp,768
     8b6:	00b9                	addi	ra,ra,14
     8b8:	0000                	unimp
     8ba:	5d143003          	ld	zero,1489(s0)
     8be:	0000                	unimp
     8c0:	1a00                	addi	s0,sp,304
     8c2:	00a2                	slli	ra,ra,0x8
     8c4:	0000                	unimp
     8c6:	0706                	slli	a4,a4,0x1
     8c8:	0002                	c.slli64	zero
     8ca:	0300                	addi	s0,sp,384
     8cc:	143c                	addi	a5,sp,552
     8ce:	00000077          	.4byte	0x77
     8d2:	a606                	.2byte	0xa606
     8d4:	0001                	nop
     8d6:	0300                	addi	s0,sp,384
     8d8:	1552                	slli	a0,a0,0x34
     8da:	008a                	slli	ra,ra,0x2
     8dc:	0000                	unimp
     8de:	0001f50f          	.4byte	0x1f50f
     8e2:	1900                	addi	s0,sp,176
     8e4:	000000db          	.4byte	0xdb
     8e8:	b310                	.2byte	0xb310
     8ea:	0000                	unimp
     8ec:	0000                	unimp
     8ee:	00006d0f          	.4byte	0x6d0f
     8f2:	1500                	addi	s0,sp,672
     8f4:	000000eb          	.4byte	0xeb
     8f8:	eb10                	sd	a2,16(a4)
     8fa:	0000                	unimp
     8fc:	0000                	unimp
     8fe:	f70c                	sd	a1,40(a4)
     900:	0000                	unimp
     902:	0500                	addi	s0,sp,640
     904:	0801                	addi	a6,a6,0
     906:	0081                	addi	ra,ra,0
     908:	0000                	unimp
     90a:	0000f01b          	.4byte	0xf01b
     90e:	1100                	addi	s0,sp,160
     910:	022d                	addi	tp,tp,11 # ffffffffffffd00b <_RODATA_END_+0xfffffffffffeb3e2>
     912:	0000                	unimp
     914:	0556                	slli	a0,a0,0x15
     916:	0056                	c.slli	zero,0x15
     918:	0000                	unimp
     91a:	0368                	addi	a0,sp,396
     91c:	0001                	nop
     91e:	0000                	unimp
     920:	0000                	unimp
     922:	0084                	addi	s1,sp,64
     924:	0000                	unimp
     926:	0000                	unimp
     928:	0000                	unimp
     92a:	9c01                	subw	s0,s0,s0
     92c:	0308                	addi	a0,sp,384
     92e:	0000                	unimp
     930:	3712                	.2byte	0x3712
     932:	0002                	c.slli64	zero
     934:	5600                	lw	s0,40(a2)
     936:	081e                	slli	a6,a6,0x7
     938:	9d000003          	lb	zero,-1584(zero) # fffffffffffff9d0 <_RODATA_END_+0xfffffffffffedda7>
     93c:	13000003          	lb	zero,304(zero) # 130 <ROM_BASE-0xfed0>
     940:	656c                	ld	a1,200(a0)
     942:	006e                	c.slli	zero,0x1b
     944:	2e56                	.2byte	0x2e56
     946:	00a2                	slli	ra,ra,0x8
     948:	0000                	unimp
     94a:	5b01                	li	s6,-32
     94c:	74657213          	andi	tp,a0,1862
     950:	5600                	lw	s0,40(a2)
     952:	083c                	addi	a5,sp,24
     954:	01000003          	lb	zero,16(zero) # 10 <ROM_BASE-0xfff0>
     958:	0d5c                	addi	a5,sp,660
     95a:	02ed                	addi	t0,t0,27
     95c:	0000                	unimp
     95e:	a258                	.2byte	0xa258
     960:	0000                	unimp
     962:	1900                	addi	s0,sp,176
     964:	0004                	.2byte	0x4
     966:	0b00                	addi	s0,sp,400
     968:	0265                	addi	tp,tp,25 # 19 <ROM_BASE-0xffe7>
     96a:	0000                	unimp
     96c:	01a0                	addi	s0,sp,200
     96e:	0000                	unimp
     970:	6909                	lui	s2,0x2
     972:	6000                	ld	s0,0(s0)
     974:	0056                	c.slli	zero,0x15
     976:	0000                	unimp
     978:	0440                	addi	s0,sp,516
     97a:	0000                	unimp
     97c:	281c                	.2byte	0x281c
     97e:	78000007          	.4byte	0x78000007
     982:	00000103          	lb	sp,0(zero) # 0 <ROM_BASE-0x10000>
     986:	0000                	unimp
     988:	8800                	.2byte	0x8800
     98a:	0002                	c.slli64	zero
     98c:	0100                	addi	s0,sp,128
     98e:	0962                	slli	s2,s2,0x18
     990:	4001                	c.li	zero,0
     992:	8e000007          	.4byte	0x8e000007
     996:	0004                	.2byte	0x4
     998:	0100                	addi	s0,sp,128
     99a:	0735                	addi	a4,a4,13 # 597c5 <_RODATA_END_+0x47b9c>
     99c:	0000                	unimp
     99e:	04a2                	slli	s1,s1,0x8
     9a0:	0000                	unimp
     9a2:	880a                	mv	a6,sp
     9a4:	0002                	c.slli64	zero
     9a6:	0200                	addi	s0,sp,256
     9a8:	0000074b          	.4byte	0x74b
     9ac:	04a2                	slli	s1,s1,0x8
     9ae:	0000                	unimp
     9b0:	0000                	unimp
     9b2:	1d00                	addi	s0,sp,688
     9b4:	038a                	slli	t2,t2,0x2
     9b6:	0001                	nop
     9b8:	0000                	unimp
     9ba:	0000                	unimp
     9bc:	0006                	c.slli	zero,0x1
     9be:	0000                	unimp
     9c0:	0000                	unimp
     9c2:	0000                	unimp
     9c4:	01c2                	slli	gp,gp,0x10
     9c6:	0000                	unimp
     9c8:	6909                	lui	s2,0x2
     9ca:	6500                	ld	s0,8(a0)
     9cc:	0056                	c.slli	zero,0x15
     9ce:	0000                	unimp
     9d0:	000004bb          	addw	s1,zero,zero
     9d4:	0b00                	addi	s0,sp,400
     9d6:	02ce                	slli	t0,t0,0x13
     9d8:	0000                	unimp
     9da:	0212                	slli	tp,tp,0x4
     9dc:	0000                	unimp
     9de:	6909                	lui	s2,0x2
     9e0:	7300                	ld	s0,32(a4)
     9e2:	0056                	c.slli	zero,0x15
     9e4:	0000                	unimp
     9e6:	04ec                	addi	a1,sp,588
     9e8:	0000                	unimp
     9ea:	00070b03          	lb	s6,0(a4)
     9ee:	a400                	.2byte	0xa400
     9f0:	00000103          	lb	sp,0(zero) # 0 <ROM_BASE-0x10000>
     9f4:	0000                	unimp
     9f6:	f100                	sd	s0,32(a0)
     9f8:	0002                	c.slli64	zero
     9fa:	7500                	ld	s0,40(a0)
     9fc:	f412                	sd	tp,40(sp)
     9fe:	0001                	nop
     a00:	0800                	addi	s0,sp,16
     a02:	071c                	addi	a5,sp,896
     a04:	0000                	unimp
     a06:	1400                	addi	s0,sp,544
     a08:	0000070b          	.4byte	0x70b
     a0c:	03d8                	addi	a4,sp,452
     a0e:	0001                	nop
     a10:	0000                	unimp
     a12:	0000                	unimp
     a14:	0004                	.2byte	0x4
     a16:	0000                	unimp
     a18:	0000                	unimp
     a1a:	0000                	unimp
     a1c:	1878                	addi	a4,sp,60
     a1e:	1c08                	addi	a0,sp,560
     a20:	00000007          	.4byte	0x7
     a24:	0400                	addi	s0,sp,512
     a26:	0728                	addi	a0,sp,904
     a28:	0000                	unimp
     a2a:	0370                	addi	a2,sp,396
     a2c:	0001                	nop
     a2e:	0000                	unimp
     a30:	0000                	unimp
     a32:	0008                	.2byte	0x8
     a34:	0000                	unimp
     a36:	0000                	unimp
     a38:	0000                	unimp
     a3a:	055e                	slli	a0,a0,0x17
     a3c:	0249                	addi	tp,tp,18 # 12 <ROM_BASE-0xffee>
     a3e:	0000                	unimp
     a40:	4001                	c.li	zero,0
     a42:	3b000007          	.4byte	0x3b000007
     a46:	0005                	c.nop	1
     a48:	0100                	addi	s0,sp,128
     a4a:	0735                	addi	a4,a4,13
     a4c:	0000                	unimp
     a4e:	0551                	addi	a0,a0,20
     a50:	0000                	unimp
     a52:	4b02                	lw	s6,0(sp)
     a54:	51000007          	.4byte	0x51000007
     a58:	0005                	c.nop	1
     a5a:	0000                	unimp
     a5c:	2804                	.2byte	0x2804
     a5e:	90000007          	.4byte	0x90000007
     a62:	00000103          	lb	sp,0(zero) # 0 <ROM_BASE-0x10000>
     a66:	0000                	unimp
     a68:	0a00                	addi	s0,sp,272
     a6a:	0000                	unimp
     a6c:	0000                	unimp
     a6e:	0000                	unimp
     a70:	6c00                	ld	s0,24(s0)
     a72:	8005                	srli	s0,s0,0x1
     a74:	0002                	c.slli64	zero
     a76:	0100                	addi	s0,sp,128
     a78:	0740                	addi	s0,sp,900
     a7a:	0000                	unimp
     a7c:	056a                	slli	a0,a0,0x1a
     a7e:	0000                	unimp
     a80:	3501                	addiw	a0,a0,-32
     a82:	81000007          	.4byte	0x81000007
     a86:	0005                	c.nop	1
     a88:	0200                	addi	s0,sp,256
     a8a:	0000074b          	.4byte	0x74b
     a8e:	0581                	addi	a1,a1,0 # 6da <ROM_BASE-0xf926>
     a90:	0000                	unimp
     a92:	0300                	addi	s0,sp,384
     a94:	0000070b          	.4byte	0x70b
     a98:	039a                	slli	t2,t2,0x6
     a9a:	0001                	nop
     a9c:	0000                	unimp
     a9e:	0000                	unimp
     aa0:	000002ab          	.4byte	0x2ab
     aa4:	1270                	addi	a2,sp,300
     aa6:	029d                	addi	t0,t0,7
     aa8:	0000                	unimp
     aaa:	1c08                	addi	a0,sp,560
     aac:	00000007          	.4byte	0x7
     ab0:	2804                	.2byte	0x2804
     ab2:	b4000007          	.4byte	0xb4000007
     ab6:	00000103          	lb	sp,0(zero) # 0 <ROM_BASE-0x10000>
     aba:	0000                	unimp
     abc:	0800                	addi	s0,sp,16
     abe:	0000                	unimp
     ac0:	0000                	unimp
     ac2:	0000                	unimp
     ac4:	7d00                	ld	s0,56(a0)
     ac6:	d405                	beqz	s0,9ee <ROM_BASE-0xf612>
     ac8:	0002                	c.slli64	zero
     aca:	0100                	addi	s0,sp,128
     acc:	0740                	addi	s0,sp,900
     ace:	0000                	unimp
     ad0:	059a                	slli	a1,a1,0x6
     ad2:	0000                	unimp
     ad4:	3501                	addiw	a0,a0,-32
     ad6:	b0000007          	.4byte	0xb0000007
     ada:	0005                	c.nop	1
     adc:	0200                	addi	s0,sp,256
     ade:	0000074b          	.4byte	0x74b
     ae2:	05b0                	addi	a2,sp,712
     ae4:	0000                	unimp
     ae6:	1400                	addi	s0,sp,544
     ae8:	0728                	addi	a0,sp,904
     aea:	0000                	unimp
     aec:	03bc                	addi	a5,sp,456
     aee:	0001                	nop
     af0:	0000                	unimp
     af2:	0000                	unimp
     af4:	0004                	.2byte	0x4
     af6:	0000                	unimp
     af8:	0000                	unimp
     afa:	0000                	unimp
     afc:	0580                	addi	s0,sp,704
     afe:	4001                	c.li	zero,0
     b00:	c9000007          	.4byte	0xc9000007
     b04:	0005                	c.nop	1
     b06:	0100                	addi	s0,sp,128
     b08:	0735                	addi	a4,a4,13
     b0a:	0000                	unimp
     b0c:	05de                	slli	a1,a1,0x17
     b0e:	0000                	unimp
     b10:	4b02                	lw	s6,0(sp)
     b12:	de000007          	.4byte	0xde000007
     b16:	0005                	c.nop	1
     b18:	0000                	unimp
     b1a:	0c00                	addi	s0,sp,528
     b1c:	0096                	slli	ra,ra,0x5
     b1e:	0000                	unimp
     b20:	2411                	addiw	s0,s0,4
     b22:	0002                	c.slli64	zero
     b24:	3100                	.2byte	0x3100
     b26:	9609                	srai	a2,a2,0x22
     b28:	0000                	unimp
     b2a:	f200                	sd	s0,32(a2)
     b2c:	0102                	c.slli64	sp
     b2e:	0000                	unimp
     b30:	0000                	unimp
     b32:	7600                	ld	s0,40(a2)
     b34:	0000                	unimp
     b36:	0000                	unimp
     b38:	0000                	unimp
     b3a:	0100                	addi	s0,sp,128
     b3c:	1e9c                	addi	a5,sp,880
     b3e:	0005                	c.nop	1
     b40:	1200                	addi	s0,sp,288
     b42:	01f0                	addi	a2,sp,204
     b44:	0000                	unimp
     b46:	1a31                	addi	s4,s4,-20 # fffffffffffe0fec <_RODATA_END_+0xfffffffffffcf3c3>
     b48:	0096                	slli	ra,ra,0x5
     b4a:	0000                	unimp
     b4c:	000005f7          	.4byte	0x5f7
     b50:	3d0d                	addiw	s10,s10,-29
     b52:	0002                	c.slli64	zero
     b54:	4400                	lw	s0,8(s0)
     b56:	00a2                	slli	ra,ra,0x8
     b58:	0000                	unimp
     b5a:	0621                	addi	a2,a2,8
     b5c:	0000                	unimp
     b5e:	0001b60b          	.4byte	0x1b60b
     b62:	6100                	ld	s0,0(a0)
     b64:	09000003          	lb	zero,144(zero) # 90 <ROM_BASE-0xff70>
     b68:	0069                	c.nop	26
     b6a:	5638                	lw	a4,104(a2)
     b6c:	0000                	unimp
     b6e:	3500                	.2byte	0x3500
     b70:	0006                	c.slli	zero,0x1
     b72:	0000                	unimp
     b74:	00072803          	lw	a6,0(a4)
     b78:	f200                	sd	s0,32(a2)
     b7a:	0102                	c.slli64	sp
     b7c:	0000                	unimp
     b7e:	0000                	unimp
     b80:	5f00                	lw	s0,56(a4)
     b82:	0001                	nop
     b84:	3400                	.2byte	0x3400
     b86:	9a05                	andi	a2,a2,-31
     b88:	01000003          	lb	zero,16(zero) # 10 <ROM_BASE-0xfff0>
     b8c:	0740                	addi	s0,sp,900
     b8e:	0000                	unimp
     b90:	067a                	slli	a2,a2,0x1e
     b92:	0000                	unimp
     b94:	3501                	addiw	a0,a0,-32
     b96:	90000007          	.4byte	0x90000007
     b9a:	0006                	c.slli	zero,0x1
     b9c:	0a00                	addi	s0,sp,272
     b9e:	015f 0000 4b02      	.byte	0x5f, 0x01, 0x00, 0x00, 0x02, 0x4b
     ba4:	90000007          	.4byte	0x90000007
     ba8:	0006                	c.slli	zero,0x1
     baa:	0000                	unimp
     bac:	0300                	addi	s0,sp,384
     bae:	0728                	addi	a0,sp,904
     bb0:	0000                	unimp
     bb2:	0302                	c.slli64	t1
     bb4:	0001                	nop
     bb6:	0000                	unimp
     bb8:	0000                	unimp
     bba:	00000193          	li	gp,0
     bbe:	0536                	slli	a0,a0,0xd
     bc0:	000003d3          	.4byte	0x3d3
     bc4:	4001                	c.li	zero,0
     bc6:	a9000007          	.4byte	0xa9000007
     bca:	0006                	c.slli	zero,0x1
     bcc:	0100                	addi	s0,sp,128
     bce:	0735                	addi	a4,a4,13
     bd0:	0000                	unimp
     bd2:	06bd                	addi	a3,a3,15
     bd4:	0000                	unimp
     bd6:	930a                	add	t1,t1,sp
     bd8:	0001                	nop
     bda:	0200                	addi	s0,sp,256
     bdc:	0000074b          	.4byte	0x74b
     be0:	06bd                	addi	a3,a3,15
     be2:	0000                	unimp
     be4:	0000                	unimp
     be6:	2804                	.2byte	0x2804
     be8:	0e000007          	.4byte	0xe000007
     bec:	00000103          	lb	sp,0(zero) # 0 <ROM_BASE-0x10000>
     bf0:	0000                	unimp
     bf2:	0a00                	addi	s0,sp,272
     bf4:	0000                	unimp
     bf6:	0000                	unimp
     bf8:	0000                	unimp
     bfa:	3f00                	.2byte	0x3f00
     bfc:	0a05                	addi	s4,s4,1
     bfe:	0004                	.2byte	0x4
     c00:	0100                	addi	s0,sp,128
     c02:	0740                	addi	s0,sp,900
     c04:	0000                	unimp
     c06:	06d6                	slli	a3,a3,0x15
     c08:	0000                	unimp
     c0a:	3501                	addiw	a0,a0,-32
     c0c:	ed000007          	.4byte	0xed000007
     c10:	0006                	c.slli	zero,0x1
     c12:	0200                	addi	s0,sp,256
     c14:	0000074b          	.4byte	0x74b
     c18:	06ed                	addi	a3,a3,27
     c1a:	0000                	unimp
     c1c:	0300                	addi	s0,sp,384
     c1e:	0000070b          	.4byte	0x70b
     c22:	0318                	addi	a4,sp,384
     c24:	0001                	nop
     c26:	0000                	unimp
     c28:	0000                	unimp
     c2a:	01d9                	addi	gp,gp,22
     c2c:	0000                	unimp
     c2e:	0d41                	addi	s10,s10,16
     c30:	00000427          	.4byte	0x427
     c34:	1c08                	addi	a0,sp,560
     c36:	00000007          	.4byte	0x7
     c3a:	00070b03          	lb	s6,0(a4)
     c3e:	2200                	.2byte	0x2200
     c40:	00000103          	lb	sp,0(zero) # 0 <ROM_BASE-0x10000>
     c44:	0000                	unimp
     c46:	fc00                	sd	s0,56(s0)
     c48:	0001                	nop
     c4a:	4400                	lw	s0,8(s0)
     c4c:	00044817          	auipc	a6,0x44
     c50:	0100                	addi	s0,sp,128
     c52:	071c                	addi	a5,sp,896
     c54:	0000                	unimp
     c56:	0706                	slli	a4,a4,0x1
     c58:	0000                	unimp
     c5a:	0300                	addi	s0,sp,384
     c5c:	0000070b          	.4byte	0x70b
     c60:	0324                	addi	s1,sp,392
     c62:	0001                	nop
     c64:	0000                	unimp
     c66:	0000                	unimp
     c68:	021f 0000 0a46      	.byte	0x1f, 0x02, 0x00, 0x00, 0x46, 0x0a
     c6e:	0465                	addi	s0,s0,25
     c70:	0000                	unimp
     c72:	1c08                	addi	a0,sp,560
     c74:	00000007          	.4byte	0x7
     c78:	0b04                	addi	s1,sp,400
     c7a:	38000007          	.4byte	0x38000007
     c7e:	00000103          	lb	sp,0(zero) # 0 <ROM_BASE-0x10000>
     c82:	0000                	unimp
     c84:	0200                	addi	s0,sp,256
     c86:	0000                	unimp
     c88:	0000                	unimp
     c8a:	0000                	unimp
     c8c:	4900                	lw	s0,16(a0)
     c8e:	8619                	srai	a2,a2,0x6
     c90:	0004                	.2byte	0x4
     c92:	0800                	addi	s0,sp,16
     c94:	071c                	addi	a5,sp,896
     c96:	0000                	unimp
     c98:	0300                	addi	s0,sp,384
     c9a:	0728                	addi	a0,sp,904
     c9c:	0000                	unimp
     c9e:	034e                	slli	t1,t1,0x13
     ca0:	0001                	nop
     ca2:	0000                	unimp
     ca4:	0000                	unimp
     ca6:	0242                	slli	tp,tp,0x10
     ca8:	0000                	unimp
     caa:	054e                	slli	a0,a0,0x13
     cac:	000004bf 00074001 	.8byte	0x74001000004bf
     cb4:	1f00                	addi	s0,sp,944
     cb6:	01000007          	.4byte	0x1000007
     cba:	0735                	addi	a4,a4,13
     cbc:	0000                	unimp
     cbe:	0735                	addi	a4,a4,13
     cc0:	0000                	unimp
     cc2:	420a                	lw	tp,128(sp)
     cc4:	0002                	c.slli64	zero
     cc6:	0200                	addi	s0,sp,256
     cc8:	0000074b          	.4byte	0x74b
     ccc:	0735                	addi	a4,a4,13
     cce:	0000                	unimp
     cd0:	0000                	unimp
     cd2:	2804                	.2byte	0x2804
     cd4:	5a000007          	.4byte	0x5a000007
     cd8:	00000103          	lb	sp,0(zero) # 0 <ROM_BASE-0x10000>
     cdc:	0000                	unimp
     cde:	0400                	addi	s0,sp,512
     ce0:	0000                	unimp
     ce2:	0000                	unimp
     ce4:	0000                	unimp
     ce6:	5100                	lw	s0,32(a0)
     ce8:	f605                	bnez	a2,c10 <ROM_BASE-0xf3f0>
     cea:	0004                	.2byte	0x4
     cec:	0100                	addi	s0,sp,128
     cee:	0740                	addi	s0,sp,900
     cf0:	0000                	unimp
     cf2:	074e                	slli	a4,a4,0x13
     cf4:	0000                	unimp
     cf6:	3501                	addiw	a0,a0,-32
     cf8:	63000007          	.4byte	0x63000007
     cfc:	02000007          	.4byte	0x2000007
     d00:	0000074b          	.4byte	0x74b
     d04:	00000763          	beqz	zero,d12 <ROM_BASE-0xf2ee>
     d08:	0700                	addi	s0,sp,896
     d0a:	0338                	addi	a4,sp,392
     d0c:	0001                	nop
     d0e:	0000                	unimp
     d10:	0000                	unimp
     d12:	000000db          	.4byte	0xdb
     d16:	01034207          	.4byte	0x1034207
     d1a:	0000                	unimp
     d1c:	0000                	unimp
     d1e:	cb00                	sw	s0,16(a4)
     d20:	0000                	unimp
     d22:	0700                	addi	s0,sp,896
     d24:	034e                	slli	t1,t1,0x13
     d26:	0001                	nop
     d28:	0000                	unimp
     d2a:	0000                	unimp
     d2c:	000000db          	.4byte	0xdb
     d30:	1e00                	addi	s0,sp,816
     d32:	00000257          	.4byte	0x257
     d36:	1001                	c.nop	-32
     d38:	5c06                	lw	s8,96(sp)
     d3a:	0102                	c.slli64	sp
     d3c:	0000                	unimp
     d3e:	0000                	unimp
     d40:	9600                	.2byte	0x9600
     d42:	0000                	unimp
     d44:	0000                	unimp
     d46:	0000                	unimp
     d48:	0100                	addi	s0,sp,128
     d4a:	0b9c                	addi	a5,sp,464
     d4c:	0d000007          	.4byte	0xd000007
     d50:	02ed                	addi	t0,t0,27
     d52:	0000                	unimp
     d54:	a21f 0000 7c00      	.byte	0x1f, 0xa2, 0x00, 0x00, 0x00, 0x7c
     d5a:	0b000007          	.4byte	0xb000007
     d5e:	00f6                	slli	ra,ra,0x1d
     d60:	0000                	unimp
     d62:	0560                	addi	s0,sp,652
     d64:	0000                	unimp
     d66:	6909                	lui	s2,0x2
     d68:	1700                	addi	s0,sp,928
     d6a:	0056                	c.slli	zero,0x15
     d6c:	0000                	unimp
     d6e:	000007a3          	sb	zero,15(zero) # f <ROM_BASE-0xfff1>
     d72:	0300                	addi	s0,sp,384
     d74:	0728                	addi	a0,sp,904
     d76:	0000                	unimp
     d78:	0270                	addi	a2,sp,268
     d7a:	0001                	nop
     d7c:	0000                	unimp
     d7e:	0000                	unimp
     d80:	000000d3          	.4byte	0xd3
     d84:	0515                	addi	a0,a0,5
     d86:	0599                	addi	a1,a1,6
     d88:	0000                	unimp
     d8a:	4001                	c.li	zero,0
     d8c:	e6000007          	.4byte	0xe6000007
     d90:	01000007          	.4byte	0x1000007
     d94:	0735                	addi	a4,a4,13
     d96:	0000                	unimp
     d98:	000007fb          	.4byte	0x7fb
     d9c:	d30a                	sw	sp,164(sp)
     d9e:	0000                	unimp
     da0:	0200                	addi	s0,sp,256
     da2:	0000074b          	.4byte	0x74b
     da6:	000007fb          	.4byte	0x7fb
     daa:	0000                	unimp
     dac:	2804                	.2byte	0x2804
     dae:	80000007          	.4byte	0x80000007
     db2:	0102                	c.slli64	sp
     db4:	0000                	unimp
     db6:	0000                	unimp
     db8:	0a00                	addi	s0,sp,272
     dba:	0000                	unimp
     dbc:	0000                	unimp
     dbe:	0000                	unimp
     dc0:	1d00                	addi	s0,sp,688
     dc2:	d005                	beqz	s0,ce2 <ROM_BASE-0xf31e>
     dc4:	0005                	c.nop	1
     dc6:	0100                	addi	s0,sp,128
     dc8:	0740                	addi	s0,sp,900
     dca:	0000                	unimp
     dcc:	0814                	addi	a3,sp,16
     dce:	0000                	unimp
     dd0:	3501                	addiw	a0,a0,-32
     dd2:	2b000007          	.4byte	0x2b000007
     dd6:	0008                	.2byte	0x8
     dd8:	0200                	addi	s0,sp,256
     dda:	0000074b          	.4byte	0x74b
     dde:	0000082b          	.4byte	0x82b
     de2:	0300                	addi	s0,sp,384
     de4:	0000070b          	.4byte	0x70b
     de8:	028a                	slli	t0,t0,0x2
     dea:	0001                	nop
     dec:	0000                	unimp
     dee:	0000                	unimp
     df0:	0119                	addi	sp,sp,6
     df2:	0000                	unimp
     df4:	171f 05f1 0000      	.byte	0x1f, 0x17, 0xf1, 0x05, 0x00, 0x00
     dfa:	1c01                	addi	s8,s8,-32
     dfc:	44000007          	.4byte	0x44000007
     e00:	0008                	.2byte	0x8
     e02:	0000                	unimp
     e04:	2804                	.2byte	0x2804
     e06:	b0000007          	.4byte	0xb0000007
     e0a:	0102                	c.slli64	sp
     e0c:	0000                	unimp
     e0e:	0000                	unimp
     e10:	0600                	addi	s0,sp,768
     e12:	0000                	unimp
     e14:	0000                	unimp
     e16:	0000                	unimp
     e18:	2500                	.2byte	0x2500
     e1a:	2805                	addiw	a6,a6,1 # 44c4d <_RODATA_END_+0x33024>
     e1c:	0006                	c.slli	zero,0x1
     e1e:	0100                	addi	s0,sp,128
     e20:	0740                	addi	s0,sp,900
     e22:	0000                	unimp
     e24:	085d                	addi	a6,a6,23
     e26:	0000                	unimp
     e28:	3501                	addiw	a0,a0,-32
     e2a:	74000007          	.4byte	0x74000007
     e2e:	0008                	.2byte	0x8
     e30:	0200                	addi	s0,sp,256
     e32:	0000074b          	.4byte	0x74b
     e36:	0874                	addi	a3,sp,28
     e38:	0000                	unimp
     e3a:	0300                	addi	s0,sp,384
     e3c:	0000070b          	.4byte	0x70b
     e40:	02b6                	slli	t0,t0,0xd
     e42:	0001                	nop
     e44:	0000                	unimp
     e46:	0000                	unimp
     e48:	013c                	addi	a5,sp,136
     e4a:	0000                	unimp
     e4c:	06490e27          	.4byte	0x6490e27
     e50:	0000                	unimp
     e52:	1c01                	addi	s8,s8,-32
     e54:	8d000007          	.4byte	0x8d000007
     e58:	0008                	.2byte	0x8
     e5a:	0000                	unimp
     e5c:	2804                	.2byte	0x2804
     e5e:	dc000007          	.4byte	0xdc000007
     e62:	0102                	c.slli64	sp
     e64:	0000                	unimp
     e66:	0000                	unimp
     e68:	0400                	addi	s0,sp,512
     e6a:	0000                	unimp
     e6c:	0000                	unimp
     e6e:	0000                	unimp
     e70:	2c00                	.2byte	0x2c00
     e72:	8005                	srli	s0,s0,0x1
     e74:	0006                	c.slli	zero,0x1
     e76:	0100                	addi	s0,sp,128
     e78:	0740                	addi	s0,sp,900
     e7a:	0000                	unimp
     e7c:	08a6                	slli	a7,a7,0x9
     e7e:	0000                	unimp
     e80:	3501                	addiw	a0,a0,-32
     e82:	bb000007          	.4byte	0xbb000007
     e86:	0008                	.2byte	0x8
     e88:	0200                	addi	s0,sp,256
     e8a:	0000074b          	.4byte	0x74b
     e8e:	000008bb          	addw	a7,zero,zero
     e92:	0700                	addi	s0,sp,896
     e94:	0270                	addi	a2,sp,268
     e96:	0001                	nop
     e98:	0000                	unimp
     e9a:	0000                	unimp
     e9c:	000000db          	.4byte	0xdb
     ea0:	01029807          	.4byte	0x1029807
     ea4:	0000                	unimp
     ea6:	0000                	unimp
     ea8:	db00                	sw	s0,48(a4)
     eaa:	0000                	unimp
     eac:	1500                	addi	s0,sp,672
     eae:	02a4                	addi	s1,sp,328
     eb0:	0001                	nop
     eb2:	0000                	unimp
     eb4:	0000                	unimp
     eb6:	000000cb          	.4byte	0xcb
     eba:	06b8                	addi	a4,sp,840
     ebc:	0000                	unimp
     ebe:	0116                	slli	sp,sp,0x5
     ec0:	085a                	slli	a6,a6,0x16
     ec2:	0079                	c.nop	30
     ec4:	2008                	.2byte	0x2008
     ec6:	0824                	addi	s1,sp,24
     ec8:	2520                	.2byte	0x2520
     eca:	0700                	addi	s0,sp,896
     ecc:	02b0                	addi	a2,sp,328
     ece:	0001                	nop
     ed0:	0000                	unimp
     ed2:	0000                	unimp
     ed4:	000000db          	.4byte	0xdb
     ed8:	0102c407          	.4byte	0x102c407
     edc:	0000                	unimp
     ede:	0000                	unimp
     ee0:	db00                	sw	s0,48(a4)
     ee2:	0000                	unimp
     ee4:	1500                	addi	s0,sp,672
     ee6:	02d0                	addi	a2,sp,324
     ee8:	0001                	nop
     eea:	0000                	unimp
     eec:	0000                	unimp
     eee:	000000cb          	.4byte	0xcb
     ef2:	06f0                	addi	a2,sp,844
     ef4:	0000                	unimp
     ef6:	0116                	slli	sp,sp,0x5
     ef8:	085a                	slli	a6,a6,0x16
     efa:	0079                	c.nop	30
     efc:	2008                	.2byte	0x2008
     efe:	0824                	addi	s1,sp,24
     f00:	2520                	.2byte	0x2520
     f02:	0700                	addi	s0,sp,896
     f04:	02dc                	addi	a5,sp,324
     f06:	0001                	nop
     f08:	0000                	unimp
     f0a:	0000                	unimp
     f0c:	000000db          	.4byte	0xdb
     f10:	f21f 0102 0000      	.byte	0x1f, 0xf2, 0x02, 0x01, 0x00, 0x00
     f16:	0000                	unimp
     f18:	db00                	sw	s0,48(a4)
     f1a:	0000                	unimp
     f1c:	0000                	unimp
     f1e:	4e20                	lw	s0,88(a2)
     f20:	0002                	c.slli64	zero
     f22:	0100                	addi	s0,sp,128
     f24:	00a20a0b          	.4byte	0xa20a0b
     f28:	0000                	unimp
     f2a:	2801                	sext.w	a6,a6
     f2c:	0e000007          	.4byte	0xe000007
     f30:	01c5                	addi	gp,gp,17
     f32:	0000                	unimp
     f34:	00bf1d0b          	.4byte	0xbf1d0b
     f38:	0000                	unimp
     f3a:	2100                	.2byte	0x2100
     f3c:	0244                	addi	s1,sp,260
     f3e:	0000                	unimp
     f40:	0501                	addi	a0,a0,0
     f42:	0106                	slli	sp,sp,0x1
     f44:	0758                	addi	a4,sp,900
     f46:	0000                	unimp
     f48:	c50e                	sw	gp,136(sp)
     f4a:	0001                	nop
     f4c:	0500                	addi	s0,sp,640
     f4e:	bf1a                	.2byte	0xbf1a
     f50:	0000                	unimp
     f52:	0e00                	addi	s0,sp,784
     f54:	01da                	slli	gp,gp,0x16
     f56:	0000                	unimp
     f58:	2905                	addiw	s2,s2,1 # 2001 <ROM_BASE-0xdfff>
     f5a:	00a2                	slli	ra,ra,0x8
     f5c:	0000                	unimp
     f5e:	c122                	sw	s0,128(sp)
     f60:	0001                	nop
     f62:	0100                	addi	s0,sp,128
     f64:	07581807          	.4byte	0x7581807
     f68:	0000                	unimp
     f6a:	0c00                	addi	s0,sp,528
     f6c:	00ae                	slli	ra,ra,0xb
     f6e:	0000                	unimp
     f70:	00072823          	sw	zero,16(a4)
     f74:	5400                	lw	s0,40(s0)
     f76:	0102                	c.slli64	sp
     f78:	0000                	unimp
     f7a:	0000                	unimp
     f7c:	0400                	addi	s0,sp,512
     f7e:	0000                	unimp
     f80:	0000                	unimp
     f82:	0000                	unimp
     f84:	0100                	addi	s0,sp,128
     f86:	8e9c                	.2byte	0x8e9c
     f88:	17000007          	.4byte	0x17000007
     f8c:	0735                	addi	a4,a4,13
     f8e:	0000                	unimp
     f90:	5a01                	li	s4,-32
     f92:	00074017          	auipc	zero,0x74
     f96:	0100                	addi	s0,sp,128
     f98:	074b245b          	.4byte	0x74b245b
     f9c:	0000                	unimp
     f9e:	5a01                	li	s4,-32
     fa0:	2500                	.2byte	0x2500
     fa2:	0000070b          	.4byte	0x70b
     fa6:	0258                	addi	a4,sp,260
     fa8:	0001                	nop
     faa:	0000                	unimp
     fac:	0000                	unimp
     fae:	0004                	.2byte	0x4
     fb0:	0000                	unimp
     fb2:	0000                	unimp
     fb4:	0000                	unimp
     fb6:	9c01                	subw	s0,s0,s0
     fb8:	1c01                	addi	s8,s8,-32
     fba:	d4000007          	.4byte	0xd4000007
     fbe:	0008                	.2byte	0x8
     fc0:	0000                	unimp
     fc2:	5b00                	lw	s0,48(a4)
     fc4:	0009                	c.nop	2
     fc6:	0500                	addi	s0,sp,640
     fc8:	0100                	addi	s0,sp,128
     fca:	4808                	lw	a0,16(s0)
     fcc:	0005                	c.nop	1
     fce:	1500                	addi	s0,sp,672
     fd0:	00df 0000 f31d      	.byte	0xdf, 0x00, 0x00, 0x00, 0x1d, 0xf3
     fd6:	0000                	unimp
     fd8:	0000                	unimp
     fda:	0000                	unimp
     fdc:	ec00                	sd	s0,24(s0)
     fde:	00000103          	lb	sp,0(zero) # 0 <ROM_BASE-0x10000>
     fe2:	0000                	unimp
     fe4:	ce00                	sw	s0,24(a2)
     fe6:	00000003          	lb	zero,0(zero) # 0 <ROM_BASE-0x10000>
     fea:	0000                	unimp
     fec:	5200                	lw	s0,32(a2)
     fee:	000c                	.2byte	0xc
     ff0:	0500                	addi	s0,sp,640
     ff2:	0601                	addi	a2,a2,0
     ff4:	007a                	c.slli	zero,0x1e
     ff6:	0000                	unimp
     ff8:	5906                	lw	s2,96(sp)
     ffa:	0000                	unimp
     ffc:	0200                	addi	s0,sp,256
     ffe:	0041182b          	.4byte	0x41182b
    1002:	0000                	unimp
    1004:	0105                	addi	sp,sp,1
    1006:	7808                	ld	a0,48(s0)
    1008:	0000                	unimp
    100a:	0500                	addi	s0,sp,640
    100c:	0502                	c.slli64	a0
    100e:	015f 0000 8106      	.byte	0x5f, 0x01, 0x00, 0x00, 0x06, 0x81
    1014:	0002                	c.slli64	zero
    1016:	0200                	addi	s0,sp,256
    1018:	1939                	addi	s2,s2,-18
    101a:	0000005b          	.4byte	0x5b
    101e:	0205                	addi	tp,tp,1 # 1 <ROM_BASE-0xffff>
    1020:	0000a407          	.4byte	0xa407
    1024:	1600                	addi	s0,sp,800
    1026:	0504                	addi	s1,sp,640
    1028:	6e69                	lui	t3,0x1a
    102a:	0074                	addi	a3,sp,12
    102c:	b706                	.2byte	0xb706
    102e:	0000                	unimp
    1030:	0200                	addi	s0,sp,256
    1032:	0075194f          	.4byte	0x75194f
    1036:	0000                	unimp
    1038:	0405                	addi	s0,s0,1
    103a:	00009707          	.4byte	0x9707
    103e:	0500                	addi	s0,sp,640
    1040:	0508                	addi	a0,sp,640
    1042:	0390                	addi	a2,sp,448
    1044:	0000                	unimp
    1046:	0805                	addi	a6,a6,1
    1048:	00009207          	.4byte	0x9207
    104c:	0600                	addi	s0,sp,768
    104e:	0000005b          	.4byte	0x5b
    1052:	35131803          	lh	a6,849(t1)
    1056:	0000                	unimp
    1058:	1700                	addi	s0,sp,928
    105a:	008a                	slli	ra,ra,0x2
    105c:	0000                	unimp
    105e:	8306                	mv	t1,ra
    1060:	0002                	c.slli64	zero
    1062:	0300                	addi	s0,sp,384
    1064:	1424                	addi	s1,sp,552
    1066:	0000004f          	.4byte	0x4f
    106a:	b906                	.2byte	0xb906
    106c:	0000                	unimp
    106e:	0300                	addi	s0,sp,384
    1070:	1430                	addi	a2,sp,552
    1072:	0069                	c.nop	26
    1074:	0000                	unimp
    1076:	2d10                	.2byte	0x2d10
    1078:	0002                	c.slli64	zero
    107a:	1900                	addi	s0,sp,176
    107c:	6205                	lui	tp,0x1
    107e:	0000                	unimp
    1080:	d200                	sw	s0,32(a2)
    1082:	0000                	unimp
    1084:	0700                	addi	s0,sp,896
    1086:	00d2                	slli	ra,ra,0x14
    1088:	0000                	unimp
    108a:	0000a707          	.4byte	0xa707
    108e:	0700                	addi	s0,sp,896
    1090:	00d2                	slli	ra,ra,0x14
    1092:	0000                	unimp
    1094:	0c00                	addi	s0,sp,528
    1096:	008a                	slli	ra,ra,0x2
    1098:	0000                	unimp
    109a:	5718                	lw	a4,40(a4)
    109c:	0002                	c.slli64	zero
    109e:	0500                	addi	s0,sp,640
    10a0:	0614                	addi	a3,sp,768
    10a2:	00e5                	addi	ra,ra,25
    10a4:	0000                	unimp
    10a6:	0019                	c.nop	6
    10a8:	e511                	bnez	a0,10b4 <ROM_BASE-0xef4c>
    10aa:	0001                	nop
    10ac:	1b00                	addi	s0,sp,432
    10ae:	00f5                	addi	ra,ra,29
    10b0:	0000                	unimp
    10b2:	00008a07          	.4byte	0x8a07
    10b6:	0000                	unimp
    10b8:	6d11                	lui	s10,0x4
    10ba:	0000                	unimp
    10bc:	1500                	addi	s0,sp,672
    10be:	0105                	addi	sp,sp,1
    10c0:	0000                	unimp
    10c2:	00010507          	.4byte	0x10507
    10c6:	0000                	unimp
    10c8:	110c                	addi	a1,sp,160
    10ca:	0001                	nop
    10cc:	0500                	addi	s0,sp,640
    10ce:	0801                	addi	a6,a6,0
    10d0:	0081                	addi	ra,ra,0
    10d2:	0000                	unimp
    10d4:	0a1a                	slli	s4,s4,0x6
    10d6:	0001                	nop
    10d8:	1000                	addi	s0,sp,32
    10da:	0224                	addi	s1,sp,264
    10dc:	0000                	unimp
    10de:	0916                	slli	s2,s2,0x5
    10e0:	008a                	slli	ra,ra,0x2
    10e2:	0000                	unimp
    10e4:	0000012b          	.4byte	0x12b
    10e8:	00008a07          	.4byte	0x8a07
    10ec:	0000                	unimp
    10ee:	8c0d                	sub	s0,s0,a1
    10f0:	0002                	c.slli64	zero
    10f2:	8e00                	.2byte	0x8e00
    10f4:	6205                	lui	tp,0x1
    10f6:	0000                	unimp
    10f8:	6a00                	ld	s0,16(a2)
    10fa:	0106                	slli	sp,sp,0x1
    10fc:	0000                	unimp
    10fe:	0000                	unimp
    1100:	5000                	lw	s0,32(s0)
    1102:	0001                	nop
    1104:	0000                	unimp
    1106:	0000                	unimp
    1108:	0100                	addi	s0,sp,128
    110a:	fd9c                	sd	a5,56(a1)
    110c:	08000003          	lb	zero,128(zero) # 80 <ROM_BASE-0xff80>
    1110:	7364                	ld	s1,224(a4)
    1112:	0074                	addi	a3,sp,12
    1114:	138e                	slli	t2,t2,0x23
    1116:	03fd                	addi	t2,t2,31
    1118:	0000                	unimp
    111a:	090a                	slli	s2,s2,0x2
    111c:	0000                	unimp
    111e:	ab0e                	.2byte	0xab0e
    1120:	0002                	c.slli64	zero
    1122:	8e00                	.2byte	0x8e00
    1124:	a721                	j	182c <ROM_BASE-0xe7d4>
    1126:	0000                	unimp
    1128:	7000                	ld	s0,32(s0)
    112a:	0009                	c.nop	2
    112c:	0e00                	addi	s0,sp,784
    112e:	0314                	addi	a3,sp,384
    1130:	0000                	unimp
    1132:	338e                	.2byte	0x338e
    1134:	000000a7          	.4byte	0xa7
    1138:	099a                	slli	s3,s3,0x6
    113a:	0000                	unimp
    113c:	7004                	ld	s1,32(s0)
    113e:	9000                	.2byte	0x9000
    1140:	0003ff17          	auipc	t5,0x3f
    1144:	c400                	sw	s0,8(s0)
    1146:	0009                	c.nop	2
    1148:	0400                	addi	s0,sp,512
    114a:	0069                	c.nop	26
    114c:	0a91                	addi	s5,s5,4
    114e:	007c                	addi	a5,sp,12
    1150:	0000                	unimp
    1152:	0a11                	addi	s4,s4,4
    1154:	0000                	unimp
    1156:	7204                	ld	s1,32(a2)
    1158:	09920063          	beq	tp,s9,11d8 <ROM_BASE-0xee28>
    115c:	0062                	c.slli	zero,0x18
    115e:	0000                	unimp
    1160:	0a38                	addi	a4,sp,280
    1162:	0000                	unimp
    1164:	6612                	ld	a2,256(sp)
    1166:	0066                	c.slli	zero,0x19
    1168:	0494                	addi	a3,sp,576
    116a:	0004                	.2byte	0x4
    116c:	0300                	addi	s0,sp,384
    116e:	b091                	j	9b2 <ROM_BASE-0xf64e>
    1170:	047e                	slli	s0,s0,0x1f
    1172:	00637263          	bgeu	t1,t1,1176 <ROM_BASE-0xee8a>
    1176:	0d98                	addi	a4,sp,720
    1178:	008a                	slli	ra,ra,0x2
    117a:	0000                	unimp
    117c:	0a88                	addi	a0,sp,336
    117e:	0000                	unimp
    1180:	430a                	lw	t1,128(sp)
    1182:	d4000003          	lb	zero,-704(zero) # fffffffffffffd40 <_RODATA_END_+0xfffffffffffee117>
    1186:	0001                	nop
    1188:	0400                	addi	s0,sp,512
    118a:	006a                	c.slli	zero,0x1a
    118c:	0e95                	addi	t4,t4,5
    118e:	0062                	c.slli	zero,0x18
    1190:	0000                	unimp
    1192:	0afc                	addi	a5,sp,348
    1194:	0000                	unimp
    1196:	1300                	addi	s0,sp,416
    1198:	0770                	addi	a2,sp,908
    119a:	0001                	nop
    119c:	0000                	unimp
    119e:	0000                	unimp
    11a0:	0020                	addi	s0,sp,8
    11a2:	0000                	unimp
    11a4:	0000                	unimp
    11a6:	0000                	unimp
    11a8:	025f 0000 6a04      	.byte	0x5f, 0x02, 0x00, 0x00, 0x04, 0x6a
    11ae:	a100                	.2byte	0xa100
    11b0:	6212                	ld	tp,256(sp)
    11b2:	0000                	unimp
    11b4:	3900                	.2byte	0x3900
    11b6:	0200000b          	.4byte	0x200000b
    11ba:	0774                	addi	a3,sp,908
    11bc:	0001                	nop
    11be:	0000                	unimp
    11c0:	0000                	unimp
    11c2:	08f5                	addi	a7,a7,29 # 401d <ROM_BASE-0xbfe3>
    11c4:	0000                	unimp
    11c6:	7802                	ld	a6,32(sp)
    11c8:	00000107          	.4byte	0x107
    11cc:	0000                	unimp
    11ce:	f500                	sd	s0,40(a0)
    11d0:	0008                	.2byte	0x8
    11d2:	0200                	addi	s0,sp,256
    11d4:	077c                	addi	a5,sp,908
    11d6:	0001                	nop
    11d8:	0000                	unimp
    11da:	0000                	unimp
    11dc:	08f5                	addi	a7,a7,29
    11de:	0000                	unimp
    11e0:	8002                	.2byte	0x8002
    11e2:	00000107          	.4byte	0x107
    11e6:	0000                	unimp
    11e8:	f500                	sd	s0,40(a0)
    11ea:	0008                	.2byte	0x8
    11ec:	0200                	addi	s0,sp,256
    11ee:	0784                	addi	s1,sp,960
    11f0:	0001                	nop
    11f2:	0000                	unimp
    11f4:	0000                	unimp
    11f6:	08f5                	addi	a7,a7,29
    11f8:	0000                	unimp
    11fa:	8802                	jr	a6
    11fc:	00000107          	.4byte	0x107
    1200:	0000                	unimp
    1202:	f500                	sd	s0,40(a0)
    1204:	0008                	.2byte	0x8
    1206:	0200                	addi	s0,sp,256
    1208:	078c                	addi	a1,sp,960
    120a:	0001                	nop
    120c:	0000                	unimp
    120e:	0000                	unimp
    1210:	08f5                	addi	a7,a7,29
    1212:	0000                	unimp
    1214:	9002                	ebreak
    1216:	00000107          	.4byte	0x107
    121a:	0000                	unimp
    121c:	f500                	sd	s0,40(a0)
    121e:	0008                	.2byte	0x8
    1220:	0000                	unimp
    1222:	660a                	ld	a2,128(sp)
    1224:	38000003          	lb	zero,896(zero) # 380 <ROM_BASE-0xfc80>
    1228:	04000003          	lb	zero,64(zero) # 40 <ROM_BASE-0xffc0>
    122c:	00637263          	bgeu	t1,t1,1230 <ROM_BASE-0xedd0>
    1230:	12a9                	addi	t0,t0,-22
    1232:	0000009b          	sext.w	ra,zero
    1236:	0bee                	slli	s7,s7,0x1b
    1238:	0000                	unimp
    123a:	0002700f          	.4byte	0x2700f
    123e:	a900                	.2byte	0xa900
    1240:	00009b17          	auipc	s6,0x9
    1244:	0200                	addi	s0,sp,256
    1246:	000c                	.2byte	0xc
    1248:	0400                	addi	s0,sp,512
    124a:	006e                	c.slli	zero,0x1b
    124c:	0eaa                	slli	t4,t4,0xa
    124e:	007c                	addi	a5,sp,12
    1250:	0000                	unimp
    1252:	0c31                	addi	s8,s8,12
    1254:	0000                	unimp
    1256:	0106f613          	andi	a2,a3,16
    125a:	0000                	unimp
    125c:	0000                	unimp
    125e:	2c00                	.2byte	0x2c00
    1260:	0000                	unimp
    1262:	0000                	unimp
    1264:	0000                	unimp
    1266:	0300                	addi	s0,sp,384
    1268:	0f000003          	lb	zero,240(zero) # f0 <ROM_BASE-0xff10>
    126c:	000002cf          	.4byte	0x2cf
    1270:	11b2                	slli	gp,gp,0x2c
    1272:	0062                	c.slli	zero,0x18
    1274:	0000                	unimp
    1276:	0c76                	slli	s8,s8,0x1d
    1278:	0000                	unimp
    127a:	890a                	mv	s2,sp
    127c:	e2000003          	lb	zero,-480(zero) # fffffffffffffe20 <_RODATA_END_+0xfffffffffffee1f7>
    1280:	0002                	c.slli64	zero
    1282:	0400                	addi	s0,sp,512
    1284:	0069                	c.nop	26
    1286:	16b4                	addi	a3,sp,872
    1288:	0062                	c.slli	zero,0x18
    128a:	0000                	unimp
    128c:	0ca1                	addi	s9,s9,8
    128e:	0000                	unimp
    1290:	0107180b          	.4byte	0x107180b
    1294:	0000                	unimp
    1296:	0000                	unimp
    1298:	1400                	addi	s0,sp,544
    129a:	0004                	.2byte	0x4
    129c:	0100                	addi	s0,sp,128
    129e:	5a01                	li	s4,-32
    12a0:	7802                	ld	a6,32(sp)
    12a2:	0000                	unimp
    12a4:	0b00                	addi	s0,sp,400
    12a6:	0702                	c.slli64	a4
    12a8:	0001                	nop
    12aa:	0000                	unimp
    12ac:	0000                	unimp
    12ae:	000000b3          	add	ra,zero,zero
    12b2:	0101                	addi	sp,sp,0
    12b4:	025a                	slli	tp,tp,0x16
    12b6:	0072                	c.slli	zero,0x1c
    12b8:	0101                	addi	sp,sp,0
    12ba:	4008025b          	.4byte	0x4008025b
    12be:	0101                	addi	sp,sp,0
    12c0:	025c                	addi	a5,sp,260
    12c2:	0079                	c.nop	30
    12c4:	0000                	unimp
    12c6:	ec02                	sd	zero,24(sp)
    12c8:	0106                	slli	sp,sp,0x1
    12ca:	0000                	unimp
    12cc:	0000                	unimp
    12ce:	f500                	sd	s0,40(a0)
    12d0:	0008                	.2byte	0x8
    12d2:	0200                	addi	s0,sp,256
    12d4:	072a                	slli	a4,a4,0xa
    12d6:	0001                	nop
    12d8:	0000                	unimp
    12da:	0000                	unimp
    12dc:	08f5                	addi	a7,a7,29
    12de:	0000                	unimp
    12e0:	3802                	.2byte	0x3802
    12e2:	00000107          	.4byte	0x107
    12e6:	0000                	unimp
    12e8:	f500                	sd	s0,40(a0)
    12ea:	0008                	.2byte	0x8
    12ec:	0200                	addi	s0,sp,256
    12ee:	0758                	addi	a4,sp,900
    12f0:	0001                	nop
    12f2:	0000                	unimp
    12f4:	0000                	unimp
    12f6:	00f5                	addi	ra,ra,29
    12f8:	0000                	unimp
    12fa:	0300                	addi	s0,sp,384
    12fc:	06aa                	slli	a3,a3,0xa
    12fe:	0001                	nop
    1300:	0000                	unimp
    1302:	0000                	unimp
    1304:	00000453          	.4byte	0x453
    1308:	0358                	addi	a4,sp,388
    130a:	0000                	unimp
    130c:	0101                	addi	sp,sp,0
    130e:	015a                	slli	sp,sp,0x16
    1310:	0130                	addi	a2,sp,136
    1312:	5b01                	li	s6,-32
    1314:	7805                	lui	a6,0xfffe1
    1316:	0900                	addi	s0,sp,144
    1318:	24e8                	.2byte	0x24e8
    131a:	0300                	addi	s0,sp,384
    131c:	06b6                	slli	a3,a3,0xd
    131e:	0001                	nop
    1320:	0000                	unimp
    1322:	0000                	unimp
    1324:	00000453          	.4byte	0x453
    1328:	0372                	slli	t1,t1,0x1c
    132a:	0000                	unimp
    132c:	0101                	addi	sp,sp,0
    132e:	0078045b          	.4byte	0x78045b
    1332:	2540                	.2byte	0x2540
    1334:	0300                	addi	s0,sp,384
    1336:	06c2                	slli	a3,a3,0x10
    1338:	0001                	nop
    133a:	0000                	unimp
    133c:	0000                	unimp
    133e:	00000453          	.4byte	0x453
    1342:	038c                	addi	a1,sp,448
    1344:	0000                	unimp
    1346:	0101                	addi	sp,sp,0
    1348:	0078045b          	.4byte	0x78045b
    134c:	2538                	.2byte	0x2538
    134e:	0300                	addi	s0,sp,384
    1350:	06ca                	slli	a3,a3,0x12
    1352:	0001                	nop
    1354:	0000                	unimp
    1356:	0000                	unimp
    1358:	00000453          	.4byte	0x453
    135c:	03a4                	addi	s1,sp,456
    135e:	0000                	unimp
    1360:	0101                	addi	sp,sp,0
    1362:	0078025b          	.4byte	0x78025b
    1366:	0300                	addi	s0,sp,384
    1368:	06de                	slli	a3,a3,0x17
    136a:	0001                	nop
    136c:	0000                	unimp
    136e:	0000                	unimp
    1370:	000007db          	.4byte	0x7db
    1374:	03c1                	addi	t2,t2,16
    1376:	0000                	unimp
    1378:	0101                	addi	sp,sp,0
    137a:	015a                	slli	sp,sp,0x16
    137c:	0142                	slli	sp,sp,0x10
    137e:	5b01                	li	s6,-32
    1380:	7802                	ld	a6,32(sp)
    1382:	0000                	unimp
    1384:	01076a03          	lwu	s4,16(a4)
    1388:	0000                	unimp
    138a:	0000                	unimp
    138c:	db00                	sw	s0,48(a4)
    138e:	e2000007          	.4byte	0xe2000007
    1392:	01000003          	lb	zero,16(zero) # 10 <ROM_BASE-0xfff0>
    1396:	5a01                	li	s4,-32
    1398:	3c01                	addiw	s8,s8,-32
    139a:	0101                	addi	sp,sp,0
    139c:	0130015b          	.4byte	0x130015b
    13a0:	5c01                	li	s8,-32
    13a2:	3101                	addiw	sp,sp,-32
    13a4:	0200                	addi	s0,sp,256
    13a6:	076e                	slli	a4,a4,0x1b
    13a8:	0001                	nop
    13aa:	0000                	unimp
    13ac:	0000                	unimp
    13ae:	08f5                	addi	a7,a7,29
    13b0:	0000                	unimp
    13b2:	9c02                	jalr	s8
    13b4:	00000107          	.4byte	0x107
    13b8:	0000                	unimp
    13ba:	f500                	sd	s0,40(a0)
    13bc:	0000                	unimp
    13be:	0000                	unimp
    13c0:	960c081b          	addiw	a6,s8,-1696
    13c4:	0000                	unimp
    13c6:	1c00                	addi	s0,sp,560
    13c8:	008a                	slli	ra,ra,0x2
    13ca:	0000                	unimp
    13cc:	0414                	addi	a3,sp,512
    13ce:	0000                	unimp
    13d0:	831d                	srli	a4,a4,0x7
    13d2:	0000                	unimp
    13d4:	7f00                	ld	s0,56(a4)
    13d6:	0d00                	addi	s0,sp,656
    13d8:	0260                	addi	s0,sp,268
    13da:	0000                	unimp
    13dc:	009b0a83          	lb	s5,9(s6) # a249 <ROM_BASE-0x5db7>
    13e0:	0000                	unimp
    13e2:	0630                	addi	a2,sp,776
    13e4:	0001                	nop
    13e6:	0000                	unimp
    13e8:	0000                	unimp
    13ea:	003a                	c.slli	zero,0xe
    13ec:	0000                	unimp
    13ee:	0000                	unimp
    13f0:	0000                	unimp
    13f2:	9c01                	subw	s0,s0,s0
    13f4:	00000453          	.4byte	0x453
    13f8:	6308                	ld	a0,0(a4)
    13fa:	6372                	ld	t1,280(sp)
    13fc:	8300                	.2byte	0x8300
    13fe:	9b19                	andi	a4,a4,-26
    1400:	0000                	unimp
    1402:	c900                	sw	s0,16(a0)
    1404:	000c                	.2byte	0xc
    1406:	1e00                	addi	s0,sp,816
    1408:	02bc                	addi	a5,sp,328
    140a:	0000                	unimp
    140c:	8301                	c.srli64	a4
    140e:	8a26                	mv	s4,s1
    1410:	0000                	unimp
    1412:	0100                	addi	s0,sp,128
    1414:	c11f005b          	.4byte	0xc11f005b
    1418:	0002                	c.slli64	zero
    141a:	0100                	addi	s0,sp,128
    141c:	097a                	slli	s2,s2,0x1e
    141e:	008a                	slli	ra,ra,0x2
    1420:	0000                	unimp
    1422:	8801                	andi	s0,s0,0
    1424:	0004                	.2byte	0x4
    1426:	2000                	.2byte	0x2000
    1428:	02e2                	slli	t0,t0,0x18
    142a:	0000                	unimp
    142c:	7a01                	lui	s4,0xfffe0
    142e:	8a16                	mv	s4,t0
    1430:	0000                	unimp
    1432:	2100                	.2byte	0x2100
    1434:	6e69                	lui	t3,0x1a
    1436:	0100                	addi	s0,sp,128
    1438:	247a                	.2byte	0x247a
    143a:	008a                	slli	ra,ra,0x2
    143c:	0000                	unimp
    143e:	6622                	ld	a2,8(sp)
    1440:	0002                	c.slli64	zero
    1442:	0100                	addi	s0,sp,128
    1444:	0d7d                	addi	s10,s10,31 # 401f <ROM_BASE-0xbfe1>
    1446:	008a                	slli	ra,ra,0x2
    1448:	0000                	unimp
    144a:	0900                	addi	s0,sp,144
    144c:	0000029b          	sext.w	t0,zero
    1450:	00620563          	beq	tp,t1,145a <ROM_BASE-0xeba6>
    1454:	0000                	unimp
    1456:	05ca                	slli	a1,a1,0x12
    1458:	0001                	nop
    145a:	0000                	unimp
    145c:	0000                	unimp
    145e:	0044                	addi	s1,sp,4
    1460:	0000                	unimp
    1462:	0000                	unimp
    1464:	0000                	unimp
    1466:	9c01                	subw	s0,s0,s0
    1468:	0000050f          	.4byte	0x50f
    146c:	200a                	.2byte	0x200a
    146e:	cd000003          	lb	zero,-816(zero) # fffffffffffffcd0 <_RODATA_END_+0xfffffffffffee0a7>
    1472:	0004                	.2byte	0x4
    1474:	0400                	addi	s0,sp,512
    1476:	0069                	c.nop	26
    1478:	0e6e                	slli	t3,t3,0x1b
    147a:	0062                	c.slli	zero,0x18
    147c:	0000                	unimp
    147e:	0d30                	addi	a2,sp,664
    1480:	0000                	unimp
    1482:	e802                	sd	zero,16(sp)
    1484:	0105                	addi	sp,sp,1
    1486:	0000                	unimp
    1488:	0000                	unimp
    148a:	f500                	sd	s0,40(a0)
    148c:	0008                	.2byte	0x8
    148e:	0000                	unimp
    1490:	d402                	sw	zero,40(sp)
    1492:	0105                	addi	sp,sp,1
    1494:	0000                	unimp
    1496:	0000                	unimp
    1498:	d700                	sw	s0,40(a4)
    149a:	0000                	unimp
    149c:	0200                	addi	s0,sp,256
    149e:	05e0                	addi	s0,sp,716
    14a0:	0001                	nop
    14a2:	0000                	unimp
    14a4:	0000                	unimp
    14a6:	00f5                	addi	ra,ra,29
    14a8:	0000                	unimp
    14aa:	ee02                	sd	zero,280(sp)
    14ac:	0105                	addi	sp,sp,1
    14ae:	0000                	unimp
    14b0:	0000                	unimp
    14b2:	c600                	sw	s0,8(a2)
    14b4:	0006                	c.slli	zero,0x1
    14b6:	0200                	addi	s0,sp,256
    14b8:	05f6                	slli	a1,a1,0x1d
    14ba:	0001                	nop
    14bc:	0000                	unimp
    14be:	0000                	unimp
    14c0:	0608                	addi	a0,sp,768
    14c2:	0000                	unimp
    14c4:	fe02                	sd	zero,312(sp)
    14c6:	0105                	addi	sp,sp,1
    14c8:	0000                	unimp
    14ca:	0000                	unimp
    14cc:	0f00                	addi	s0,sp,912
    14ce:	0005                	c.nop	1
    14d0:	0000                	unimp
    14d2:	fc09                	bnez	s0,13ec <ROM_BASE-0xec14>
    14d4:	0002                	c.slli64	zero
    14d6:	5600                	lw	s0,40(a2)
    14d8:	6205                	lui	tp,0x1
    14da:	0000                	unimp
    14dc:	8200                	.2byte	0x8200
    14de:	0105                	addi	sp,sp,1
    14e0:	0000                	unimp
    14e2:	0000                	unimp
    14e4:	4800                	lw	s0,16(s0)
    14e6:	0000                	unimp
    14e8:	0000                	unimp
    14ea:	0000                	unimp
    14ec:	0100                	addi	s0,sp,128
    14ee:	959c                	.2byte	0x959c
    14f0:	0005                	c.nop	1
    14f2:	0400                	addi	s0,sp,512
    14f4:	0072                	c.slli	zero,0x1c
    14f6:	0d58                	addi	a4,sp,660
    14f8:	008a                	slli	ra,ra,0x2
    14fa:	0000                	unimp
    14fc:	0d5c                	addi	a5,sp,660
    14fe:	0000                	unimp
    1500:	9002                	ebreak
    1502:	0105                	addi	sp,sp,1
    1504:	0000                	unimp
    1506:	0000                	unimp
    1508:	9500                	.2byte	0x9500
    150a:	0005                	c.nop	1
    150c:	0300                	addi	s0,sp,384
    150e:	05a0                	addi	s0,sp,712
    1510:	0001                	nop
    1512:	0000                	unimp
    1514:	0000                	unimp
    1516:	000007db          	.4byte	0x7db
    151a:	0000056f          	jal	a0,151a <ROM_BASE-0xeae6>
    151e:	0101                	addi	sp,sp,0
    1520:	025a                	slli	tp,tp,0x16
    1522:	2908                	.2byte	0x2908
    1524:	0101                	addi	sp,sp,0
    1526:	4a40035b          	.4byte	0x4a40035b
    152a:	0124                	addi	s1,sp,136
    152c:	5c01                	li	s8,-32
    152e:	0802                	c.slli64	a6
    1530:	b0030077          	.4byte	0xb0030077
    1534:	0105                	addi	sp,sp,1
    1536:	0000                	unimp
    1538:	0000                	unimp
    153a:	4700                	lw	s0,8(a4)
    153c:	87000007          	.4byte	0x87000007
    1540:	0005                	c.nop	1
    1542:	0100                	addi	s0,sp,128
    1544:	5b01                	li	s6,-32
    1546:	7802                	ld	a6,32(sp)
    1548:	0000                	unimp
    154a:	b402                	.2byte	0xb402
    154c:	0105                	addi	sp,sp,1
    154e:	0000                	unimp
    1550:	0000                	unimp
    1552:	f500                	sd	s0,40(a0)
    1554:	0008                	.2byte	0x8
    1556:	0000                	unimp
    1558:	b309                	j	125a <ROM_BASE-0xeda6>
    155a:	0002                	c.slli64	zero
    155c:	4e00                	lw	s0,24(a2)
    155e:	6205                	lui	tp,0x1
    1560:	0000                	unimp
    1562:	4800                	lw	s0,16(s0)
    1564:	0105                	addi	sp,sp,1
    1566:	0000                	unimp
    1568:	0000                	unimp
    156a:	3a00                	.2byte	0x3a00
    156c:	0000                	unimp
    156e:	0000                	unimp
    1570:	0000                	unimp
    1572:	0100                	addi	s0,sp,128
    1574:	089c                	addi	a5,sp,80
    1576:	0006                	c.slli	zero,0x1
    1578:	0400                	addi	s0,sp,512
    157a:	0072                	c.slli	zero,0x1c
    157c:	0d50                	addi	a2,sp,660
    157e:	008a                	slli	ra,ra,0x2
    1580:	0000                	unimp
    1582:	0d70                	addi	a2,sp,668
    1584:	0000                	unimp
    1586:	01055c03          	lhu	s8,16(a0)
    158a:	0000                	unimp
    158c:	0000                	unimp
    158e:	db00                	sw	s0,48(a4)
    1590:	e6000007          	.4byte	0xe6000007
    1594:	0005                	c.nop	1
    1596:	0100                	addi	s0,sp,128
    1598:	5a01                	li	s4,-32
    159a:	0802                	c.slli64	a6
    159c:	5b010137          	lui	sp,0x5b010
    15a0:	3001                	.2byte	0x3001
    15a2:	0101                	addi	sp,sp,0 # 5b010000 <_RODATA_END_+0x5affe3d7>
    15a4:	025c                	addi	a5,sp,260
    15a6:	6508                	ld	a0,8(a0)
    15a8:	0200                	addi	s0,sp,256
    15aa:	0562                	slli	a0,a0,0x18
    15ac:	0001                	nop
    15ae:	0000                	unimp
    15b0:	0000                	unimp
    15b2:	08f5                	addi	a7,a7,29
    15b4:	0000                	unimp
    15b6:	0105700b          	.4byte	0x105700b
    15ba:	0000                	unimp
    15bc:	0000                	unimp
    15be:	4700                	lw	s0,8(a4)
    15c0:	01000007          	.4byte	0x1000007
    15c4:	5b01                	li	s6,-32
    15c6:	7802                	ld	a6,32(sp)
    15c8:	0000                	unimp
    15ca:	0900                	addi	s0,sp,144
    15cc:	0306                	slli	t1,t1,0x1
    15ce:	0000                	unimp
    15d0:	0541                	addi	a0,a0,16
    15d2:	0062                	c.slli	zero,0x18
    15d4:	0000                	unimp
    15d6:	04ee                	slli	s1,s1,0x1b
    15d8:	0001                	nop
    15da:	0000                	unimp
    15dc:	0000                	unimp
    15de:	005a                	c.slli	zero,0x16
    15e0:	0000                	unimp
    15e2:	0000                	unimp
    15e4:	0000                	unimp
    15e6:	9c01                	subw	s0,s0,s0
    15e8:	06c6                	slli	a3,a3,0x11
    15ea:	0000                	unimp
    15ec:	7204                	ld	s1,32(a2)
    15ee:	0031                	c.nop	12
    15f0:	008a0d43          	.4byte	0x8a0d43
    15f4:	0000                	unimp
    15f6:	0d84                	addi	s1,sp,720
    15f8:	0000                	unimp
    15fa:	7204                	ld	s1,32(a2)
    15fc:	0034                	addi	a3,sp,8
    15fe:	0d46                	slli	s10,s10,0x11
    1600:	008a                	slli	ra,ra,0x2
    1602:	0000                	unimp
    1604:	0d98                	addi	a4,sp,720
    1606:	0000                	unimp
    1608:	7204                	ld	s1,32(a2)
    160a:	0035                	c.nop	13
    160c:	008a0d47          	.4byte	0x8a0d47
    1610:	0000                	unimp
    1612:	0dac                	addi	a1,sp,728
    1614:	0000                	unimp
    1616:	01050603          	lb	a2,16(a0)
    161a:	0000                	unimp
    161c:	0000                	unimp
    161e:	db00                	sw	s0,48(a4)
    1620:	77000007          	.4byte	0x77000007
    1624:	0006                	c.slli	zero,0x1
    1626:	0100                	addi	s0,sp,128
    1628:	5a01                	li	s4,-32
    162a:	3801                	addiw	a6,a6,-32 # fffffffffffe0fe0 <_RODATA_END_+0xfffffffffffcf3b7>
    162c:	0101                	addi	sp,sp,0
    162e:	aa0a035b          	.4byte	0xaa0a035b
    1632:	0101                	addi	sp,sp,0
    1634:	5c01                	li	s8,-32
    1636:	0902                	c.slli64	s2
    1638:	0c020087          	.4byte	0xc020087
    163c:	0105                	addi	sp,sp,1
    163e:	0000                	unimp
    1640:	0000                	unimp
    1642:	f500                	sd	s0,40(a0)
    1644:	0008                	.2byte	0x8
    1646:	0200                	addi	s0,sp,256
    1648:	0510                	addi	a2,sp,640
    164a:	0001                	nop
    164c:	0000                	unimp
    164e:	0000                	unimp
    1650:	08f5                	addi	a7,a7,29
    1652:	0000                	unimp
    1654:	1402                	slli	s0,s0,0x20
    1656:	0105                	addi	sp,sp,1
    1658:	0000                	unimp
    165a:	0000                	unimp
    165c:	f500                	sd	s0,40(a0)
    165e:	0008                	.2byte	0x8
    1660:	0200                	addi	s0,sp,256
    1662:	051a                	slli	a0,a0,0x6
    1664:	0001                	nop
    1666:	0000                	unimp
    1668:	0000                	unimp
    166a:	08f5                	addi	a7,a7,29
    166c:	0000                	unimp
    166e:	2002                	.2byte	0x2002
    1670:	0105                	addi	sp,sp,1
    1672:	0000                	unimp
    1674:	0000                	unimp
    1676:	f500                	sd	s0,40(a0)
    1678:	0008                	.2byte	0x8
    167a:	0200                	addi	s0,sp,256
    167c:	0524                	addi	s1,sp,648
    167e:	0001                	nop
    1680:	0000                	unimp
    1682:	0000                	unimp
    1684:	08f5                	addi	a7,a7,29
    1686:	0000                	unimp
    1688:	0900                	addi	s0,sp,144
    168a:	02f4                	addi	a3,sp,332
    168c:	0000                	unimp
    168e:	0531                	addi	a0,a0,12
    1690:	0062                	c.slli	zero,0x18
    1692:	0000                	unimp
    1694:	04a2                	slli	s1,s1,0x8
    1696:	0001                	nop
    1698:	0000                	unimp
    169a:	0000                	unimp
    169c:	004c                	addi	a1,sp,4
    169e:	0000                	unimp
    16a0:	0000                	unimp
    16a2:	0000                	unimp
    16a4:	9c01                	subw	s0,s0,s0
    16a6:	00000747          	.4byte	0x747
    16aa:	0002a30f          	.4byte	0x2a30f
    16ae:	3300                	.2byte	0x3300
    16b0:	6209                	lui	tp,0x2
    16b2:	0000                	unimp
    16b4:	c000                	sw	s0,0(s0)
    16b6:	000d                	c.nop	3
    16b8:	0400                	addi	s0,sp,512
    16ba:	0072                	c.slli	zero,0x1c
    16bc:	0d34                	addi	a3,sp,664
    16be:	008a                	slli	ra,ra,0x2
    16c0:	0000                	unimp
    16c2:	0dea                	slli	s11,s11,0x1a
    16c4:	0000                	unimp
    16c6:	0104c003          	lbu	zero,16(s1)
    16ca:	0000                	unimp
    16cc:	0000                	unimp
    16ce:	db00                	sw	s0,48(a4)
    16d0:	25000007          	.4byte	0x25000007
    16d4:	01000007          	.4byte	0x1000007
    16d8:	5a01                	li	s4,-32
    16da:	3001                	.2byte	0x3001
    16dc:	0101                	addi	sp,sp,0
    16de:	0130015b          	.4byte	0x130015b
    16e2:	5c01                	li	s8,-32
    16e4:	0902                	c.slli64	s2
    16e6:	0095                	addi	ra,ra,5
    16e8:	c802                	sw	zero,16(sp)
    16ea:	0104                	addi	s1,sp,128
    16ec:	0000                	unimp
    16ee:	0000                	unimp
    16f0:	f500                	sd	s0,40(a0)
    16f2:	0008                	.2byte	0x8
    16f4:	0b00                	addi	s0,sp,400
    16f6:	04dc                	addi	a5,sp,580
    16f8:	0001                	nop
    16fa:	0000                	unimp
    16fc:	0000                	unimp
    16fe:	00000747          	.4byte	0x747
    1702:	0101                	addi	sp,sp,0
    1704:	0082025b          	.4byte	0x82025b
    1708:	0000                	unimp
    170a:	0002e723          	.4byte	0x2e723
    170e:	0100                	addi	s0,sp,128
    1710:	0628                	addi	a0,sp,776
    1712:	0460                	addi	s0,sp,524
    1714:	0001                	nop
    1716:	0000                	unimp
    1718:	0000                	unimp
    171a:	0042                	c.slli	zero,0x10
    171c:	0000                	unimp
    171e:	0000                	unimp
    1720:	0000                	unimp
    1722:	9c01                	subw	s0,s0,s0
    1724:	000007db          	.4byte	0x7db
    1728:	6308                	ld	a0,0(a4)
    172a:	646d                	lui	s0,0x1b
    172c:	2800                	.2byte	0x2800
    172e:	051f 0001 2600      	.byte	0x1f, 0x05, 0x01, 0x00, 0x00, 0x26
    1734:	000e                	c.slli	zero,0x3
    1736:	0e00                	addi	s0,sp,784
    1738:	02c6                	slli	t0,t0,0x11
    173a:	0000                	unimp
    173c:	2c28                	.2byte	0x2c28
    173e:	008a                	slli	ra,ra,0x2
    1740:	0000                	unimp
    1742:	00000e63          	beqz	zero,175e <ROM_BASE-0xe8a2>
    1746:	7802                	ld	a6,32(sp)
    1748:	0104                	addi	s1,sp,128
    174a:	0000                	unimp
    174c:	0000                	unimp
    174e:	f500                	sd	s0,40(a0)
    1750:	0000                	unimp
    1752:	0300                	addi	s0,sp,384
    1754:	047e                	slli	s0,s0,0x1f
    1756:	0001                	nop
    1758:	0000                	unimp
    175a:	0000                	unimp
    175c:	00f5                	addi	ra,ra,29
    175e:	0000                	unimp
    1760:	07a8                	addi	a0,sp,968
    1762:	0000                	unimp
    1764:	0101                	addi	sp,sp,0
    1766:	025a                	slli	tp,tp,0x16
    1768:	0079                	c.nop	30
    176a:	0200                	addi	s0,sp,256
    176c:	048a                	slli	s1,s1,0x2
    176e:	0001                	nop
    1770:	0000                	unimp
    1772:	0000                	unimp
    1774:	00f5                	addi	ra,ra,29
    1776:	0000                	unimp
    1778:	01049003          	lh	zero,16(s1)
    177c:	0000                	unimp
    177e:	0000                	unimp
    1780:	e500                	sd	s0,8(a0)
    1782:	0000                	unimp
    1784:	cd00                	sw	s0,24(a0)
    1786:	01000007          	.4byte	0x1000007
    178a:	5a01                	li	s4,-32
    178c:	7802                	ld	a6,32(sp)
    178e:	0000                	unimp
    1790:	a224                	.2byte	0xa224
    1792:	0104                	addi	s1,sp,128
    1794:	0000                	unimp
    1796:	0000                	unimp
    1798:	f500                	sd	s0,40(a0)
    179a:	0000                	unimp
    179c:	0000                	unimp
    179e:	940d                	srai	s0,s0,0x23
    17a0:	0002                	c.slli64	zero
    17a2:	0b00                	addi	s0,sp,400
    17a4:	8a09                	andi	a2,a2,2
    17a6:	0000                	unimp
    17a8:	f200                	sd	s0,32(a2)
    17aa:	00000103          	lb	sp,0(zero) # 0 <ROM_BASE-0x10000>
    17ae:	0000                	unimp
    17b0:	6e00                	ld	s0,24(a2)
    17b2:	0000                	unimp
    17b4:	0000                	unimp
    17b6:	0000                	unimp
    17b8:	0100                	addi	s0,sp,128
    17ba:	f59c                	sd	a5,40(a1)
    17bc:	0008                	.2byte	0x8
    17be:	0800                	addi	s0,sp,16
    17c0:	00646d63          	bltu	s0,t1,17da <ROM_BASE-0xe826>
    17c4:	008a180b          	.4byte	0x8a180b
    17c8:	0000                	unimp
    17ca:	0e8d                	addi	t4,t4,3
    17cc:	0000                	unimp
    17ce:	6108                	ld	a0,0(a0)
    17d0:	6772                	ld	a4,280(sp)
    17d2:	0b00                	addi	s0,sp,400
    17d4:	a726                	.2byte	0xa726
    17d6:	0000                	unimp
    17d8:	b700                	.2byte	0xb700
    17da:	000e                	c.slli	zero,0x3
    17dc:	0800                	addi	s0,sp,16
    17de:	00637263          	bgeu	t1,t1,17e2 <ROM_BASE-0xe81e>
    17e2:	008a330b          	.4byte	0x8a330b
    17e6:	0000                	unimp
    17e8:	0ee1                	addi	t4,t4,24
    17ea:	0000                	unimp
    17ec:	6e04                	ld	s1,24(a2)
    17ee:	0d00                	addi	s0,sp,656
    17f0:	00008313          	mv	t1,ra
    17f4:	0b00                	addi	s0,sp,400
    17f6:	1200000f          	.4byte	0x1200000f
    17fa:	0072                	c.slli	zero,0x1c
    17fc:	8a0e                	mv	s4,gp
    17fe:	0000                	unimp
    1800:	0100                	addi	s0,sp,128
    1802:	025a                	slli	tp,tp,0x16
    1804:	0406                	slli	s0,s0,0x1
    1806:	0001                	nop
    1808:	0000                	unimp
    180a:	0000                	unimp
    180c:	08f5                	addi	a7,a7,29
    180e:	0000                	unimp
    1810:	01040e03          	lb	t3,16(s0) # 1b010 <_RODATA_END_+0x93e7>
    1814:	0000                	unimp
    1816:	0000                	unimp
    1818:	1600                	addi	s0,sp,800
    181a:	0001                	nop
    181c:	6800                	ld	s0,16(s0)
    181e:	0008                	.2byte	0x8
    1820:	0100                	addi	s0,sp,128
    1822:	5a01                	li	s4,-32
    1824:	8205                	srli	a2,a2,0x1
    1826:	0800                	addi	s0,sp,16
    1828:	2140                	.2byte	0x2140
    182a:	0300                	addi	s0,sp,384
    182c:	0416                	slli	s0,s0,0x5
    182e:	0001                	nop
    1830:	0000                	unimp
    1832:	0000                	unimp
    1834:	0116                	slli	sp,sp,0x5
    1836:	0000                	unimp
    1838:	00000883          	lb	a7,0(zero) # 0 <ROM_BASE-0x10000>
    183c:	0101                	addi	sp,sp,0
    183e:	055a                	slli	a0,a0,0x16
    1840:	0078                	addi	a4,sp,12
    1842:	e809                	bnez	s0,1854 <ROM_BASE-0xe7ac>
    1844:	0024                	addi	s1,sp,8
    1846:	01042203          	lw	tp,16(s0)
    184a:	0000                	unimp
    184c:	0000                	unimp
    184e:	1600                	addi	s0,sp,800
    1850:	0001                	nop
    1852:	9d00                	.2byte	0x9d00
    1854:	0008                	.2byte	0x8
    1856:	0100                	addi	s0,sp,128
    1858:	5a01                	li	s4,-32
    185a:	7804                	ld	s1,48(s0)
    185c:	4000                	lw	s0,0(s0)
    185e:	0025                	c.nop	9
    1860:	01042e03          	lw	t3,16(s0)
    1864:	0000                	unimp
    1866:	0000                	unimp
    1868:	1600                	addi	s0,sp,800
    186a:	0001                	nop
    186c:	b700                	.2byte	0xb700
    186e:	0008                	.2byte	0x8
    1870:	0100                	addi	s0,sp,128
    1872:	5a01                	li	s4,-32
    1874:	7804                	ld	s1,48(s0)
    1876:	3800                	.2byte	0x3800
    1878:	0025                	c.nop	9
    187a:	01043603          	ld	a2,16(s0)
    187e:	0000                	unimp
    1880:	0000                	unimp
    1882:	1600                	addi	s0,sp,800
    1884:	0001                	nop
    1886:	cf00                	sw	s0,24(a4)
    1888:	0008                	.2byte	0x8
    188a:	0100                	addi	s0,sp,128
    188c:	5a01                	li	s4,-32
    188e:	7802                	ld	a6,32(sp)
    1890:	0000                	unimp
    1892:	01043c03          	ld	s8,16(s0)
    1896:	0000                	unimp
    1898:	0000                	unimp
    189a:	1600                	addi	s0,sp,800
    189c:	0001                	nop
    189e:	e700                	sd	s0,8(a4)
    18a0:	0008                	.2byte	0x8
    18a2:	0100                	addi	s0,sp,128
    18a4:	5a01                	li	s4,-32
    18a6:	7902                	ld	s2,32(sp)
    18a8:	0000                	unimp
    18aa:	4402                	lw	s0,0(sp)
    18ac:	0104                	addi	s1,sp,128
    18ae:	0000                	unimp
    18b0:	0000                	unimp
    18b2:	f500                	sd	s0,40(a0)
    18b4:	0008                	.2byte	0x8
    18b6:	0000                	unimp
    18b8:	7809                	lui	a6,0xfffe2
    18ba:	0002                	c.slli64	zero
    18bc:	0600                	addi	s0,sp,768
    18be:	8a09                	andi	a2,a2,2
    18c0:	0000                	unimp
    18c2:	ec00                	sd	s0,24(s0)
    18c4:	00000103          	lb	sp,0(zero) # 0 <ROM_BASE-0x10000>
    18c8:	0000                	unimp
    18ca:	0600                	addi	s0,sp,768
    18cc:	0000                	unimp
    18ce:	0000                	unimp
    18d0:	0000                	unimp
    18d2:	0100                	addi	s0,sp,128
    18d4:	2b9c                	.2byte	0x2b9c
    18d6:	0009                	c.nop	2
    18d8:	2500                	.2byte	0x2500
    18da:	03f2                	slli	t2,t2,0x1c
    18dc:	0001                	nop
    18de:	0000                	unimp
    18e0:	0000                	unimp
    18e2:	0116                	slli	sp,sp,0x5
    18e4:	0000                	unimp
    18e6:	0101                	addi	sp,sp,0
    18e8:	025a                	slli	tp,tp,0x16
    18ea:	ff09                	bnez	a4,1804 <ROM_BASE-0xe7fc>
    18ec:	0000                	unimp
    18ee:	5326                	lw	t1,104(sp)
    18f0:	0004                	.2byte	0x4
    18f2:	0e00                	addi	s0,sp,784
    18f4:	0106                	slli	sp,sp,0x1
    18f6:	0000                	unimp
    18f8:	0000                	unimp
    18fa:	2200                	.2byte	0x2200
    18fc:	0000                	unimp
    18fe:	0000                	unimp
    1900:	0000                	unimp
    1902:	0100                	addi	s0,sp,128
    1904:	149c                	addi	a5,sp,608
    1906:	0464                	addi	s1,sp,524
    1908:	0000                	unimp
    190a:	0f5c                	addi	a5,sp,916
    190c:	0000                	unimp
    190e:	7014                	ld	a3,32(s0)
    1910:	0004                	.2byte	0x4
    1912:	8600                	.2byte	0x8600
    1914:	2700000f          	.4byte	0x2700000f
    1918:	0000047b          	.4byte	0x47b
    191c:	0fb0                	addi	a2,sp,984
    191e:	0000                	unimp
    1920:	0000                	unimp
    1922:	0716                	slli	a4,a4,0x5
    1924:	0000                	unimp
    1926:	0005                	c.nop	1
    1928:	0801                	addi	a6,a6,0 # fffffffffffe2000 <_RODATA_END_+0xfffffffffffd03d7>
    192a:	0778                	addi	a4,sp,908
    192c:	0000                	unimp
    192e:	0000df13          	srli	t5,ra,0x0
    1932:	1d00                	addi	s0,sp,688
    1934:	0102                	c.slli64	sp
    1936:	0000                	unimp
    1938:	0000                	unimp
    193a:	0000                	unimp
    193c:	07ba                	slli	a5,a5,0xe
    193e:	0001                	nop
    1940:	0000                	unimp
    1942:	0000                	unimp
    1944:	02c4                	addi	s1,sp,324
    1946:	0000                	unimp
    1948:	0000                	unimp
    194a:	0000                	unimp
    194c:	000015e7          	.4byte	0x15e7
    1950:	7a060103          	lb	sp,1952(a2)
    1954:	0000                	unimp
    1956:	0500                	addi	s0,sp,640
    1958:	0059                	c.nop	22
    195a:	0000                	unimp
    195c:	2b02                	.2byte	0x2b02
    195e:	4118                	lw	a4,0(a0)
    1960:	0000                	unimp
    1962:	0300                	addi	s0,sp,384
    1964:	0801                	addi	a6,a6,0
    1966:	0078                	addi	a4,sp,12
    1968:	0000                	unimp
    196a:	5f050203          	lb	tp,1520(a0)
    196e:	0001                	nop
    1970:	0300                	addi	s0,sp,384
    1972:	0702                	c.slli64	a4
    1974:	00a4                	addi	s1,sp,72
    1976:	0000                	unimp
    1978:	0414                	addi	a3,sp,512
    197a:	6905                	lui	s2,0x1
    197c:	746e                	ld	s0,248(sp)
    197e:	0500                	addi	s0,sp,640
    1980:	000000b7          	lui	ra,0x0
    1984:	4f02                	lw	t5,0(sp)
    1986:	6919                	lui	s2,0x6
    1988:	0000                	unimp
    198a:	0300                	addi	s0,sp,384
    198c:	0704                	addi	s1,sp,896
    198e:	00000097          	auipc	ra,0x0
    1992:	90050803          	lb	a6,-1792(a0)
    1996:	05000003          	lb	zero,80(zero) # 50 <ROM_BASE-0xffb0>
    199a:	0205                	addi	tp,tp,1 # 2001 <ROM_BASE-0xdfff>
    199c:	0000                	unimp
    199e:	6902                	ld	s2,0(sp)
    19a0:	8319                	srli	a4,a4,0x6
    19a2:	0000                	unimp
    19a4:	0300                	addi	s0,sp,384
    19a6:	0708                	addi	a0,sp,896
    19a8:	0092                	slli	ra,ra,0x4
    19aa:	0000                	unimp
    19ac:	5b05                	li	s6,-31
    19ae:	0000                	unimp
    19b0:	0300                	addi	s0,sp,384
    19b2:	1318                	addi	a4,sp,416
    19b4:	0035                	c.nop	13
    19b6:	0000                	unimp
    19b8:	b905                	j	15e8 <ROM_BASE-0xea18>
    19ba:	0000                	unimp
    19bc:	0300                	addi	s0,sp,384
    19be:	1430                	addi	a2,sp,552
    19c0:	005d                	c.nop	23
    19c2:	0000                	unimp
    19c4:	0705                	addi	a4,a4,1
    19c6:	0002                	c.slli64	zero
    19c8:	0300                	addi	s0,sp,384
    19ca:	143c                	addi	a5,sp,552
    19cc:	00000077          	.4byte	0x77
    19d0:	750d                	lui	a0,0xfffe3
    19d2:	0004                	.2byte	0x4
    19d4:	6000                	ld	s0,0(s0)
    19d6:	6209                	lui	tp,0x2
    19d8:	0001                	nop
    19da:	0200                	addi	s0,sp,256
    19dc:	0460                	addi	s0,sp,524
    19de:	0000                	unimp
    19e0:	00a20e0b          	.4byte	0xa20e0b
    19e4:	0000                	unimp
    19e6:	0200                	addi	s0,sp,256
    19e8:	0399                	addi	t2,t2,6
    19ea:	0000                	unimp
    19ec:	0e0c                	addi	a1,sp,784
    19ee:	0096                	slli	ra,ra,0x5
    19f0:	0000                	unimp
    19f2:	0208                	addi	a0,sp,256
    19f4:	03c4                	addi	s1,sp,452
    19f6:	0000                	unimp
    19f8:	0e0d                	addi	t3,t3,3 # 1a003 <_RODATA_END_+0x83da>
    19fa:	0096                	slli	ra,ra,0x5
    19fc:	0000                	unimp
    19fe:	020c                	addi	a1,sp,256
    1a00:	046a                	slli	s0,s0,0x1a
    1a02:	0000                	unimp
    1a04:	0e0e                	slli	t3,t3,0x3
    1a06:	0096                	slli	ra,ra,0x5
    1a08:	0000                	unimp
    1a0a:	0210                	addi	a2,sp,256
    1a0c:	03d0                	addi	a2,sp,452
    1a0e:	0000                	unimp
    1a10:	00960e0f          	.4byte	0x960e0f
    1a14:	0000                	unimp
    1a16:	0214                	addi	a3,sp,256
    1a18:	0401                	addi	s0,s0,0
    1a1a:	0000                	unimp
    1a1c:	0e10                	addi	a2,sp,784
    1a1e:	00a2                	slli	ra,ra,0x8
    1a20:	0000                	unimp
    1a22:	0218                	addi	a4,sp,256
    1a24:	0455                	addi	s0,s0,21
    1a26:	0000                	unimp
    1a28:	0e11                	addi	t3,t3,4
    1a2a:	00a2                	slli	ra,ra,0x8
    1a2c:	0000                	unimp
    1a2e:	0220                	addi	s0,sp,264
    1a30:	03a2                	slli	t2,t2,0x8
    1a32:	0000                	unimp
    1a34:	0e12                	slli	t3,t3,0x4
    1a36:	00a2                	slli	ra,ra,0x8
    1a38:	0000                	unimp
    1a3a:	0228                	addi	a0,sp,264
    1a3c:	03d9                	addi	t2,t2,22
    1a3e:	0000                	unimp
    1a40:	00a20e13          	addi	t3,tp,10 # 200a <ROM_BASE-0xdff6>
    1a44:	0000                	unimp
    1a46:	0230                	addi	a2,sp,264
    1a48:	047d                	addi	s0,s0,31
    1a4a:	0000                	unimp
    1a4c:	0d14                	addi	a3,sp,656
    1a4e:	0162                	slli	sp,sp,0x18
    1a50:	0000                	unimp
    1a52:	0238                	addi	a4,sp,264
    1a54:	033d                	addi	t1,t1,15
    1a56:	0000                	unimp
    1a58:	0e15                	addi	t3,t3,5
    1a5a:	00a2                	slli	ra,ra,0x8
    1a5c:	0000                	unimp
    1a5e:	0248                	addi	a0,sp,260
    1a60:	0436                	slli	s0,s0,0xd
    1a62:	0000                	unimp
    1a64:	0e16                	slli	t3,t3,0x5
    1a66:	0096                	slli	ra,ra,0x5
    1a68:	0000                	unimp
    1a6a:	0250                	addi	a2,sp,260
    1a6c:	0421                	addi	s0,s0,8
    1a6e:	0000                	unimp
    1a70:	00960e17          	auipc	t3,0x960
    1a74:	0000                	unimp
    1a76:	0254                	addi	a3,sp,260
    1a78:	0329                	addi	t1,t1,10
    1a7a:	0000                	unimp
    1a7c:	0e18                	addi	a4,sp,784
    1a7e:	0096                	slli	ra,ra,0x5
    1a80:	0000                	unimp
    1a82:	0058                	addi	a4,sp,4
    1a84:	8a09                	andi	a2,a2,2
    1a86:	0000                	unimp
    1a88:	7200                	ld	s0,32(a2)
    1a8a:	0001                	nop
    1a8c:	0e00                	addi	s0,sp,784
    1a8e:	00000083          	lb	ra,0(zero) # 0 <ROM_BASE-0x10000>
    1a92:	f705000f          	.4byte	0xf705000f
    1a96:	04000003          	lb	zero,64(zero) # 40 <ROM_BASE-0xffc0>
    1a9a:	0319                	addi	t1,t1,6
    1a9c:	00ae                	slli	ra,ra,0xb
    1a9e:	0000                	unimp
    1aa0:	390d                	addiw	s2,s2,-29 # 5fe3 <ROM_BASE-0xa01d>
    1aa2:	0004                	.2byte	0x4
    1aa4:	8000                	.2byte	0x8000
    1aa6:	d21c                	sw	a5,32(a2)
    1aa8:	0001                	nop
    1aaa:	0200                	addi	s0,sp,256
    1aac:	040d                	addi	s0,s0,3
    1aae:	0000                	unimp
    1ab0:	0d1e                	slli	s10,s10,0x7
    1ab2:	0162                	slli	sp,sp,0x18
    1ab4:	0000                	unimp
    1ab6:	0200                	addi	s0,sp,256
    1ab8:	036e                	slli	t1,t1,0x1b
    1aba:	0000                	unimp
    1abc:	0d1f 0162 0000      	.byte	0x1f, 0x0d, 0x62, 0x01, 0x00, 0x00
    1ac2:	0210                	addi	a2,sp,256
    1ac4:	0000044b          	.4byte	0x44b
    1ac8:	0e20                	addi	s0,sp,792
    1aca:	00a2                	slli	ra,ra,0x8
    1acc:	0000                	unimp
    1ace:	0220                	addi	s0,sp,264
    1ad0:	0492                	slli	s1,s1,0x4
    1ad2:	0000                	unimp
    1ad4:	0e21                	addi	t3,t3,8 # 961a78 <_RODATA_END_+0x94fe4f>
    1ad6:	00a2                	slli	ra,ra,0x8
    1ad8:	0000                	unimp
    1ada:	0228                	addi	a0,sp,264
    1adc:	0319                	addi	t1,t1,6
    1ade:	0000                	unimp
    1ae0:	0e22                	slli	t3,t3,0x8
    1ae2:	00a2                	slli	ra,ra,0x8
    1ae4:	0000                	unimp
    1ae6:	0230                	addi	a2,sp,264
    1ae8:	000003b3          	add	t2,zero,zero
    1aec:	01d20d23          	sb	t4,26(tp) # 1a <ROM_BASE-0xffe6>
    1af0:	0000                	unimp
    1af2:	0038                	addi	a4,sp,8
    1af4:	8a09                	andi	a2,a2,2
    1af6:	0000                	unimp
    1af8:	e200                	sd	s0,0(a2)
    1afa:	0001                	nop
    1afc:	0e00                	addi	s0,sp,784
    1afe:	00000083          	lb	ra,0(zero) # 0 <ROM_BASE-0x10000>
    1b02:	5a050047          	.4byte	0x5a050047
    1b06:	04000003          	lb	zero,64(zero) # 40 <ROM_BASE-0xffc0>
    1b0a:	0324                	addi	s1,sp,392
    1b0c:	017e                	slli	sp,sp,0x1f
    1b0e:	0000                	unimp
    1b10:	5305                	li	t1,-31
    1b12:	05000003          	lb	zero,80(zero) # 50 <ROM_BASE-0xffb0>
    1b16:	17d6                	slli	a5,a5,0x35
    1b18:	00000083          	lb	ra,0(zero) # 0 <ROM_BASE-0x10000>
    1b1c:	8b050803          	lb	a6,-1872(a0) # fffffffffffe28b0 <_RODATA_END_+0xfffffffffffd0c87>
    1b20:	03000003          	lb	zero,48(zero) # 30 <ROM_BASE-0xffd0>
    1b24:	0410                	addi	a2,sp,512
    1b26:	03b8                	addi	a4,sp,456
    1b28:	0000                	unimp
    1b2a:	e50a                	sd	sp,136(sp)
    1b2c:	0001                	nop
    1b2e:	1b00                	addi	s0,sp,432
    1b30:	0218                	addi	a4,sp,256
    1b32:	0000                	unimp
    1b34:	8a06                	mv	s4,ra
    1b36:	0000                	unimp
    1b38:	0000                	unimp
    1b3a:	690a                	ld	s2,128(sp)
    1b3c:	0001                	nop
    1b3e:	1700                	addi	s0,sp,928
    1b40:	0228                	addi	a0,sp,264
    1b42:	0000                	unimp
    1b44:	9606                	add	a2,a2,ra
    1b46:	0000                	unimp
    1b48:	0000                	unimp
    1b4a:	f50a                	sd	sp,168(sp)
    1b4c:	0001                	nop
    1b4e:	1900                	addi	s0,sp,176
    1b50:	0238                	addi	a4,sp,264
    1b52:	0000                	unimp
    1b54:	a206                	.2byte	0xa206
    1b56:	0000                	unimp
    1b58:	0000                	unimp
    1b5a:	8c15                	sub	s0,s0,a3
    1b5c:	0002                	c.slli64	zero
    1b5e:	0700                	addi	s0,sp,896
    1b60:	0514                	addi	a3,sp,640
    1b62:	0056                	c.slli	zero,0x15
    1b64:	0000                	unimp
    1b66:	0258                	addi	a4,sp,260
    1b68:	0000                	unimp
    1b6a:	5806                	lw	a6,96(sp)
    1b6c:	0002                	c.slli64	zero
    1b6e:	0600                	addi	s0,sp,768
    1b70:	0096                	slli	ra,ra,0x5
    1b72:	0000                	unimp
    1b74:	9606                	add	a2,a2,ra
    1b76:	0000                	unimp
    1b78:	0000                	unimp
    1b7a:	0816                	slli	a6,a6,0x5
    1b7c:	6d0a                	ld	s10,128(sp)
    1b7e:	0000                	unimp
    1b80:	1500                	addi	s0,sp,672
    1b82:	026a                	slli	tp,tp,0x1a
    1b84:	0000                	unimp
    1b86:	6a06                	ld	s4,64(sp)
    1b88:	0002                	c.slli64	zero
    1b8a:	0000                	unimp
    1b8c:	0002760b          	.4byte	0x2760b
    1b90:	0300                	addi	s0,sp,384
    1b92:	0801                	addi	a6,a6,0
    1b94:	0081                	addi	ra,ra,0 # 198e <ROM_BASE-0xe672>
    1b96:	0000                	unimp
    1b98:	00026f17          	auipc	t5,0x26
    1b9c:	1800                	addi	s0,sp,48
    1b9e:	0000029b          	sext.w	t0,zero
    1ba2:	56051007          	.4byte	0x56051007
    1ba6:	0000                	unimp
    1ba8:	8d00                	.2byte	0x8d00
    1baa:	0002                	c.slli64	zero
    1bac:	1900                	addi	s0,sp,176
    1bae:	1a00                	addi	s0,sp,304
    1bb0:	00c2                	slli	ra,ra,0x10
    1bb2:	0000                	unimp
    1bb4:	0701                	addi	a4,a4,0
    1bb6:	5605                	li	a2,-31
    1bb8:	0000                	unimp
    1bba:	ba00                	.2byte	0xba00
    1bbc:	00000107          	.4byte	0x107
    1bc0:	0000                	unimp
    1bc2:	c400                	sw	s0,8(s0)
    1bc4:	0002                	c.slli64	zero
    1bc6:	0000                	unimp
    1bc8:	0000                	unimp
    1bca:	0100                	addi	s0,sp,128
    1bcc:	e49c                	sd	a5,8(s1)
    1bce:	0006                	c.slli	zero,0x1
    1bd0:	0f00                	addi	s0,sp,912
    1bd2:	0324                	addi	s1,sp,392
    1bd4:	0000                	unimp
    1bd6:	e426                	sd	s1,8(sp)
    1bd8:	0006                	c.slli	zero,0x1
    1bda:	fb00                	sd	s0,48(a4)
    1bdc:	0f00000f          	fence	iorw,unknown
    1be0:	0314                	addi	a3,sp,384
    1be2:	0000                	unimp
    1be4:	9635                	srai	a2,a2,0x2d
    1be6:	0000                	unimp
    1be8:	4b00                	lw	s0,16(a4)
    1bea:	0010                	.2byte	0x10
    1bec:	0800                	addi	s0,sp,16
    1bee:	6572                	ld	a0,280(sp)
    1bf0:	0074                	addi	a3,sp,12
    1bf2:	0909                	addi	s2,s2,2
    1bf4:	0056                	c.slli	zero,0x15
    1bf6:	0000                	unimp
    1bf8:	1075                	c.nop	-3
    1bfa:	0000                	unimp
    1bfc:	00030e1b          	sext.w	t3,t1
    1c00:	0100                	addi	s0,sp,128
    1c02:	0c12                	slli	s8,s8,0x4
    1c04:	01ee                	slli	gp,gp,0x1b
    1c06:	0000                	unimp
    1c08:	0200                	addi	s0,sp,256
    1c0a:	ee0c                	sd	a1,24(a2)
    1c0c:	13000003          	lb	zero,304(zero) # 130 <ROM_BASE-0xfed0>
    1c10:	e90d                	bnez	a0,1c42 <ROM_BASE-0xe3be>
    1c12:	0006                	c.slli	zero,0x1
    1c14:	9c00                	.2byte	0x9c00
    1c16:	0010                	.2byte	0x10
    1c18:	0800                	addi	s0,sp,16
    1c1a:	6572                	ld	a0,280(sp)
    1c1c:	09150073          	.4byte	0x9150073
    1c20:	0056                	c.slli	zero,0x15
    1c22:	0000                	unimp
    1c24:	00001103          	lh	sp,0(zero) # 0 <ROM_BASE-0x10000>
    1c28:	e90c                	sd	a1,16(a0)
    1c2a:	20000003          	lb	zero,512(zero) # 200 <ROM_BASE-0xfe00>
    1c2e:	fc10                	sd	a2,56(s0)
    1c30:	0006                	c.slli	zero,0x1
    1c32:	7600                	ld	s0,40(a2)
    1c34:	0011                	c.nop	4
    1c36:	1c00                	addi	s0,sp,560
    1c38:	037d                	addi	t1,t1,31
    1c3a:	0000                	unimp
    1c3c:	3901                	addiw	s2,s2,-32
    1c3e:	010d                	addi	sp,sp,3
    1c40:	02000007          	.4byte	0x2000007
    1c44:	0072                	c.slli	zero,0x1c
    1c46:	860c                	.2byte	0x860c
    1c48:	5d000003          	lb	zero,1488(zero) # 5d0 <ROM_BASE-0xfa30>
    1c4c:	141a                	slli	s0,s0,0x26
    1c4e:	b3000007          	.4byte	0xb3000007
    1c52:	0011                	c.nop	4
    1c54:	1000                	addi	s0,sp,32
    1c56:	0936                	slli	s2,s2,0xd
    1c58:	0001                	nop
    1c5a:	0000                	unimp
    1c5c:	0000                	unimp
    1c5e:	00c8                	addi	a0,sp,68
    1c60:	0000                	unimp
    1c62:	0000                	unimp
    1c64:	0000                	unimp
    1c66:	048a                	slli	s1,s1,0x2
    1c68:	0000                	unimp
    1c6a:	6908                	ld	a0,16(a0)
    1c6c:	4600                	lw	s0,8(a2)
    1c6e:	560e                	lw	a2,224(sp)
    1c70:	0000                	unimp
    1c72:	da00                	sw	s0,48(a2)
    1c74:	0011                	c.nop	4
    1c76:	1d00                	addi	s0,sp,688
    1c78:	03b8                	addi	a4,sp,456
    1c7a:	0000                	unimp
    1c7c:	870c                	.2byte	0x870c
    1c7e:	0004                	.2byte	0x4
    1c80:	4800                	lw	s0,16(s0)
    1c82:	141e                	slli	s0,s0,0x27
    1c84:	ee000007          	.4byte	0xee000007
    1c88:	0011                	c.nop	4
    1c8a:	1100                	addi	s0,sp,160
    1c8c:	03ec                	addi	a1,sp,460
    1c8e:	0000                	unimp
    1c90:	038d                	addi	t2,t2,3
    1c92:	0000                	unimp
    1c94:	6a08                	ld	a0,16(a2)
    1c96:	4c00                	lw	s0,24(s0)
    1c98:	5612                	lw	a2,36(sp)
    1c9a:	0000                	unimp
    1c9c:	4300                	lw	s0,0(a4)
    1c9e:	0012                	c.slli	zero,0x4
    1ca0:	0100                	addi	s0,sp,128
    1ca2:	096e                	slli	s2,s2,0x1b
    1ca4:	0001                	nop
    1ca6:	0000                	unimp
    1ca8:	0000                	unimp
    1caa:	0208                	addi	a0,sp,256
    1cac:	0000                	unimp
    1cae:	1000                	addi	s0,sp,32
    1cb0:	097e                	slli	s2,s2,0x1f
    1cb2:	0001                	nop
    1cb4:	0000                	unimp
    1cb6:	0000                	unimp
    1cb8:	0012                	c.slli	zero,0x4
    1cba:	0000                	unimp
    1cbc:	0000                	unimp
    1cbe:	0000                	unimp
    1cc0:	03bd                	addi	t2,t2,15
    1cc2:	0000                	unimp
    1cc4:	6a08                	ld	a0,16(a2)
    1cc6:	4f00                	lw	s0,24(a4)
    1cc8:	5612                	lw	a2,36(sp)
    1cca:	0000                	unimp
    1ccc:	6b00                	ld	s0,16(a4)
    1cce:	0012                	c.slli	zero,0x4
    1cd0:	0100                	addi	s0,sp,128
    1cd2:	098c                	addi	a1,sp,208
    1cd4:	0001                	nop
    1cd6:	0000                	unimp
    1cd8:	0000                	unimp
    1cda:	0208                	addi	a0,sp,256
    1cdc:	0000                	unimp
    1cde:	1100                	addi	s0,sp,160
    1ce0:	0420                	addi	s0,sp,520
    1ce2:	0000                	unimp
    1ce4:	03e1                	addi	t2,t2,24
    1ce6:	0000                	unimp
    1ce8:	6a08                	ld	a0,16(a2)
    1cea:	5800                	lw	s0,48(s0)
    1cec:	5612                	lw	a2,36(sp)
    1cee:	0000                	unimp
    1cf0:	9800                	.2byte	0x9800
    1cf2:	0012                	c.slli	zero,0x4
    1cf4:	0100                	addi	s0,sp,128
    1cf6:	09e4                	addi	s1,sp,220
    1cf8:	0001                	nop
    1cfa:	0000                	unimp
    1cfc:	0000                	unimp
    1cfe:	0208                	addi	a0,sp,256
    1d00:	0000                	unimp
    1d02:	0100                	addi	s0,sp,128
    1d04:	0946                	slli	s2,s2,0x11
    1d06:	0001                	nop
    1d08:	0000                	unimp
    1d0a:	0000                	unimp
    1d0c:	025a                	slli	tp,tp,0x16
    1d0e:	0000                	unimp
    1d10:	01094e07          	.4byte	0x1094e07
    1d14:	0000                	unimp
    1d16:	0000                	unimp
    1d18:	0800                	addi	s0,sp,16
    1d1a:	0002                	c.slli64	zero
    1d1c:	0600                	addi	s0,sp,768
    1d1e:	0004                	.2byte	0x4
    1d20:	0400                	addi	s0,sp,512
    1d22:	5a01                	li	s4,-32
    1d24:	8202                	jr	tp
    1d26:	0000                	unimp
    1d28:	5e01                	li	t3,-32
    1d2a:	0109                	addi	sp,sp,2
    1d2c:	0000                	unimp
    1d2e:	0000                	unimp
    1d30:	5a00                	lw	s0,48(a2)
    1d32:	0002                	c.slli64	zero
    1d34:	0100                	addi	s0,sp,128
    1d36:	097e                	slli	s2,s2,0x1f
    1d38:	0001                	nop
    1d3a:	0000                	unimp
    1d3c:	0000                	unimp
    1d3e:	025a                	slli	tp,tp,0x16
    1d40:	0000                	unimp
    1d42:	9c01                	subw	s0,s0,s0
    1d44:	0109                	addi	sp,sp,2
    1d46:	0000                	unimp
    1d48:	0000                	unimp
    1d4a:	5a00                	lw	s0,48(a2)
    1d4c:	0002                	c.slli64	zero
    1d4e:	0100                	addi	s0,sp,128
    1d50:	09aa                	slli	s3,s3,0xa
    1d52:	0001                	nop
    1d54:	0000                	unimp
    1d56:	0000                	unimp
    1d58:	0228                	addi	a0,sp,264
    1d5a:	0000                	unimp
    1d5c:	b601                	j	185c <ROM_BASE-0xe7a4>
    1d5e:	0109                	addi	sp,sp,2
    1d60:	0000                	unimp
    1d62:	0000                	unimp
    1d64:	5a00                	lw	s0,48(a2)
    1d66:	0002                	c.slli64	zero
    1d68:	0100                	addi	s0,sp,128
    1d6a:	09bc                	addi	a5,sp,216
    1d6c:	0001                	nop
    1d6e:	0000                	unimp
    1d70:	0000                	unimp
    1d72:	0228                	addi	a0,sp,264
    1d74:	0000                	unimp
    1d76:	c801                	beqz	s0,1d86 <ROM_BASE-0xe27a>
    1d78:	0109                	addi	sp,sp,2
    1d7a:	0000                	unimp
    1d7c:	0000                	unimp
    1d7e:	5a00                	lw	s0,48(a2)
    1d80:	0002                	c.slli64	zero
    1d82:	0100                	addi	s0,sp,128
    1d84:	09ce                	slli	s3,s3,0x13
    1d86:	0001                	nop
    1d88:	0000                	unimp
    1d8a:	0000                	unimp
    1d8c:	0228                	addi	a0,sp,264
    1d8e:	0000                	unimp
    1d90:	da01                	beqz	a2,1ca0 <ROM_BASE-0xe360>
    1d92:	0109                	addi	sp,sp,2
    1d94:	0000                	unimp
    1d96:	0000                	unimp
    1d98:	5a00                	lw	s0,48(a2)
    1d9a:	0002                	c.slli64	zero
    1d9c:	0100                	addi	s0,sp,128
    1d9e:	09f6                	slli	s3,s3,0x1d
    1da0:	0001                	nop
    1da2:	0000                	unimp
    1da4:	0000                	unimp
    1da6:	025a                	slli	tp,tp,0x16
    1da8:	0000                	unimp
    1daa:	0000                	unimp
    1dac:	d801                	beqz	s0,1cbc <ROM_BASE-0xe344>
    1dae:	00000107          	.4byte	0x107
    1db2:	0000                	unimp
    1db4:	7b00                	ld	s0,48(a4)
    1db6:	0002                	c.slli64	zero
    1db8:	0100                	addi	s0,sp,128
    1dba:	07e6                	slli	a5,a5,0x19
    1dbc:	0001                	nop
    1dbe:	0000                	unimp
    1dc0:	0000                	unimp
    1dc2:	025a                	slli	tp,tp,0x16
    1dc4:	0000                	unimp
    1dc6:	1201                	addi	tp,tp,-32 # ffffffffffffffe0 <_RODATA_END_+0xfffffffffffee3b7>
    1dc8:	0108                	addi	a0,sp,128
    1dca:	0000                	unimp
    1dcc:	0000                	unimp
    1dce:	5a00                	lw	s0,48(a2)
    1dd0:	0002                	c.slli64	zero
    1dd2:	0700                	addi	s0,sp,896
    1dd4:	081e                	slli	a6,a6,0x7
    1dd6:	0001                	nop
    1dd8:	0000                	unimp
    1dda:	0000                	unimp
    1ddc:	0238                	addi	a4,sp,264
    1dde:	0000                	unimp
    1de0:	000004d3          	.4byte	0x4d3
    1de4:	0104                	addi	s1,sp,128
    1de6:	025a                	slli	tp,tp,0x16
    1de8:	0072                	c.slli	zero,0x1c
    1dea:	0104                	addi	s1,sp,128
    1dec:	0431015b          	.4byte	0x431015b
    1df0:	5c01                	li	s8,-32
    1df2:	3101                	addiw	sp,sp,-32
    1df4:	0100                	addi	s0,sp,128
    1df6:	0830                	addi	a2,sp,24
    1df8:	0001                	nop
    1dfa:	0000                	unimp
    1dfc:	0000                	unimp
    1dfe:	025a                	slli	tp,tp,0x16
    1e00:	0000                	unimp
    1e02:	3c01                	addiw	s8,s8,-32
    1e04:	0108                	addi	a0,sp,128
    1e06:	0000                	unimp
    1e08:	0000                	unimp
    1e0a:	5a00                	lw	s0,48(a2)
    1e0c:	0002                	c.slli64	zero
    1e0e:	0700                	addi	s0,sp,896
    1e10:	0842                	slli	a6,a6,0x10
    1e12:	0001                	nop
    1e14:	0000                	unimp
    1e16:	0000                	unimp
    1e18:	0228                	addi	a0,sp,264
    1e1a:	0000                	unimp
    1e1c:	0505                	addi	a0,a0,1
    1e1e:	0000                	unimp
    1e20:	0104                	addi	s1,sp,128
    1e22:	025a                	slli	tp,tp,0x16
    1e24:	0079                	c.nop	30
    1e26:	0100                	addi	s0,sp,128
    1e28:	084e                	slli	a6,a6,0x13
    1e2a:	0001                	nop
    1e2c:	0000                	unimp
    1e2e:	0000                	unimp
    1e30:	025a                	slli	tp,tp,0x16
    1e32:	0000                	unimp
    1e34:	5e01                	li	t3,-32
    1e36:	0108                	addi	a0,sp,128
    1e38:	0000                	unimp
    1e3a:	0000                	unimp
    1e3c:	5a00                	lw	s0,48(a2)
    1e3e:	0002                	c.slli64	zero
    1e40:	0100                	addi	s0,sp,128
    1e42:	086a                	slli	a6,a6,0x1a
    1e44:	0001                	nop
    1e46:	0000                	unimp
    1e48:	0000                	unimp
    1e4a:	025a                	slli	tp,tp,0x16
    1e4c:	0000                	unimp
    1e4e:	7001                	c.lui	zero,0xfffe0
    1e50:	0108                	addi	a0,sp,128
    1e52:	0000                	unimp
    1e54:	0000                	unimp
    1e56:	2800                	.2byte	0x2800
    1e58:	0002                	c.slli64	zero
    1e5a:	0100                	addi	s0,sp,128
    1e5c:	087c                	addi	a5,sp,28
    1e5e:	0001                	nop
    1e60:	0000                	unimp
    1e62:	0000                	unimp
    1e64:	025a                	slli	tp,tp,0x16
    1e66:	0000                	unimp
    1e68:	8201                	c.srli64	a2
    1e6a:	0108                	addi	a0,sp,128
    1e6c:	0000                	unimp
    1e6e:	0000                	unimp
    1e70:	1800                	addi	s0,sp,48
    1e72:	0002                	c.slli64	zero
    1e74:	0100                	addi	s0,sp,128
    1e76:	088e                	slli	a7,a7,0x3
    1e78:	0001                	nop
    1e7a:	0000                	unimp
    1e7c:	0000                	unimp
    1e7e:	025a                	slli	tp,tp,0x16
    1e80:	0000                	unimp
    1e82:	9401                	srai	s0,s0,0x20
    1e84:	0108                	addi	a0,sp,128
    1e86:	0000                	unimp
    1e88:	0000                	unimp
    1e8a:	1800                	addi	s0,sp,48
    1e8c:	0002                	c.slli64	zero
    1e8e:	0100                	addi	s0,sp,128
    1e90:	08a0                	addi	s0,sp,88
    1e92:	0001                	nop
    1e94:	0000                	unimp
    1e96:	0000                	unimp
    1e98:	025a                	slli	tp,tp,0x16
    1e9a:	0000                	unimp
    1e9c:	a601                	j	219c <ROM_BASE-0xde64>
    1e9e:	0108                	addi	a0,sp,128
    1ea0:	0000                	unimp
    1ea2:	0000                	unimp
    1ea4:	1800                	addi	s0,sp,48
    1ea6:	0002                	c.slli64	zero
    1ea8:	0100                	addi	s0,sp,128
    1eaa:	08b2                	slli	a7,a7,0xc
    1eac:	0001                	nop
    1eae:	0000                	unimp
    1eb0:	0000                	unimp
    1eb2:	025a                	slli	tp,tp,0x16
    1eb4:	0000                	unimp
    1eb6:	b801                	j	16c6 <ROM_BASE-0xe93a>
    1eb8:	0108                	addi	a0,sp,128
    1eba:	0000                	unimp
    1ebc:	0000                	unimp
    1ebe:	1800                	addi	s0,sp,48
    1ec0:	0002                	c.slli64	zero
    1ec2:	0100                	addi	s0,sp,128
    1ec4:	08c4                	addi	s1,sp,84
    1ec6:	0001                	nop
    1ec8:	0000                	unimp
    1eca:	0000                	unimp
    1ecc:	025a                	slli	tp,tp,0x16
    1ece:	0000                	unimp
    1ed0:	ca01                	beqz	a2,1ee0 <ROM_BASE-0xe120>
    1ed2:	0108                	addi	a0,sp,128
    1ed4:	0000                	unimp
    1ed6:	0000                	unimp
    1ed8:	2800                	.2byte	0x2800
    1eda:	0002                	c.slli64	zero
    1edc:	0100                	addi	s0,sp,128
    1ede:	08d6                	slli	a7,a7,0x15
    1ee0:	0001                	nop
    1ee2:	0000                	unimp
    1ee4:	0000                	unimp
    1ee6:	025a                	slli	tp,tp,0x16
    1ee8:	0000                	unimp
    1eea:	dc01                	beqz	s0,1e02 <ROM_BASE-0xe1fe>
    1eec:	0108                	addi	a0,sp,128
    1eee:	0000                	unimp
    1ef0:	0000                	unimp
    1ef2:	2800                	.2byte	0x2800
    1ef4:	0002                	c.slli64	zero
    1ef6:	0100                	addi	s0,sp,128
    1ef8:	08e8                	addi	a0,sp,92
    1efa:	0001                	nop
    1efc:	0000                	unimp
    1efe:	0000                	unimp
    1f00:	025a                	slli	tp,tp,0x16
    1f02:	0000                	unimp
    1f04:	ee01                	bnez	a2,1f1c <ROM_BASE-0xe0e4>
    1f06:	0108                	addi	a0,sp,128
    1f08:	0000                	unimp
    1f0a:	0000                	unimp
    1f0c:	2800                	.2byte	0x2800
    1f0e:	0002                	c.slli64	zero
    1f10:	0100                	addi	s0,sp,128
    1f12:	08fa                	slli	a7,a7,0x1e
    1f14:	0001                	nop
    1f16:	0000                	unimp
    1f18:	0000                	unimp
    1f1a:	025a                	slli	tp,tp,0x16
    1f1c:	0000                	unimp
    1f1e:	0001                	nop
    1f20:	0109                	addi	sp,sp,2
    1f22:	0000                	unimp
    1f24:	0000                	unimp
    1f26:	1800                	addi	s0,sp,48
    1f28:	0002                	c.slli64	zero
    1f2a:	0100                	addi	s0,sp,128
    1f2c:	090c                	addi	a1,sp,144
    1f2e:	0001                	nop
    1f30:	0000                	unimp
    1f32:	0000                	unimp
    1f34:	025a                	slli	tp,tp,0x16
    1f36:	0000                	unimp
    1f38:	1201                	addi	tp,tp,-32 # ffffffffffffffe0 <_RODATA_END_+0xfffffffffffee3b7>
    1f3a:	0109                	addi	sp,sp,2
    1f3c:	0000                	unimp
    1f3e:	0000                	unimp
    1f40:	1800                	addi	s0,sp,48
    1f42:	0002                	c.slli64	zero
    1f44:	0100                	addi	s0,sp,128
    1f46:	091e                	slli	s2,s2,0x7
    1f48:	0001                	nop
    1f4a:	0000                	unimp
    1f4c:	0000                	unimp
    1f4e:	025a                	slli	tp,tp,0x16
    1f50:	0000                	unimp
    1f52:	01092c07          	.4byte	0x1092c07
    1f56:	0000                	unimp
    1f58:	0000                	unimp
    1f5a:	3800                	.2byte	0x3800
    1f5c:	0002                	c.slli64	zero
    1f5e:	4d00                	lw	s0,24(a0)
    1f60:	0006                	c.slli	zero,0x1
    1f62:	0400                	addi	s0,sp,512
    1f64:	5a01                	li	s4,-32
    1f66:	7202                	ld	tp,32(sp)
    1f68:	0400                	addi	s0,sp,512
    1f6a:	5c01                	li	s8,-32
    1f6c:	3101                	addiw	sp,sp,-32
    1f6e:	0100                	addi	s0,sp,128
    1f70:	0a0a                	slli	s4,s4,0x2
    1f72:	0001                	nop
    1f74:	0000                	unimp
    1f76:	0000                	unimp
    1f78:	025a                	slli	tp,tp,0x16
    1f7a:	0000                	unimp
    1f7c:	010a1c07          	.4byte	0x10a1c07
    1f80:	0000                	unimp
    1f82:	0000                	unimp
    1f84:	3800                	.2byte	0x3800
    1f86:	0002                	c.slli64	zero
    1f88:	7200                	ld	s0,32(a2)
    1f8a:	0006                	c.slli	zero,0x1
    1f8c:	0400                	addi	s0,sp,512
    1f8e:	5a01                	li	s4,-32
    1f90:	8402                	jr	s0
    1f92:	0000                	unimp
    1f94:	2c01                	sext.w	s8,s8
    1f96:	010a                	slli	sp,sp,0x2
    1f98:	0000                	unimp
    1f9a:	0000                	unimp
    1f9c:	5a00                	lw	s0,48(a2)
    1f9e:	0002                	c.slli64	zero
    1fa0:	0100                	addi	s0,sp,128
    1fa2:	0a38                	addi	a4,sp,280
    1fa4:	0001                	nop
    1fa6:	0000                	unimp
    1fa8:	0000                	unimp
    1faa:	025a                	slli	tp,tp,0x16
    1fac:	0000                	unimp
    1fae:	010a3e07          	.4byte	0x10a3e07
    1fb2:	0000                	unimp
    1fb4:	0000                	unimp
    1fb6:	2800                	.2byte	0x2800
    1fb8:	0002                	c.slli64	zero
    1fba:	a400                	.2byte	0xa400
    1fbc:	0006                	c.slli	zero,0x1
    1fbe:	0400                	addi	s0,sp,512
    1fc0:	5a01                	li	s4,-32
    1fc2:	7902                	ld	s2,32(sp)
    1fc4:	0000                	unimp
    1fc6:	5401                	li	s0,-32
    1fc8:	010a                	slli	sp,sp,0x2
    1fca:	0000                	unimp
    1fcc:	0000                	unimp
    1fce:	5a00                	lw	s0,48(a2)
    1fd0:	0002                	c.slli64	zero
    1fd2:	0100                	addi	s0,sp,128
    1fd4:	0a60                	addi	s0,sp,284
    1fd6:	0001                	nop
    1fd8:	0000                	unimp
    1fda:	0000                	unimp
    1fdc:	025a                	slli	tp,tp,0x16
    1fde:	0000                	unimp
    1fe0:	010a6607          	.4byte	0x10a6607
    1fe4:	0000                	unimp
    1fe6:	0000                	unimp
    1fe8:	2800                	.2byte	0x2800
    1fea:	0002                	c.slli64	zero
    1fec:	d600                	sw	s0,40(a2)
    1fee:	0006                	c.slli	zero,0x1
    1ff0:	0400                	addi	s0,sp,512
    1ff2:	5a01                	li	s4,-32
    1ff4:	8202                	jr	tp
    1ff6:	0000                	unimp
    1ff8:	7c01                	lui	s8,0xfffe0
    1ffa:	010a                	slli	sp,sp,0x2
    1ffc:	0000                	unimp
    1ffe:	0000                	unimp
    2000:	5a00                	lw	s0,48(a2)
    2002:	0002                	c.slli64	zero
    2004:	0000                	unimp
    2006:	00008a0b          	.4byte	0x8a0b
    200a:	0900                	addi	s0,sp,144
    200c:	008a                	slli	ra,ra,0x2
    200e:	0000                	unimp
    2010:	06fc                	addi	a5,sp,844
    2012:	0000                	unimp
    2014:	8312                	mv	t1,tp
    2016:	0000                	unimp
    2018:	0300                	addi	s0,sp,384
    201a:	ff0a                	sd	sp,440(sp)
    201c:	0001                	nop
    201e:	0001720b          	.4byte	0x1720b
    2022:	0900                	addi	s0,sp,144
    2024:	008a                	slli	ra,ra,0x2
    2026:	0000                	unimp
    2028:	0714                	addi	a3,sp,896
    202a:	0000                	unimp
    202c:	8312                	mv	t1,tp
    202e:	0000                	unimp
    2030:	0300                	addi	s0,sp,384
    2032:	ff0a                	sd	sp,440(sp)
    2034:	0001                	nop
    2036:	0001e20b          	.4byte	0x1e20b
	...

Disassembly of section .debug_abbrev:

0000000000000000 <.debug_abbrev>:
   0:	1101                	addi	sp,sp,-32
   2:	1000                	addi	s0,sp,32
   4:	12011117          	auipc	sp,0x12011
   8:	1b0e030f          	.4byte	0x1b0e030f
   c:	250e                	.2byte	0x250e
   e:	130e                	slli	t1,t1,0x23
  10:	0005                	c.nop	1
  12:	0000                	unimp
  14:	2401                	sext.w	s0,s0
  16:	0b00                	addi	s0,sp,400
  18:	030b3e0b          	.4byte	0x30b3e0b
  1c:	000e                	c.slli	zero,0x3
  1e:	0200                	addi	s0,sp,256
  20:	0016                	c.slli	zero,0x5
  22:	0b3a0e03          	lb	t3,179(s4) # fffffffffffe00b3 <_RODATA_END_+0xfffffffffffce48a>
  26:	0b390b3b          	.4byte	0xb390b3b
  2a:	1349                	addi	t1,t1,-14
  2c:	0000                	unimp
  2e:	02004903          	lbu	s2,32(zero) # 20 <ROM_BASE-0xffe0>
  32:	7e18                	ld	a4,56(a2)
  34:	0018                	.2byte	0x18
  36:	0400                	addi	s0,sp,512
  38:	0005                	c.nop	1
  3a:	1349                	addi	t1,t1,-14
  3c:	0000                	unimp
  3e:	0f05                	addi	t5,t5,1 # 27b99 <_RODATA_END_+0x15f70>
  40:	0b00                	addi	s0,sp,400
  42:	0821                	addi	a6,a6,8
  44:	1349                	addi	t1,t1,-14
  46:	0000                	unimp
  48:	1106                	slli	sp,sp,0x21
  4a:	2501                	sext.w	a0,a0
  4c:	130e                	slli	t1,t1,0x23
  4e:	1b1f030b          	.4byte	0x1b1f030b
  52:	551f 1117 1001      	.byte	0x1f, 0x55, 0x17, 0x11, 0x01, 0x10
  58:	07000017          	auipc	zero,0x7000
  5c:	0024                	addi	s1,sp,8
  5e:	0b3e0b0b          	.4byte	0xb3e0b0b
  62:	00000803          	lb	a6,0(zero) # 0 <ROM_BASE-0x10000>
  66:	2e08                	.2byte	0x2e08
  68:	3f01                	addiw	t5,t5,-32
  6a:	0319                	addi	t1,t1,6
  6c:	3a0e                	.2byte	0x3a0e
  6e:	390b3b0b          	.4byte	0x390b3b0b
  72:	4919270b          	.4byte	0x4919270b
  76:	01193c13          	sltiu	s8,s2,17
  7a:	09000013          	li	zero,144
  7e:	012e                	slli	sp,sp,0xb
  80:	0e03193f 0b3b0b3a 	.8byte	0xb3b0b3a0e03193f
  88:	0b39                	addi	s6,s6,14
  8a:	193c1927          	.4byte	0x193c1927
  8e:	1301                	addi	t1,t1,-32
  90:	0000                	unimp
  92:	260a                	.2byte	0x260a
  94:	4900                	lw	s0,16(a0)
  96:	0b000013          	li	zero,176
  9a:	012e                	slli	sp,sp,0xb
  9c:	0e03193f 0b3b0b3a 	.8byte	0xb3b0b3a0e03193f
  a4:	0b39                	addi	s6,s6,14
  a6:	193c                	addi	a5,sp,184
  a8:	1301                	addi	t1,t1,-32
  aa:	0000                	unimp
  ac:	180c                	addi	a1,sp,48
  ae:	0000                	unimp
  b0:	0d00                	addi	s0,sp,656
  b2:	002e                	c.slli	zero,0xb
  b4:	0e03193f 0b3b0b3a 	.8byte	0xb3b0b3a0e03193f
  bc:	0b39                	addi	s6,s6,14
  be:	01111927          	.4byte	0x1111927
  c2:	0712                	slli	a4,a4,0x4
  c4:	1840                	addi	s0,sp,52
  c6:	197a                	slli	s2,s2,0x3e
  c8:	0000                	unimp
  ca:	2e0e                	.2byte	0x2e0e
  cc:	3f01                	addiw	t5,t5,-32
  ce:	0319                	addi	t1,t1,6
  d0:	3a0e                	.2byte	0x3a0e
  d2:	390b3b0b          	.4byte	0x390b3b0b
  d6:	1113490b          	.4byte	0x1113490b
  da:	1201                	addi	tp,tp,-32 # ffffffffffffffe0 <_RODATA_END_+0xfffffffffffee3b7>
  dc:	7a184007          	.4byte	0x7a184007
  e0:	0019                	c.nop	6
  e2:	0f00                	addi	s0,sp,912
  e4:	0034                	addi	a3,sp,8
  e6:	0b3a0803          	lb	a6,179(s4)
  ea:	0b390b3b          	.4byte	0xb390b3b
  ee:	1349                	addi	t1,t1,-14
  f0:	0000                	unimp
  f2:	4810                	lw	a2,16(s0)
  f4:	7d01                	lui	s10,0xfffe0
  f6:	7f01                	lui	t5,0xfffe0
  f8:	00130113          	addi	sp,t1,1
  fc:	1100                	addi	s0,sp,160
  fe:	0048                	addi	a0,sp,4
 100:	017d                	addi	sp,sp,31 # 12011023 <_RODATA_END_+0x11fff3fa>
 102:	137f                	.2byte	0x137f
 104:	0000                	unimp
 106:	4812                	lw	a6,4(sp)
 108:	7d01                	lui	s10,0xfffe0
 10a:	7f01                	lui	t5,0xfffe0
 10c:	00000013          	nop
 110:	0501                	addi	a0,a0,0
 112:	3100                	.2byte	0x3100
 114:	00170213          	addi	tp,a4,1
 118:	0200                	addi	s0,sp,256
 11a:	0024                	addi	s1,sp,8
 11c:	0b3e0b0b          	.4byte	0xb3e0b0b
 120:	00000e03          	lb	t3,0(zero) # 0 <ROM_BASE-0x10000>
 124:	03001603          	lh	a2,48(zero) # 30 <ROM_BASE-0xffd0>
 128:	3a0e                	.2byte	0x3a0e
 12a:	390b3b0b          	.4byte	0x390b3b0b
 12e:	0013490b          	.4byte	0x13490b
 132:	0400                	addi	s0,sp,512
 134:	0034                	addi	a3,sp,8
 136:	1331                	addi	t1,t1,-20
 138:	1702                	slli	a4,a4,0x20
 13a:	0000                	unimp
 13c:	2e05                	addiw	t3,t3,1
 13e:	3f01                	addiw	t5,t5,-32 # fffffffffffdffe0 <_RODATA_END_+0xfffffffffffce3b7>
 140:	0319                	addi	t1,t1,6
 142:	3a0e                	.2byte	0x3a0e
 144:	0121                	addi	sp,sp,8
 146:	21390b3b          	.4byte	0x21390b3b
 14a:	2706                	.2byte	0x2706
 14c:	1119                	addi	sp,sp,-26
 14e:	1201                	addi	tp,tp,-32 # ffffffffffffffe0 <_RODATA_END_+0xfffffffffffee3b7>
 150:	7a184007          	.4byte	0x7a184007
 154:	0119                	addi	sp,sp,6
 156:	06000013          	li	zero,96
 15a:	0048                	addi	a0,sp,4
 15c:	017d                	addi	sp,sp,31
 15e:	137f                	.2byte	0x137f
 160:	0000                	unimp
 162:	03000507          	.4byte	0x3000507
 166:	3a0e                	.2byte	0x3a0e
 168:	0121                	addi	sp,sp,8
 16a:	0b390b3b          	.4byte	0xb390b3b
 16e:	1349                	addi	t1,t1,-14
 170:	1702                	slli	a4,a4,0x20
 172:	0000                	unimp
 174:	4908                	lw	a0,16(a0)
 176:	0200                	addi	s0,sp,256
 178:	7e18                	ld	a4,56(a2)
 17a:	0018                	.2byte	0x18
 17c:	0900                	addi	s0,sp,144
 17e:	0034                	addi	a3,sp,8
 180:	213a0803          	lb	a6,531(s4)
 184:	3b01                	addiw	s6,s6,-32
 186:	490b390b          	.4byte	0x490b390b
 18a:	00170213          	addi	tp,a4,1
 18e:	0a00                	addi	s0,sp,272
 190:	011d                	addi	sp,sp,7
 192:	1331                	addi	t1,t1,-20
 194:	0111                	addi	sp,sp,4
 196:	0712                	slli	a4,a4,0x4
 198:	2158                	.2byte	0x2158
 19a:	5901                	li	s2,-32
 19c:	0521570b          	.4byte	0x521570b
 1a0:	1301                	addi	t1,t1,-32
 1a2:	0000                	unimp
 1a4:	0300340b          	.4byte	0x300340b
 1a8:	3a08                	.2byte	0x3a08
 1aa:	0121                	addi	sp,sp,8
 1ac:	0b390b3b          	.4byte	0xb390b3b
 1b0:	1349                	addi	t1,t1,-14
 1b2:	1802                	slli	a6,a6,0x20
 1b4:	0000                	unimp
 1b6:	480c                	lw	a1,16(s0)
 1b8:	7d01                	lui	s10,0xfffe0
 1ba:	7f01                	lui	t5,0xfffe0
 1bc:	00130113          	addi	sp,t1,1
 1c0:	0d00                	addi	s0,sp,656
 1c2:	1755010b          	.4byte	0x1755010b
 1c6:	0000                	unimp
 1c8:	0f0e                	slli	t5,t5,0x3
 1ca:	0b00                	addi	s0,sp,400
 1cc:	0821                	addi	a6,a6,8
 1ce:	1349                	addi	t1,t1,-14
 1d0:	0000                	unimp
 1d2:	31011d0f          	.4byte	0x31011d0f
 1d6:	12011113          	.4byte	0x12011113
 1da:	01215807          	.4byte	0x1215807
 1de:	0b59                	addi	s6,s6,22
 1e0:	00000b57          	.4byte	0xb57
 1e4:	0510                	addi	a2,sp,640
 1e6:	0300                	addi	s0,sp,384
 1e8:	3a0e                	.2byte	0x3a0e
 1ea:	0121                	addi	sp,sp,8
 1ec:	0b390b3b          	.4byte	0xb390b3b
 1f0:	1349                	addi	t1,t1,-14
 1f2:	0000                	unimp
 1f4:	0111                	addi	sp,sp,4
 1f6:	4901                	li	s2,0
 1f8:	00130113          	addi	sp,t1,1
 1fc:	1200                	addi	s0,sp,288
 1fe:	0021                	c.nop	8
 200:	1349                	addi	t1,t1,-14
 202:	00000b2f          	.4byte	0xb2f
 206:	03000513          	li	a0,48
 20a:	3a08                	.2byte	0x3a08
 20c:	0121                	addi	sp,sp,8
 20e:	0b390b3b          	.4byte	0xb390b3b
 212:	1349                	addi	t1,t1,-14
 214:	1702                	slli	a4,a4,0x20
 216:	0000                	unimp
 218:	0514                	addi	a3,sp,640
 21a:	0300                	addi	s0,sp,384
 21c:	3a08                	.2byte	0x3a08
 21e:	0121                	addi	sp,sp,8
 220:	0b390b3b          	.4byte	0xb390b3b
 224:	1349                	addi	t1,t1,-14
 226:	1802                	slli	a6,a6,0x20
 228:	0000                	unimp
 22a:	1d15                	addi	s10,s10,-27 # fffffffffffdffe5 <_RODATA_END_+0xfffffffffffce3bc>
 22c:	3101                	addiw	sp,sp,-32
 22e:	55015213          	.4byte	0x55015213
 232:	01215817          	auipc	a6,0x1215
 236:	0b59                	addi	s6,s6,22
 238:	13010b57          	.4byte	0x13010b57
 23c:	0000                	unimp
 23e:	0516                	slli	a0,a0,0x5
 240:	3100                	.2byte	0x3100
 242:	17000013          	li	zero,368
 246:	012e                	slli	sp,sp,0xb
 248:	1331                	addi	t1,t1,-20
 24a:	0111                	addi	sp,sp,4
 24c:	0712                	slli	a4,a4,0x4
 24e:	1840                	addi	s0,sp,52
 250:	197a                	slli	s2,s2,0x3e
 252:	1301                	addi	t1,t1,-32
 254:	0000                	unimp
 256:	0518                	addi	a4,sp,640
 258:	3100                	.2byte	0x3100
 25a:	00180213          	addi	tp,a6,1 # 1215233 <_RODATA_END_+0x120360a>
 25e:	1900                	addi	s0,sp,176
 260:	0111                	addi	sp,sp,4
 262:	0e25                	addi	t3,t3,9
 264:	1f030b13          	addi	s6,t1,496
 268:	01111f1b          	slliw	t5,sp,0x11
 26c:	0712                	slli	a4,a4,0x4
 26e:	1710                	addi	a2,sp,928
 270:	0000                	unimp
 272:	241a                	.2byte	0x241a
 274:	0b00                	addi	s0,sp,400
 276:	030b3e0b          	.4byte	0x30b3e0b
 27a:	0008                	.2byte	0x8
 27c:	1b00                	addi	s0,sp,432
 27e:	0035                	c.nop	13
 280:	1349                	addi	t1,t1,-14
 282:	0000                	unimp
 284:	341c                	.2byte	0x341c
 286:	0300                	addi	s0,sp,384
 288:	3a0e                	.2byte	0x3a0e
 28a:	390b3b0b          	.4byte	0x390b3b0b
 28e:	3f13490b          	.4byte	0x3f13490b
 292:	0219                	addi	tp,tp,6 # 6 <ROM_BASE-0xfffa>
 294:	0018                	.2byte	0x18
 296:	1d00                	addi	s0,sp,688
 298:	0048                	addi	a0,sp,4
 29a:	017d                	addi	sp,sp,31
 29c:	0182                	c.slli64	gp
 29e:	7f19                	lui	t5,0xfffe6
 2a0:	1e000013          	li	zero,480
 2a4:	0026                	c.slli	zero,0x9
 2a6:	1349                	addi	t1,t1,-14
 2a8:	0000                	unimp
 2aa:	341f 0300 3a0e      	.byte	0x1f, 0x34, 0x00, 0x03, 0x0e, 0x3a
 2b0:	390b3b0b          	.4byte	0x390b3b0b
 2b4:	0213490b          	.4byte	0x213490b
 2b8:	20000017          	auipc	zero,0x20000
 2bc:	011d                	addi	sp,sp,7
 2be:	1331                	addi	t1,t1,-20
 2c0:	0152                	slli	sp,sp,0x14
 2c2:	1755                	addi	a4,a4,-11
 2c4:	0b58                	addi	a4,sp,404
 2c6:	0b59                	addi	s6,s6,22
 2c8:	00000b57          	.4byte	0xb57
 2cc:	2e21                	addiw	t3,t3,8
 2ce:	3f00                	.2byte	0x3f00
 2d0:	0319                	addi	t1,t1,6
 2d2:	3a0e                	.2byte	0x3a0e
 2d4:	390b3b0b          	.4byte	0x390b3b0b
 2d8:	2013490b          	.4byte	0x2013490b
 2dc:	2200000b          	.4byte	0x2200000b
 2e0:	012e                	slli	sp,sp,0xb
 2e2:	0e03193f 0b3b0b3a 	.8byte	0xb3b0b3a0e03193f
 2ea:	0b39                	addi	s6,s6,14
 2ec:	13491927          	.4byte	0x13491927
 2f0:	0b20                	addi	s0,sp,408
 2f2:	1301                	addi	t1,t1,-32
 2f4:	0000                	unimp
 2f6:	3f012e23          	sw	a6,1020(sp)
 2fa:	0319                	addi	t1,t1,6
 2fc:	3a0e                	.2byte	0x3a0e
 2fe:	390b3b0b          	.4byte	0x390b3b0b
 302:	2019270b          	.4byte	0x2019270b
 306:	0013010b          	.4byte	0x13010b
 30a:	2400                	.2byte	0x2400
 30c:	0034                	addi	a3,sp,8
 30e:	0b3a0e03          	lb	t3,179(s4)
 312:	0b390b3b          	.4byte	0xb390b3b
 316:	1349                	addi	t1,t1,-14
 318:	0000                	unimp
 31a:	3425                	addiw	s0,s0,-23
 31c:	3100                	.2byte	0x3100
 31e:	00180213          	addi	tp,a6,1
 322:	2600                	.2byte	0x2600
 324:	012e                	slli	sp,sp,0xb
 326:	1331                	addi	t1,t1,-20
 328:	0111                	addi	sp,sp,4
 32a:	0712                	slli	a4,a4,0x4
 32c:	1840                	addi	s0,sp,52
 32e:	197a                	slli	s2,s2,0x3e
 330:	0000                	unimp
 332:	0100                	addi	s0,sp,128
 334:	0005                	c.nop	1
 336:	1331                	addi	t1,t1,-20
 338:	1702                	slli	a4,a4,0x20
 33a:	0000                	unimp
 33c:	3402                	.2byte	0x3402
 33e:	3100                	.2byte	0x3100
 340:	00170213          	addi	tp,a4,1
 344:	0300                	addi	s0,sp,384
 346:	011d                	addi	sp,sp,7
 348:	1331                	addi	t1,t1,-20
 34a:	0152                	slli	sp,sp,0x14
 34c:	1755                	addi	a4,a4,-11
 34e:	2158                	.2byte	0x2158
 350:	5901                	li	s2,-32
 352:	010b570b          	.4byte	0x10b570b
 356:	04000013          	li	zero,64
 35a:	011d                	addi	sp,sp,7
 35c:	1331                	addi	t1,t1,-20
 35e:	0111                	addi	sp,sp,4
 360:	0712                	slli	a4,a4,0x4
 362:	2158                	.2byte	0x2158
 364:	5901                	li	s2,-32
 366:	010b570b          	.4byte	0x10b570b
 36a:	05000013          	li	zero,80
 36e:	0024                	addi	s1,sp,8
 370:	0b3e0b0b          	.4byte	0xb3e0b0b
 374:	00000e03          	lb	t3,0(zero) # 0 <ROM_BASE-0x10000>
 378:	1606                	slli	a2,a2,0x21
 37a:	0300                	addi	s0,sp,384
 37c:	3a0e                	.2byte	0x3a0e
 37e:	390b3b0b          	.4byte	0x390b3b0b
 382:	0013490b          	.4byte	0x13490b
 386:	0700                	addi	s0,sp,896
 388:	0048                	addi	a0,sp,4
 38a:	017d                	addi	sp,sp,31
 38c:	137f                	.2byte	0x137f
 38e:	0000                	unimp
 390:	0508                	addi	a0,sp,640
 392:	3100                	.2byte	0x3100
 394:	09000013          	li	zero,144
 398:	0034                	addi	a3,sp,8
 39a:	213a0803          	lb	a6,531(s4)
 39e:	3b01                	addiw	s6,s6,-32
 3a0:	0e21390b          	.4byte	0xe21390b
 3a4:	1349                	addi	t1,t1,-14
 3a6:	1702                	slli	a4,a4,0x20
 3a8:	0000                	unimp
 3aa:	0b0a                	slli	s6,s6,0x2
 3ac:	5501                	li	a0,-32
 3ae:	0b000017          	auipc	zero,0xb000
 3b2:	1755010b          	.4byte	0x1755010b
 3b6:	1301                	addi	t1,t1,-32
 3b8:	0000                	unimp
 3ba:	0f0c                	addi	a1,sp,912
 3bc:	0b00                	addi	s0,sp,400
 3be:	0821                	addi	a6,a6,8
 3c0:	1349                	addi	t1,t1,-14
 3c2:	0000                	unimp
 3c4:	340d                	addiw	s0,s0,-29
 3c6:	0300                	addi	s0,sp,384
 3c8:	3a0e                	.2byte	0x3a0e
 3ca:	0121                	addi	sp,sp,8
 3cc:	21390b3b          	.4byte	0x21390b3b
 3d0:	490e                	lw	s2,192(sp)
 3d2:	00170213          	addi	tp,a4,1
 3d6:	0e00                	addi	s0,sp,784
 3d8:	0005                	c.nop	1
 3da:	213a0e03          	lb	t3,531(s4)
 3de:	3b01                	addiw	s6,s6,-32
 3e0:	490b390b          	.4byte	0x490b390b
 3e4:	0f000013          	li	zero,240
 3e8:	012e                	slli	sp,sp,0xb
 3ea:	0e03193f 3b04213a 	.8byte	0x3b04213a0e03193f
 3f2:	0621390b          	.4byte	0x621390b
 3f6:	193c1927          	.4byte	0x193c1927
 3fa:	1301                	addi	t1,t1,-32
 3fc:	0000                	unimp
 3fe:	0510                	addi	a2,sp,640
 400:	4900                	lw	s0,16(a0)
 402:	11000013          	li	zero,272
 406:	012e                	slli	sp,sp,0xb
 408:	0e03193f 3b01213a 	.8byte	0x3b01213a0e03193f
 410:	270b390b          	.4byte	0x270b390b
 414:	4919                	li	s2,6
 416:	12011113          	.4byte	0x12011113
 41a:	7a184007          	.4byte	0x7a184007
 41e:	0119                	addi	sp,sp,6
 420:	12000013          	li	zero,288
 424:	0005                	c.nop	1
 426:	213a0e03          	lb	t3,531(s4)
 42a:	3b01                	addiw	s6,s6,-32
 42c:	490b390b          	.4byte	0x490b390b
 430:	00170213          	addi	tp,a4,1
 434:	1300                	addi	s0,sp,416
 436:	0005                	c.nop	1
 438:	213a0803          	lb	a6,531(s4)
 43c:	3b01                	addiw	s6,s6,-32
 43e:	490b390b          	.4byte	0x490b390b
 442:	00180213          	addi	tp,a6,1
 446:	1400                	addi	s0,sp,544
 448:	011d                	addi	sp,sp,7
 44a:	1331                	addi	t1,t1,-20
 44c:	0111                	addi	sp,sp,4
 44e:	0712                	slli	a4,a4,0x4
 450:	2158                	.2byte	0x2158
 452:	5901                	li	s2,-32
 454:	000b570b          	.4byte	0xb570b
 458:	1500                	addi	s0,sp,672
 45a:	0148                	addi	a0,sp,132
 45c:	017d                	addi	sp,sp,31
 45e:	137f                	.2byte	0x137f
 460:	1301                	addi	t1,t1,-32
 462:	0000                	unimp
 464:	4916                	lw	s2,68(sp)
 466:	0200                	addi	s0,sp,256
 468:	7e18                	ld	a4,56(a2)
 46a:	0018                	.2byte	0x18
 46c:	1700                	addi	s0,sp,928
 46e:	0005                	c.nop	1
 470:	1331                	addi	t1,t1,-20
 472:	1802                	slli	a6,a6,0x20
 474:	0000                	unimp
 476:	1118                	addi	a4,sp,160
 478:	2501                	sext.w	a0,a0
 47a:	130e                	slli	t1,t1,0x23
 47c:	1b1f030b          	.4byte	0x1b1f030b
 480:	111f 1201 1007      	.byte	0x1f, 0x11, 0x01, 0x12, 0x07, 0x10
 486:	19000017          	auipc	zero,0x19000
 48a:	0024                	addi	s1,sp,8
 48c:	0b3e0b0b          	.4byte	0xb3e0b0b
 490:	00000803          	lb	a6,0(zero) # 0 <ROM_BASE-0x10000>
 494:	351a                	.2byte	0x351a
 496:	4900                	lw	s0,16(a0)
 498:	1b000013          	li	zero,432
 49c:	0026                	c.slli	zero,0x9
 49e:	1349                	addi	t1,t1,-14
 4a0:	0000                	unimp
 4a2:	1d1c                	addi	a5,sp,688
 4a4:	3101                	addiw	sp,sp,-32
 4a6:	55015213          	.4byte	0x55015213
 4aa:	590b5817          	auipc	a6,0x590b5
 4ae:	000b570b          	.4byte	0xb570b
 4b2:	1d00                	addi	s0,sp,688
 4b4:	0111010b          	.4byte	0x111010b
 4b8:	0712                	slli	a4,a4,0x4
 4ba:	1301                	addi	t1,t1,-32
 4bc:	0000                	unimp
 4be:	2e1e                	.2byte	0x2e1e
 4c0:	3f01                	addiw	t5,t5,-32 # fffffffffffe5fe0 <_RODATA_END_+0xfffffffffffd43b7>
 4c2:	0319                	addi	t1,t1,6
 4c4:	3a0e                	.2byte	0x3a0e
 4c6:	390b3b0b          	.4byte	0x390b3b0b
 4ca:	1201110b          	.4byte	0x1201110b
 4ce:	7a184007          	.4byte	0x7a184007
 4d2:	0119                	addi	sp,sp,6
 4d4:	1f000013          	li	zero,496
 4d8:	0048                	addi	a0,sp,4
 4da:	017d                	addi	sp,sp,31
 4dc:	0182                	c.slli64	gp
 4de:	7f19                	lui	t5,0xfffe6
 4e0:	20000013          	li	zero,512
 4e4:	012e                	slli	sp,sp,0xb
 4e6:	0e03193f 0b3b0b3a 	.8byte	0xb3b0b3a0e03193f
 4ee:	0b39                	addi	s6,s6,14
 4f0:	13491927          	.4byte	0x13491927
 4f4:	0b20                	addi	s0,sp,408
 4f6:	1301                	addi	t1,t1,-32
 4f8:	0000                	unimp
 4fa:	2e21                	addiw	t3,t3,8
 4fc:	3f01                	addiw	t5,t5,-32 # fffffffffffe5fe0 <_RODATA_END_+0xfffffffffffd43b7>
 4fe:	0319                	addi	t1,t1,6
 500:	3a0e                	.2byte	0x3a0e
 502:	390b3b0b          	.4byte	0x390b3b0b
 506:	2019270b          	.4byte	0x2019270b
 50a:	0013010b          	.4byte	0x13010b
 50e:	2200                	.2byte	0x2200
 510:	0034                	addi	a3,sp,8
 512:	0b3a0e03          	lb	t3,179(s4)
 516:	0b390b3b          	.4byte	0xb390b3b
 51a:	1349                	addi	t1,t1,-14
 51c:	0000                	unimp
 51e:	31012e23          	sw	a6,796(sp)
 522:	12011113          	.4byte	0x12011113
 526:	7a184007          	.4byte	0x7a184007
 52a:	0119                	addi	sp,sp,6
 52c:	24000013          	li	zero,576
 530:	0034                	addi	a3,sp,8
 532:	1331                	addi	t1,t1,-20
 534:	1802                	slli	a6,a6,0x20
 536:	0000                	unimp
 538:	2e25                	addiw	t3,t3,9
 53a:	3101                	addiw	sp,sp,-32
 53c:	12011113          	.4byte	0x12011113
 540:	7a184007          	.4byte	0x7a184007
 544:	0019                	c.nop	6
 546:	0000                	unimp
 548:	4901                	li	s2,0
 54a:	0200                	addi	s0,sp,256
 54c:	7e18                	ld	a4,56(a2)
 54e:	0018                	.2byte	0x18
 550:	0200                	addi	s0,sp,256
 552:	0048                	addi	a0,sp,4
 554:	017d                	addi	sp,sp,31
 556:	137f                	.2byte	0x137f
 558:	0000                	unimp
 55a:	7d014803          	lbu	a6,2000(sp)
 55e:	7f01                	lui	t5,0xfffe0
 560:	00130113          	addi	sp,t1,1
 564:	0400                	addi	s0,sp,512
 566:	0034                	addi	a3,sp,8
 568:	213a0803          	lb	a6,531(s4)
 56c:	3b01                	addiw	s6,s6,-32
 56e:	490b390b          	.4byte	0x490b390b
 572:	00170213          	addi	tp,a4,1
 576:	0500                	addi	s0,sp,640
 578:	0024                	addi	s1,sp,8
 57a:	0b3e0b0b          	.4byte	0xb3e0b0b
 57e:	00000e03          	lb	t3,0(zero) # 0 <ROM_BASE-0x10000>
 582:	1606                	slli	a2,a2,0x21
 584:	0300                	addi	s0,sp,384
 586:	3a0e                	.2byte	0x3a0e
 588:	390b3b0b          	.4byte	0x390b3b0b
 58c:	0013490b          	.4byte	0x13490b
 590:	0700                	addi	s0,sp,896
 592:	0005                	c.nop	1
 594:	1349                	addi	t1,t1,-14
 596:	0000                	unimp
 598:	0508                	addi	a0,sp,640
 59a:	0300                	addi	s0,sp,384
 59c:	3a08                	.2byte	0x3a08
 59e:	0121                	addi	sp,sp,8
 5a0:	0b390b3b          	.4byte	0xb390b3b
 5a4:	1349                	addi	t1,t1,-14
 5a6:	1702                	slli	a4,a4,0x20
 5a8:	0000                	unimp
 5aa:	2e09                	addiw	t3,t3,2
 5ac:	3f01                	addiw	t5,t5,-32 # fffffffffffdffe0 <_RODATA_END_+0xfffffffffffce3b7>
 5ae:	0319                	addi	t1,t1,6
 5b0:	3a0e                	.2byte	0x3a0e
 5b2:	0121                	addi	sp,sp,8
 5b4:	0b390b3b          	.4byte	0xb390b3b
 5b8:	1349                	addi	t1,t1,-14
 5ba:	0111                	addi	sp,sp,4
 5bc:	0712                	slli	a4,a4,0x4
 5be:	1840                	addi	s0,sp,52
 5c0:	197a                	slli	s2,s2,0x3e
 5c2:	1301                	addi	t1,t1,-32
 5c4:	0000                	unimp
 5c6:	0b0a                	slli	s6,s6,0x2
 5c8:	5501                	li	a0,-32
 5ca:	00130117          	auipc	sp,0x130
 5ce:	0b00                	addi	s0,sp,400
 5d0:	0148                	addi	a0,sp,132
 5d2:	017d                	addi	sp,sp,31 # 1305e9 <_RODATA_END_+0x11e9c0>
 5d4:	137f                	.2byte	0x137f
 5d6:	0000                	unimp
 5d8:	0f0c                	addi	a1,sp,912
 5da:	0b00                	addi	s0,sp,400
 5dc:	0821                	addi	a6,a6,8 # 590b54b2 <_RODATA_END_+0x590a3889>
 5de:	1349                	addi	t1,t1,-14
 5e0:	0000                	unimp
 5e2:	2e0d                	addiw	t3,t3,3
 5e4:	3f01                	addiw	t5,t5,-32
 5e6:	0319                	addi	t1,t1,6
 5e8:	3a0e                	.2byte	0x3a0e
 5ea:	0121                	addi	sp,sp,8
 5ec:	0b390b3b          	.4byte	0xb390b3b
 5f0:	13491927          	.4byte	0x13491927
 5f4:	0111                	addi	sp,sp,4
 5f6:	0712                	slli	a4,a4,0x4
 5f8:	1840                	addi	s0,sp,52
 5fa:	197a                	slli	s2,s2,0x3e
 5fc:	1301                	addi	t1,t1,-32
 5fe:	0000                	unimp
 600:	050e                	slli	a0,a0,0x3
 602:	0300                	addi	s0,sp,384
 604:	3a0e                	.2byte	0x3a0e
 606:	0121                	addi	sp,sp,8
 608:	0b390b3b          	.4byte	0xb390b3b
 60c:	1349                	addi	t1,t1,-14
 60e:	1702                	slli	a4,a4,0x20
 610:	0000                	unimp
 612:	0300340f          	.4byte	0x300340f
 616:	3a0e                	.2byte	0x3a0e
 618:	0121                	addi	sp,sp,8
 61a:	0b390b3b          	.4byte	0xb390b3b
 61e:	1349                	addi	t1,t1,-14
 620:	1702                	slli	a4,a4,0x20
 622:	0000                	unimp
 624:	2e10                	.2byte	0x2e10
 626:	3f01                	addiw	t5,t5,-32
 628:	0319                	addi	t1,t1,6
 62a:	3a0e                	.2byte	0x3a0e
 62c:	0521                	addi	a0,a0,8
 62e:	0b390b3b          	.4byte	0xb390b3b
 632:	13491927          	.4byte	0x13491927
 636:	193c                	addi	a5,sp,184
 638:	1301                	addi	t1,t1,-32
 63a:	0000                	unimp
 63c:	2e11                	addiw	t3,t3,4
 63e:	3f01                	addiw	t5,t5,-32
 640:	0319                	addi	t1,t1,6
 642:	3a0e                	.2byte	0x3a0e
 644:	0421                	addi	s0,s0,8
 646:	21390b3b          	.4byte	0x21390b3b
 64a:	2706                	.2byte	0x2706
 64c:	3c19                	addiw	s8,s8,-26 # fffffffffffdffe6 <_RODATA_END_+0xfffffffffffce3bd>
 64e:	0119                	addi	sp,sp,6
 650:	12000013          	li	zero,288
 654:	0034                	addi	a3,sp,8
 656:	213a0803          	lb	a6,531(s4)
 65a:	3b01                	addiw	s6,s6,-32
 65c:	0d21390b          	.4byte	0xd21390b
 660:	1349                	addi	t1,t1,-14
 662:	1802                	slli	a6,a6,0x20
 664:	0000                	unimp
 666:	11010b13          	addi	s6,sp,272
 66a:	1201                	addi	tp,tp,-32 # ffffffffffffffe0 <_RODATA_END_+0xfffffffffffee3b7>
 66c:	00130107          	.4byte	0x130107
 670:	1400                	addi	s0,sp,544
 672:	0005                	c.nop	1
 674:	1331                	addi	t1,t1,-20
 676:	1702                	slli	a4,a4,0x20
 678:	0000                	unimp
 67a:	1115                	addi	sp,sp,-27
 67c:	2501                	sext.w	a0,a0
 67e:	130e                	slli	t1,t1,0x23
 680:	1b1f030b          	.4byte	0x1b1f030b
 684:	111f 1201 1007      	.byte	0x1f, 0x11, 0x01, 0x12, 0x07, 0x10
 68a:	16000017          	auipc	zero,0x16000
 68e:	0024                	addi	s1,sp,8
 690:	0b3e0b0b          	.4byte	0xb3e0b0b
 694:	00000803          	lb	a6,0(zero) # 0 <ROM_BASE-0x10000>
 698:	49003517          	auipc	a0,0x49003
 69c:	18000013          	li	zero,384
 6a0:	012e                	slli	sp,sp,0xb
 6a2:	0e03193f 0b3b0b3a 	.8byte	0xb3b0b3a0e03193f
 6aa:	0b39                	addi	s6,s6,14
 6ac:	193c                	addi	a5,sp,184
 6ae:	1301                	addi	t1,t1,-32
 6b0:	0000                	unimp
 6b2:	1819                	addi	a6,a6,-26
 6b4:	0000                	unimp
 6b6:	1a00                	addi	s0,sp,304
 6b8:	0026                	c.slli	zero,0x9
 6ba:	1349                	addi	t1,t1,-14
 6bc:	0000                	unimp
 6be:	0b000f1b          	addiw	t5,zero,176
 6c2:	1c00000b          	.4byte	0x1c00000b
 6c6:	0101                	addi	sp,sp,0
 6c8:	1349                	addi	t1,t1,-14
 6ca:	1301                	addi	t1,t1,-32
 6cc:	0000                	unimp
 6ce:	211d                	addiw	sp,sp,7
 6d0:	4900                	lw	s0,16(a0)
 6d2:	000b2f13          	slti	t5,s6,0
 6d6:	1e00                	addi	s0,sp,816
 6d8:	0005                	c.nop	1
 6da:	0b3a0e03          	lb	t3,179(s4)
 6de:	0b390b3b          	.4byte	0xb390b3b
 6e2:	1349                	addi	t1,t1,-14
 6e4:	1802                	slli	a6,a6,0x20
 6e6:	0000                	unimp
 6e8:	2e1f 3f01 0319      	.byte	0x1f, 0x2e, 0x01, 0x3f, 0x19, 0x03
 6ee:	3a0e                	.2byte	0x3a0e
 6f0:	390b3b0b          	.4byte	0x390b3b0b
 6f4:	4919270b          	.4byte	0x4919270b
 6f8:	010b2013          	slti	zero,s6,16
 6fc:	20000013          	li	zero,512
 700:	0005                	c.nop	1
 702:	0b3a0e03          	lb	t3,179(s4)
 706:	0b390b3b          	.4byte	0xb390b3b
 70a:	1349                	addi	t1,t1,-14
 70c:	0000                	unimp
 70e:	0521                	addi	a0,a0,8 # 490036a0 <_RODATA_END_+0x48ff1a77>
 710:	0300                	addi	s0,sp,384
 712:	3a08                	.2byte	0x3a08
 714:	390b3b0b          	.4byte	0x390b3b0b
 718:	0013490b          	.4byte	0x13490b
 71c:	2200                	.2byte	0x2200
 71e:	0034                	addi	a3,sp,8
 720:	0b3a0e03          	lb	t3,179(s4)
 724:	0b390b3b          	.4byte	0xb390b3b
 728:	1349                	addi	t1,t1,-14
 72a:	0000                	unimp
 72c:	3f012e23          	sw	a6,1020(sp)
 730:	0319                	addi	t1,t1,6
 732:	3a0e                	.2byte	0x3a0e
 734:	390b3b0b          	.4byte	0x390b3b0b
 738:	1119270b          	.4byte	0x1119270b
 73c:	1201                	addi	tp,tp,-32 # ffffffffffffffe0 <_RODATA_END_+0xfffffffffffee3b7>
 73e:	7a184007          	.4byte	0x7a184007
 742:	0119                	addi	sp,sp,6
 744:	24000013          	li	zero,576
 748:	0048                	addi	a0,sp,4
 74a:	017d                	addi	sp,sp,31
 74c:	0182                	c.slli64	gp
 74e:	7f19                	lui	t5,0xfffe6
 750:	25000013          	li	zero,592
 754:	0148                	addi	a0,sp,132
 756:	017d                	addi	sp,sp,31
 758:	0182                	c.slli64	gp
 75a:	7f19                	lui	t5,0xfffe6
 75c:	26000013          	li	zero,608
 760:	012e                	slli	sp,sp,0xb
 762:	1331                	addi	t1,t1,-20
 764:	0111                	addi	sp,sp,4
 766:	0712                	slli	a4,a4,0x4
 768:	1840                	addi	s0,sp,52
 76a:	197a                	slli	s2,s2,0x3e
 76c:	0000                	unimp
 76e:	31003427          	.4byte	0x31003427
 772:	00170213          	addi	tp,a4,1
 776:	0000                	unimp
 778:	4801                	li	a6,0
 77a:	7d00                	ld	s0,56(a0)
 77c:	7f01                	lui	t5,0xfffe0
 77e:	02000013          	li	zero,32
 782:	000d                	c.nop	3
 784:	213a0e03          	lb	t3,531(s4)
 788:	3b04                	.2byte	0x3b04
 78a:	490b390b          	.4byte	0x490b390b
 78e:	000b3813          	sltiu	a6,s6,0
 792:	0300                	addi	s0,sp,384
 794:	0024                	addi	s1,sp,8
 796:	0b3e0b0b          	.4byte	0xb3e0b0b
 79a:	00000e03          	lb	t3,0(zero) # 0 <ROM_BASE-0x10000>
 79e:	4904                	lw	s1,16(a0)
 7a0:	0200                	addi	s0,sp,256
 7a2:	7e18                	ld	a4,56(a2)
 7a4:	0018                	.2byte	0x18
 7a6:	0500                	addi	s0,sp,640
 7a8:	0016                	c.slli	zero,0x5
 7aa:	0b3a0e03          	lb	t3,179(s4)
 7ae:	0b390b3b          	.4byte	0xb390b3b
 7b2:	1349                	addi	t1,t1,-14
 7b4:	0000                	unimp
 7b6:	0506                	slli	a0,a0,0x1
 7b8:	4900                	lw	s0,16(a0)
 7ba:	07000013          	li	zero,112
 7be:	0148                	addi	a0,sp,132
 7c0:	017d                	addi	sp,sp,31
 7c2:	137f                	.2byte	0x137f
 7c4:	1301                	addi	t1,t1,-32
 7c6:	0000                	unimp
 7c8:	3408                	.2byte	0x3408
 7ca:	0300                	addi	s0,sp,384
 7cc:	3a08                	.2byte	0x3a08
 7ce:	0121                	addi	sp,sp,8
 7d0:	0b390b3b          	.4byte	0xb390b3b
 7d4:	1349                	addi	t1,t1,-14
 7d6:	1702                	slli	a4,a4,0x20
 7d8:	0000                	unimp
 7da:	0109                	addi	sp,sp,2
 7dc:	4901                	li	s2,0
 7de:	00130113          	addi	sp,t1,1
 7e2:	0a00                	addi	s0,sp,272
 7e4:	012e                	slli	sp,sp,0xb
 7e6:	0e03193f 3b06213a 	.8byte	0x3b06213a0e03193f
 7ee:	0621390b          	.4byte	0x621390b
 7f2:	193c1927          	.4byte	0x193c1927
 7f6:	1301                	addi	t1,t1,-32
 7f8:	0000                	unimp
 7fa:	0b000f0b          	.4byte	0xb000f0b
 7fe:	0821                	addi	a6,a6,8
 800:	1349                	addi	t1,t1,-14
 802:	0000                	unimp
 804:	340c                	.2byte	0x340c
 806:	0300                	addi	s0,sp,384
 808:	3a0e                	.2byte	0x3a0e
 80a:	0121                	addi	sp,sp,8
 80c:	0b390b3b          	.4byte	0xb390b3b
 810:	1349                	addi	t1,t1,-14
 812:	1702                	slli	a4,a4,0x20
 814:	0000                	unimp
 816:	130d                	addi	t1,t1,-29
 818:	0301                	addi	t1,t1,0
 81a:	0b0e                	slli	s6,s6,0x3
 81c:	04213a0b          	.4byte	0x4213a0b
 820:	21390b3b          	.4byte	0x21390b3b
 824:	0110                	addi	a2,sp,128
 826:	0e000013          	li	zero,224
 82a:	0021                	c.nop	8
 82c:	1349                	addi	t1,t1,-14
 82e:	00000b2f          	.4byte	0xb2f
 832:	0300050f          	.4byte	0x300050f
 836:	3a0e                	.2byte	0x3a0e
 838:	0121                	addi	sp,sp,8
 83a:	3907213b          	.4byte	0x3907213b
 83e:	0213490b          	.4byte	0x213490b
 842:	10000017          	auipc	zero,0x10000
 846:	0111010b          	.4byte	0x111010b
 84a:	0712                	slli	a4,a4,0x4
 84c:	1301                	addi	t1,t1,-32
 84e:	0000                	unimp
 850:	0b11                	addi	s6,s6,4
 852:	5501                	li	a0,-32
 854:	00130117          	auipc	sp,0x130
 858:	1200                	addi	s0,sp,288
 85a:	0021                	c.nop	8
 85c:	1349                	addi	t1,t1,-14
 85e:	0000182f          	.4byte	0x182f
 862:	25011113          	.4byte	0x25011113
 866:	130e                	slli	t1,t1,0x23
 868:	1b1f030b          	.4byte	0x1b1f030b
 86c:	111f 1201 1007      	.byte	0x1f, 0x11, 0x01, 0x12, 0x07, 0x10
 872:	14000017          	auipc	zero,0x14000
 876:	0024                	addi	s1,sp,8
 878:	0b3e0b0b          	.4byte	0xb3e0b0b
 87c:	00000803          	lb	a6,0(zero) # 0 <ROM_BASE-0x10000>
 880:	2e15                	addiw	t3,t3,5
 882:	3f01                	addiw	t5,t5,-32 # fffffffffffdffe0 <_RODATA_END_+0xfffffffffffce3b7>
 884:	0319                	addi	t1,t1,6
 886:	3a0e                	.2byte	0x3a0e
 888:	390b3b0b          	.4byte	0x390b3b0b
 88c:	4919270b          	.4byte	0x4919270b
 890:	01193c13          	sltiu	s8,s2,17
 894:	16000013          	li	zero,352
 898:	0b0b000f          	.4byte	0xb0b000f
 89c:	0000                	unimp
 89e:	49002617          	auipc	a2,0x49002
 8a2:	18000013          	li	zero,384
 8a6:	012e                	slli	sp,sp,0xb
 8a8:	0e03193f 0b3b0b3a 	.8byte	0xb3b0b3a0e03193f
 8b0:	0b39                	addi	s6,s6,14
 8b2:	1349                	addi	t1,t1,-14
 8b4:	193c                	addi	a5,sp,184
 8b6:	1301                	addi	t1,t1,-32
 8b8:	0000                	unimp
 8ba:	1819                	addi	a6,a6,-26
 8bc:	0000                	unimp
 8be:	1a00                	addi	s0,sp,304
 8c0:	012e                	slli	sp,sp,0xb
 8c2:	0e03193f 0b3b0b3a 	.8byte	0xb3b0b3a0e03193f
 8ca:	0b39                	addi	s6,s6,14
 8cc:	13491927          	.4byte	0x13491927
 8d0:	0111                	addi	sp,sp,4 # 130858 <_RODATA_END_+0x11ec2f>
 8d2:	0712                	slli	a4,a4,0x4
 8d4:	1840                	addi	s0,sp,52
 8d6:	197a                	slli	s2,s2,0x3e
 8d8:	1301                	addi	t1,t1,-32
 8da:	0000                	unimp
 8dc:	0300341b          	.4byte	0x300341b
 8e0:	3a0e                	.2byte	0x3a0e
 8e2:	390b3b0b          	.4byte	0x390b3b0b
 8e6:	1c13490b          	.4byte	0x1c13490b
 8ea:	0005                	c.nop	1
 8ec:	1c00                	addi	s0,sp,560
 8ee:	0034                	addi	a3,sp,8
 8f0:	0b3a0e03          	lb	t3,179(s4)
 8f4:	0b390b3b          	.4byte	0xb390b3b
 8f8:	1349                	addi	t1,t1,-14
 8fa:	1802                	slli	a6,a6,0x20
 8fc:	0000                	unimp
 8fe:	0b1d                	addi	s6,s6,7
 900:	5501                	li	a0,-32
 902:	00000017          	auipc	zero,0x0

Disassembly of section .debug_aranges:

0000000000000000 <.debug_aranges>:
   0:	002c                	addi	a1,sp,8
   2:	0000                	unimp
   4:	0002                	c.slli64	zero
   6:	0000                	unimp
   8:	0000                	unimp
   a:	0008                	.2byte	0x8
   c:	0000                	unimp
   e:	0000                	unimp
  10:	0000                	unimp
  12:	0001                	nop
  14:	0000                	unimp
  16:	0000                	unimp
  18:	0090                	addi	a2,sp,64
	...
  2e:	0000                	unimp
  30:	003c                	addi	a5,sp,8
  32:	0000                	unimp
  34:	0002                	c.slli64	zero
  36:	0029                	c.nop	10
  38:	0000                	unimp
  3a:	0008                	.2byte	0x8
  3c:	0000                	unimp
  3e:	0000                	unimp
  40:	0100                	addi	s0,sp,128
  42:	0001                	nop
  44:	0000                	unimp
  46:	0000                	unimp
  48:	0002                	c.slli64	zero
  4a:	0000                	unimp
  4c:	0000                	unimp
  4e:	0000                	unimp
  50:	0a7e                	slli	s4,s4,0x1f
  52:	0001                	nop
  54:	0000                	unimp
  56:	0000                	unimp
  58:	0034                	addi	a3,sp,8
	...
  6e:	0000                	unimp
  70:	002c                	addi	a1,sp,8
  72:	0000                	unimp
  74:	0002                	c.slli64	zero
  76:	019e                	slli	gp,gp,0x7
  78:	0000                	unimp
  7a:	0008                	.2byte	0x8
  7c:	0000                	unimp
  7e:	0000                	unimp
  80:	0102                	c.slli64	sp
  82:	0001                	nop
  84:	0000                	unimp
  86:	0000                	unimp
  88:	0152                	slli	sp,sp,0x14
	...
  9e:	0000                	unimp
  a0:	002c                	addi	a1,sp,8
  a2:	0000                	unimp
  a4:	0002                	c.slli64	zero
  a6:	00000813          	li	a6,0
  aa:	0008                	.2byte	0x8
  ac:	0000                	unimp
  ae:	0000                	unimp
  b0:	0254                	addi	a3,sp,260
  b2:	0001                	nop
  b4:	0000                	unimp
  b6:	0000                	unimp
  b8:	0198                	addi	a4,sp,192
	...
  ce:	0000                	unimp
  d0:	002c                	addi	a1,sp,8
  d2:	0000                	unimp
  d4:	0002                	c.slli64	zero
  d6:	00000fc3          	.4byte	0xfc3
  da:	0008                	.2byte	0x8
  dc:	0000                	unimp
  de:	0000                	unimp
  e0:	03ec                	addi	a1,sp,460
  e2:	0001                	nop
  e4:	0000                	unimp
  e6:	0000                	unimp
  e8:	03ce                	slli	t2,t2,0x13
	...
  fe:	0000                	unimp
 100:	002c                	addi	a1,sp,8
 102:	0000                	unimp
 104:	0002                	c.slli64	zero
 106:	1922                	slli	s2,s2,0x28
 108:	0000                	unimp
 10a:	0008                	.2byte	0x8
 10c:	0000                	unimp
 10e:	0000                	unimp
 110:	07ba                	slli	a5,a5,0xe
 112:	0001                	nop
 114:	0000                	unimp
 116:	0000                	unimp
 118:	02c4                	addi	s1,sp,324
	...

Disassembly of section .debug_str:

0000000000000000 <.debug_str>:
   0:	72617473          	csrrci	s0,mhpmevent6h,2
   4:	7574                	ld	a3,232(a0)
   6:	2e70                	.2byte	0x2e70
   8:	682f0053          	.4byte	0x682f0053
   c:	2f656d6f          	jal	s10,56302 <_RODATA_END_+0x446d9>
  10:	616d                	addi	sp,sp,240
  12:	2f78                	.2byte	0x2f78
  14:	6b726f57          	.4byte	0x6b726f57
  18:	7261                	lui	tp,0xffff8
  1a:	6165                	addi	sp,sp,112
  1c:	6c75632f          	.4byte	0x6c75632f
  20:	736e6173          	csrrsi	sp,mhpmevent22h,28
  24:	646f6d2f          	.4byte	0x646f6d2f
  28:	6c75                	lui	s8,0x1d
  2a:	7365                	lui	t1,0xffff9
  2c:	6176632f          	.4byte	0x6176632f
  30:	2f36                	.2byte	0x2f36
  32:	65726f63          	bltu	tp,s7,690 <ROM_BASE-0xf970>
  36:	5f76                	lw	t5,124(sp)
  38:	7061                	c.lui	zero,0xffff8
  3a:	2f75                	addiw	t5,t5,29
  3c:	7066                	.2byte	0x7066
  3e:	732f6167          	.4byte	0x732f6167
  42:	6372                	ld	t1,280(sp)
  44:	6f6f622f          	.4byte	0x6f6f622f
  48:	7274                	ld	a3,224(a2)
  4a:	47006d6f          	jal	s10,64ba <ROM_BASE-0x9b46>
  4e:	554e                	lw	a0,240(sp)
  50:	4120                	lw	s0,64(a0)
  52:	2e322053          	.4byte	0x2e322053
  56:	5f003933          	.4byte	0x5f003933
  5a:	755f 6e69 3874      	.byte	0x5f, 0x75, 0x69, 0x6e, 0x74, 0x38
  60:	745f 6900 696e      	.byte	0x5f, 0x74, 0x00, 0x69, 0x6e, 0x69
  66:	5f74                	lw	a3,124(a4)
  68:	6175                	addi	sp,sp,368
  6a:	7472                	ld	s0,312(sp)
  6c:	7000                	ld	s0,32(s0)
  6e:	6972                	ld	s2,280(sp)
  70:	746e                	ld	s0,248(sp)
  72:	755f 7261 0074      	.byte	0x5f, 0x75, 0x61, 0x72, 0x74, 0x00
  78:	6e75                	lui	t3,0x1d
  7a:	6e676973          	csrrsi	s2,0x6e6,14
  7e:	6465                	lui	s0,0x19
  80:	6320                	ld	s0,64(a4)
  82:	6168                	ld	a0,192(a0)
  84:	0072                	c.slli	zero,0x1c
  86:	6168                	ld	a0,192(a0)
  88:	646e                	ld	s0,216(sp)
  8a:	656c                	ld	a1,200(a0)
  8c:	745f 6172 0070      	.byte	0x5f, 0x74, 0x72, 0x61, 0x70, 0x00
  92:	6f6c                	ld	a1,216(a4)
  94:	676e                	ld	a4,216(sp)
  96:	7520                	ld	s0,104(a0)
  98:	736e                	ld	t1,248(sp)
  9a:	6769                	lui	a4,0x1a
  9c:	656e                	ld	a0,216(sp)
  9e:	2064                	.2byte	0x2064
  a0:	6e69                	lui	t3,0x1a
  a2:	0074                	addi	a3,sp,12
  a4:	726f6873          	csrrsi	a6,mhpmevent6h,30
  a8:	2074                	.2byte	0x2074
  aa:	6e75                	lui	t3,0x1d
  ac:	6e676973          	csrrsi	s2,0x6e6,14
  b0:	6465                	lui	s0,0x19
  b2:	6920                	ld	s0,80(a0)
  b4:	746e                	ld	s0,248(sp)
  b6:	5f00                	lw	s0,56(a4)
  b8:	755f 6e69 3374      	.byte	0x5f, 0x75, 0x69, 0x6e, 0x74, 0x33
  be:	5f32                	lw	t5,44(sp)
  c0:	0074                	addi	a3,sp,12
  c2:	5f747067          	.4byte	0x5f747067
  c6:	6966                	ld	s2,88(sp)
  c8:	646e                	ld	s0,216(sp)
  ca:	625f 6f6f 5f74      	.byte	0x5f, 0x62, 0x6f, 0x6f, 0x74, 0x5f
  d0:	6170                	ld	a2,192(a0)
  d2:	7472                	ld	s0,312(sp)
  d4:	7469                	lui	s0,0xffffa
  d6:	6f69                	lui	t5,0x1a
  d8:	006e                	c.slli	zero,0x1b
  da:	616d                	addi	sp,sp,240
  dc:	6e69                	lui	t3,0x1a
  de:	4700                	lw	s0,8(a4)
  e0:	554e                	lw	a0,240(sp)
  e2:	4320                	lw	s0,64(a4)
  e4:	3731                	addiw	a4,a4,-20 # 19fec <_RODATA_END_+0x83c3>
  e6:	3120                	.2byte	0x3120
  e8:	2e32                	.2byte	0x2e32
  ea:	2e32                	.2byte	0x2e32
  ec:	2030                	.2byte	0x2030
  ee:	6d2d                	lui	s10,0xb
  f0:	6261                	lui	tp,0x18
  f2:	3d69                	addiw	s10,s10,-6 # affa <ROM_BASE-0x5006>
  f4:	706c                	ld	a1,224(s0)
  f6:	3436                	.2byte	0x3436
  f8:	2d20                	.2byte	0x2d20
  fa:	636d                	lui	t1,0x1b
  fc:	6f6d                	lui	t5,0x1b
  fe:	6564                	ld	s1,200(a0)
 100:	3d6c                	.2byte	0x3d6c
 102:	656d                	lui	a0,0x1b
 104:	6164                	ld	s1,192(a0)
 106:	796e                	ld	s2,248(sp)
 108:	2d20                	.2byte	0x2d20
 10a:	656d                	lui	a0,0x1b
 10c:	7078                	ld	a4,224(s0)
 10e:	696c                	ld	a1,208(a0)
 110:	2d746963          	bltu	s0,s7,3e2 <ROM_BASE-0xfc1e>
 114:	6572                	ld	a0,280(sp)
 116:	6f6c                	ld	a1,216(a4)
 118:	2d207363          	bgeu	zero,s2,3de <ROM_BASE-0xfc22>
 11c:	746d                	lui	s0,0xffffb
 11e:	6e75                	lui	t3,0x1d
 120:	3d65                	addiw	s10,s10,-7
 122:	6f72                	ld	t5,280(sp)
 124:	74656b63          	bltu	a0,t1,87a <ROM_BASE-0xf786>
 128:	2d20                	.2byte	0x2d20
 12a:	696d                	lui	s2,0x1b
 12c:	732d6173          	csrrsi	sp,mhpmevent18h,26
 130:	6570                	ld	a2,200(a0)
 132:	2e323d63          	.4byte	0x2e323d63
 136:	2032                	.2byte	0x2032
 138:	6d2d                	lui	s10,0xb
 13a:	7261                	lui	tp,0xffff8
 13c:	723d6863          	bltu	s10,gp,86c <ROM_BASE-0xf794>
 140:	3676                	.2byte	0x3676
 142:	6934                	ld	a3,80(a0)
 144:	616d                	addi	sp,sp,240
 146:	672d2063          	.4byte	0x672d2063
 14a:	20626467          	.4byte	0x20626467
 14e:	4f2d                	li	t5,11
 150:	662d2073          	csrs	0x662,s10
 154:	6f6e                	ld	t5,216(sp)
 156:	622d                	lui	tp,0xb
 158:	6975                	lui	s2,0x1d
 15a:	746c                	ld	a1,232(s0)
 15c:	6e69                	lui	t3,0x1a
 15e:	7300                	ld	s0,32(a4)
 160:	6f68                	ld	a0,216(a4)
 162:	7472                	ld	s0,312(sp)
 164:	6920                	ld	s0,80(a0)
 166:	746e                	ld	s0,248(sp)
 168:	7000                	ld	s0,32(s0)
 16a:	6972                	ld	s2,280(sp)
 16c:	746e                	ld	s0,248(sp)
 16e:	755f 7261 5f74      	.byte	0x5f, 0x75, 0x61, 0x72, 0x74, 0x5f
 174:	6e69                	lui	t3,0x1a
 176:	0074                	addi	a3,sp,12
 178:	7369                	lui	t1,0xffffa
 17a:	745f 6172 736e      	.byte	0x5f, 0x74, 0x72, 0x61, 0x6e, 0x73
 180:	696d                	lui	s2,0x1b
 182:	5f74                	lw	a3,124(a4)
 184:	6d65                	lui	s10,0x19
 186:	7470                	ld	a2,232(s0)
 188:	0079                	c.nop	30
 18a:	74697277          	.4byte	0x74697277
 18e:	5f65                	li	t5,-7
 190:	6572                	ld	a0,280(sp)
 192:	38755f67          	.4byte	0x38755f67
 196:	7700                	ld	s0,40(a4)
 198:	6972                	ld	s2,280(sp)
 19a:	6574                	ld	a3,200(a0)
 19c:	735f 7265 6169      	.byte	0x5f, 0x73, 0x65, 0x72, 0x69, 0x61
 1a2:	006c                	addi	a1,sp,12
 1a4:	5f5f 6975 746e      	.byte	0x5f, 0x5f, 0x75, 0x69, 0x6e, 0x74
 1aa:	7470                	ld	a2,232(s0)
 1ac:	5f72                	lw	t5,60(sp)
 1ae:	0074                	addi	a3,sp,12
 1b0:	6962                	ld	s2,24(sp)
 1b2:	5f6e                	lw	t5,248(sp)
 1b4:	6f74                	ld	a3,216(a4)
 1b6:	685f 7865 745f      	.byte	0x5f, 0x68, 0x65, 0x78, 0x5f, 0x74
 1bc:	6261                	lui	tp,0x18
 1be:	656c                	ld	a1,200(a0)
 1c0:	6c00                	ld	s0,24(s0)
 1c2:	615f636f          	jal	t1,f6fd6 <_RODATA_END_+0xe53ad>
 1c6:	6464                	ld	s1,200(s0)
 1c8:	0072                	c.slli	zero,0x1c
 1ca:	6962                	ld	s2,24(sp)
 1cc:	5f6e                	lw	t5,248(sp)
 1ce:	6f74                	ld	a3,216(a4)
 1d0:	685f 7865 6200      	.byte	0x5f, 0x68, 0x65, 0x78, 0x00, 0x62
 1d6:	7561                	lui	a0,0xffff8
 1d8:	0064                	addi	s1,sp,12
 1da:	6176                	ld	sp,344(sp)
 1dc:	756c                	ld	a1,232(a0)
 1de:	0065                	c.nop	25
 1e0:	7266                	ld	tp,120(sp)
 1e2:	7165                	addi	sp,sp,-400
 1e4:	7000                	ld	s0,32(s0)
 1e6:	6972                	ld	s2,280(sp)
 1e8:	746e                	ld	s0,248(sp)
 1ea:	755f 7261 5f74      	.byte	0x5f, 0x75, 0x61, 0x72, 0x74, 0x5f
 1f0:	7962                	ld	s2,56(sp)
 1f2:	6574                	ld	a3,200(a0)
 1f4:	7000                	ld	s0,32(s0)
 1f6:	6972                	ld	s2,280(sp)
 1f8:	746e                	ld	s0,248(sp)
 1fa:	755f 7261 5f74      	.byte	0x5f, 0x75, 0x61, 0x72, 0x74, 0x5f
 200:	6461                	lui	s0,0x18
 202:	7264                	ld	s1,224(a2)
 204:	5f00                	lw	s0,56(a4)
 206:	755f 6e69 3674      	.byte	0x5f, 0x75, 0x69, 0x6e, 0x74, 0x36
 20c:	5f34                	lw	a3,120(a4)
 20e:	0074                	addi	a3,sp,12
 210:	6572                	ld	a0,280(sp)
 212:	6461                	lui	s0,0x18
 214:	725f 6765 755f      	.byte	0x5f, 0x72, 0x65, 0x67, 0x5f, 0x75
 21a:	0038                	addi	a4,sp,8
 21c:	6964                	ld	s1,208(a0)
 21e:	6976                	ld	s2,344(sp)
 220:	00726f73          	csrrsi	t5,0x7,4
 224:	5f697073          	csrci	0x5f6,18
 228:	7874                	ld	a3,240(s0)
 22a:	7872                	ld	a6,312(sp)
 22c:	7300                	ld	s0,32(a4)
 22e:	6970                	ld	a2,208(a0)
 230:	775f 6972 6574      	.byte	0x5f, 0x77, 0x72, 0x69, 0x74, 0x65
 236:	625f 7479 7365      	.byte	0x5f, 0x62, 0x79, 0x74, 0x65, 0x73
 23c:	7200                	ld	s0,32(a2)
 23e:	7365                	lui	t1,0xffff9
 240:	6c75                	lui	s8,0x1d
 242:	0074                	addi	a3,sp,12
 244:	74697277          	.4byte	0x74697277
 248:	5f65                	li	t5,-7
 24a:	6572                	ld	a0,280(sp)
 24c:	65720067          	jr	1623(tp) # 0 <ROM_BASE-0x10000>
 250:	6461                	lui	s0,0x18
 252:	725f 6765 7300      	.byte	0x5f, 0x72, 0x65, 0x67, 0x00, 0x73
 258:	6970                	ld	a2,208(a0)
 25a:	695f 696e 0074      	.byte	0x5f, 0x69, 0x6e, 0x69, 0x74, 0x00
 260:	31637263          	bgeu	t1,s6,564 <ROM_BASE-0xfa9c>
 264:	0036                	c.slli	zero,0xd
 266:	6572                	ld	a0,280(sp)
 268:	616d                	addi	sp,sp,240
 26a:	6e69                	lui	t3,0x1a
 26c:	6564                	ld	s1,200(a0)
 26e:	0072                	c.slli	zero,0x1c
 270:	5f637263          	bgeu	t1,s6,854 <ROM_BASE-0xf7ac>
 274:	7865                	lui	a6,0xffff9
 276:	0070                	addi	a2,sp,12
 278:	645f6473          	csrrsi	s0,hvip,30
 27c:	6d75                	lui	s10,0x1d
 27e:	796d                	lui	s2,0xffffb
 280:	5f00                	lw	s0,56(a4)
 282:	755f 6e69 3174      	.byte	0x5f, 0x75, 0x69, 0x6e, 0x74, 0x31
 288:	5f36                	lw	t5,108(sp)
 28a:	0074                	addi	a3,sp,12
 28c:	635f6473          	csrrsi	s0,0x635,30
 290:	0079706f          	j	97a96 <_RODATA_END_+0x85e6d>
 294:	635f6473          	csrrsi	s0,0x635,30
 298:	646d                	lui	s0,0x1b
 29a:	6900                	ld	s0,16(a0)
 29c:	696e                	ld	s2,216(sp)
 29e:	5f74                	lw	a3,124(a4)
 2a0:	63006473          	csrrsi	s0,0x630,0
 2a4:	746e756f          	jal	a0,e79ea <_RODATA_END_+0xd5dc1>
 2a8:	7265                	lui	tp,0xffff9
 2aa:	7300                	ld	s0,32(a4)
 2ac:	6372                	ld	t1,280(sp)
 2ae:	6c5f 6162 7300      	.byte	0x5f, 0x6c, 0x62, 0x61, 0x00, 0x73
 2b4:	5f64                	lw	s1,124(a4)
 2b6:	35646d63          	bltu	s0,s6,610 <ROM_BASE-0xf9f0>
 2ba:	0035                	c.nop	13
 2bc:	6164                	ld	s1,192(a0)
 2be:	6174                	ld	a3,192(a0)
 2c0:	6300                	ld	s0,0(a4)
 2c2:	6372                	ld	t1,280(sp)
 2c4:	65720037          	lui	zero,0x65720
 2c8:	6e6f7073          	csrci	0x6e6,30
 2cc:	62006573          	csrrsi	a0,0x620,0
 2d0:	7479                	lui	s0,0xffffe
 2d2:	7365                	lui	t1,0xffff9
 2d4:	705f 7265 745f      	.byte	0x5f, 0x70, 0x65, 0x72, 0x5f, 0x74
 2da:	6172                	ld	sp,280(sp)
 2dc:	736e                	ld	t1,248(sp)
 2de:	6566                	ld	a0,88(sp)
 2e0:	0072                	c.slli	zero,0x1c
 2e2:	7270                	ld	a2,224(a2)
 2e4:	7665                	lui	a2,0xffff9
 2e6:	7000                	ld	s0,32(s0)
 2e8:	6972                	ld	s2,280(sp)
 2ea:	746e                	ld	s0,248(sp)
 2ec:	735f 6174 7574      	.byte	0x5f, 0x73, 0x74, 0x61, 0x74, 0x75
 2f2:	64730073          	.4byte	0x64730073
 2f6:	635f 646d 0030      	.byte	0x5f, 0x63, 0x6d, 0x64, 0x30, 0x00
 2fc:	615f6473          	csrrsi	s0,htimedeltah,30
 300:	34646d63          	bltu	s0,t1,65a <ROM_BASE-0xf9a6>
 304:	0031                	c.nop	12
 306:	635f6473          	csrrsi	s0,0x635,30
 30a:	646d                	lui	s0,0x1b
 30c:	0038                	addi	a4,sp,8
 30e:	6c62                	ld	s8,24(sp)
 310:	5f6b636f          	jal	t1,b6906 <_RODATA_END_+0xa4cdd>
 314:	657a6973          	csrrsi	s2,0x657,20
 318:	6100                	ld	s0,0(a0)
 31a:	7474                	ld	a3,232(s0)
 31c:	6972                	ld	s2,280(sp)
 31e:	7562                	ld	a0,56(sp)
 320:	6574                	ld	a3,200(a0)
 322:	65640073          	.4byte	0x65640073
 326:	63007473          	csrrci	s0,0x630,0
 32a:	6372                	ld	t1,280(sp)
 32c:	705f 7261 6974      	.byte	0x5f, 0x70, 0x61, 0x72, 0x74, 0x69
 332:	6974                	ld	a3,208(a0)
 334:	655f6e6f          	jal	t3,f7188 <_RODATA_END_+0xe555f>
 338:	746e                	ld	s0,248(sp)
 33a:	7972                	ld	s2,312(sp)
 33c:	7000                	ld	s0,32(s0)
 33e:	7261                	lui	tp,0xffff8
 340:	6974                	ld	a3,208(a0)
 342:	6974                	ld	a3,208(a0)
 344:	655f6e6f          	jal	t3,f7198 <_RODATA_END_+0xe556f>
 348:	746e                	ld	s0,248(sp)
 34a:	6972                	ld	s2,280(sp)
 34c:	7365                	lui	t1,0xffff9
 34e:	6c5f 6162 7300      	.byte	0x5f, 0x6c, 0x62, 0x61, 0x00, 0x73
 354:	7a69                	lui	s4,0xffffa
 356:	5f65                	li	t5,-7
 358:	0074                	addi	a3,sp,12
 35a:	6170                	ld	a2,192(a0)
 35c:	7472                	ld	s0,312(sp)
 35e:	7469                	lui	s0,0xffffa
 360:	6f69                	lui	t5,0x1a
 362:	5f6e                	lw	t5,248(sp)
 364:	6e65                	lui	t3,0x19
 366:	7274                	ld	a3,224(a2)
 368:	6569                	lui	a0,0x1a
 36a:	00745f73          	csrrwi	t5,0x7,8
 36e:	6170                	ld	a2,192(a0)
 370:	7472                	ld	s0,312(sp)
 372:	7469                	lui	s0,0xffffa
 374:	6f69                	lui	t5,0x1a
 376:	5f6e                	lw	t5,248(sp)
 378:	64697567          	.4byte	0x64697567
 37c:	6c00                	ld	s0,24(s0)
 37e:	6162                	ld	sp,24(sp)
 380:	5f32                	lw	t5,44(sp)
 382:	7562                	ld	a0,56(sp)
 384:	0066                	c.slli	zero,0x19
 386:	6f62                	ld	t5,24(sp)
 388:	6c00746f          	jal	s0,7a48 <ROM_BASE-0x85b8>
 38c:	20676e6f          	jal	t3,76592 <_RODATA_END_+0x64969>
 390:	6f6c                	ld	a1,216(a4)
 392:	676e                	ld	a4,216(sp)
 394:	6920                	ld	s0,80(a0)
 396:	746e                	ld	s0,248(sp)
 398:	7200                	ld	s0,32(a2)
 39a:	7665                	lui	a2,0xffff9
 39c:	7369                	lui	t1,0xffffa
 39e:	6f69                	lui	t5,0x1a
 3a0:	006e                	c.slli	zero,0x1b
 3a2:	6966                	ld	s2,88(sp)
 3a4:	7372                	ld	t1,312(sp)
 3a6:	5f74                	lw	a3,124(a4)
 3a8:	7375                	lui	t1,0xffffd
 3aa:	6261                	lui	tp,0x18
 3ac:	656c                	ld	a1,200(a0)
 3ae:	6c5f 6162 6e00      	.byte	0x5f, 0x6c, 0x62, 0x61, 0x00, 0x6e
 3b4:	6d61                	lui	s10,0x18
 3b6:	0065                	c.nop	25
 3b8:	6f6c                	ld	a1,216(a4)
 3ba:	676e                	ld	a4,216(sp)
 3bc:	6420                	ld	s0,72(s0)
 3be:	6c62756f          	jal	a0,27a84 <_RODATA_END_+0x15e5b>
 3c2:	0065                	c.nop	25
 3c4:	6568                	ld	a0,200(a0)
 3c6:	6461                	lui	s0,0x18
 3c8:	7265                	lui	tp,0xffff9
 3ca:	735f 7a69 0065      	.byte	0x5f, 0x73, 0x69, 0x7a, 0x65, 0x00
 3d0:	6572                	ld	a0,280(sp)
 3d2:	76726573          	csrrsi	a0,0x767,4
 3d6:	6465                	lui	s0,0x19
 3d8:	6c00                	ld	s0,24(s0)
 3da:	7361                	lui	t1,0xffff8
 3dc:	5f74                	lw	a3,124(a4)
 3de:	7375                	lui	t1,0xffffd
 3e0:	6261                	lui	tp,0x18
 3e2:	656c                	ld	a1,200(a0)
 3e4:	6c5f 6162 6c00      	.byte	0x5f, 0x6c, 0x62, 0x61, 0x00, 0x6c
 3ea:	6162                	ld	sp,24(sp)
 3ec:	0031                	c.nop	12
 3ee:	626c                	ld	a1,192(a2)
 3f0:	3161                	addiw	sp,sp,-8
 3f2:	625f 6675 6700      	.byte	0x5f, 0x62, 0x75, 0x66, 0x00, 0x67
 3f8:	7470                	ld	a2,232(s0)
 3fa:	705f 6874 745f      	.byte	0x5f, 0x70, 0x74, 0x68, 0x5f, 0x74
 400:	6300                	ld	s0,0(a4)
 402:	7275                	lui	tp,0xffffd
 404:	6572                	ld	a0,280(sp)
 406:	746e                	ld	s0,248(sp)
 408:	6c5f 6162 7000      	.byte	0x5f, 0x6c, 0x62, 0x61, 0x00, 0x70
 40e:	7261                	lui	tp,0xffff8
 410:	6974                	ld	a3,208(a0)
 412:	6974                	ld	a3,208(a0)
 414:	745f6e6f          	jal	t3,f7358 <_RODATA_END_+0xe572f>
 418:	7079                	c.lui	zero,0xffffe
 41a:	5f65                	li	t5,-7
 41c:	64697567          	.4byte	0x64697567
 420:	7300                	ld	s0,32(a4)
 422:	7a69                	lui	s4,0xffffa
 424:	5f65                	li	t5,-7
 426:	6170                	ld	a2,192(a0)
 428:	7472                	ld	s0,312(sp)
 42a:	7469                	lui	s0,0xffffa
 42c:	6f69                	lui	t5,0x1a
 42e:	5f6e                	lw	t5,248(sp)
 430:	6e65                	lui	t3,0x19
 432:	7274                	ld	a3,224(a2)
 434:	0079                	c.nop	30
 436:	726e                	ld	tp,248(sp)
 438:	705f 7261 6974      	.byte	0x5f, 0x70, 0x61, 0x72, 0x74, 0x69
 43e:	6974                	ld	a3,208(a0)
 440:	655f6e6f          	jal	t3,f7294 <_RODATA_END_+0xe566b>
 444:	746e                	ld	s0,248(sp)
 446:	6972                	ld	s2,280(sp)
 448:	7365                	lui	t1,0xffff9
 44a:	6600                	ld	s0,8(a2)
 44c:	7269                	lui	tp,0xffffa
 44e:	6c5f7473          	csrrci	s0,0x6c5,30
 452:	6162                	ld	sp,24(sp)
 454:	6200                	ld	s0,0(a2)
 456:	6361                	lui	t1,0x18
 458:	5f70756b          	.4byte	0x5f70756b
 45c:	626c                	ld	a1,192(a2)
 45e:	0061                	c.nop	24
 460:	6e676973          	csrrsi	s2,0x6e6,14
 464:	7461                	lui	s0,0xffff8
 466:	7275                	lui	tp,0xffffd
 468:	0065                	c.nop	25
 46a:	5f637263          	bgeu	t1,s6,a4e <ROM_BASE-0xf5b2>
 46e:	6568                	ld	a0,200(a0)
 470:	6461                	lui	s0,0x18
 472:	7265                	lui	tp,0xffff9
 474:	6700                	ld	s0,8(a4)
 476:	7470                	ld	a2,232(s0)
 478:	705f 6874 6400      	.byte	0x5f, 0x70, 0x74, 0x68, 0x00, 0x64
 47e:	7369                	lui	t1,0xffffa
 480:	75675f6b          	.4byte	0x75675f6b
 484:	6469                	lui	s0,0x1a
 486:	7000                	ld	s0,32(s0)
 488:	7261                	lui	tp,0xffff8
 48a:	5f74                	lw	a3,124(a4)
 48c:	6e65                	lui	t3,0x19
 48e:	7274                	ld	a3,224(a2)
 490:	0079                	c.nop	30
 492:	616c                	ld	a1,192(a0)
 494:	6c5f7473          	csrrci	s0,0x6c5,30
 498:	6162                	ld	sp,24(sp)
	...

Disassembly of section .debug_rnglists:

0000000000000000 <.debug_rnglists>:
   0:	0000002b          	.4byte	0x2b
   4:	0005                	c.nop	1
   6:	0008                	.2byte	0x8
   8:	0000                	unimp
   a:	0000                	unimp
   c:	0006                	c.slli	zero,0x1
   e:	0101                	addi	sp,sp,0
  10:	0000                	unimp
  12:	0000                	unimp
  14:	0200                	addi	s0,sp,256
  16:	0101                	addi	sp,sp,0
  18:	0000                	unimp
  1a:	0000                	unimp
  1c:	0600                	addi	s0,sp,768
  1e:	0a7e                	slli	s4,s4,0x1f
  20:	0001                	nop
  22:	0000                	unimp
  24:	0000                	unimp
  26:	0ab2                	slli	s5,s5,0xc
  28:	0001                	nop
  2a:	0000                	unimp
  2c:	0000                	unimp
  2e:	9400                	.2byte	0x9400
  30:	0000                	unimp
  32:	0500                	addi	s0,sp,640
  34:	0800                	addi	s0,sp,16
  36:	0000                	unimp
  38:	0000                	unimp
  3a:	0600                	addi	s0,sp,768
  3c:	011c                	addi	a5,sp,128
  3e:	0001                	nop
  40:	0000                	unimp
  42:	0000                	unimp
  44:	0120                	addi	s0,sp,136
  46:	0001                	nop
  48:	0000                	unimp
  4a:	0000                	unimp
  4c:	2006                	.2byte	0x2006
  4e:	0101                	addi	sp,sp,0
  50:	0000                	unimp
  52:	0000                	unimp
  54:	2400                	.2byte	0x2400
  56:	0101                	addi	sp,sp,0
  58:	0000                	unimp
  5a:	0000                	unimp
  5c:	0000                	unimp
  5e:	4c06                	lw	s8,64(sp)
  60:	0101                	addi	sp,sp,0
  62:	0000                	unimp
  64:	0000                	unimp
  66:	4c00                	lw	s0,24(s0)
  68:	0101                	addi	sp,sp,0
  6a:	0000                	unimp
  6c:	0000                	unimp
  6e:	0600                	addi	s0,sp,768
  70:	0150                	addi	a2,sp,132
  72:	0001                	nop
  74:	0000                	unimp
  76:	0000                	unimp
  78:	0154                	addi	a3,sp,132
  7a:	0001                	nop
  7c:	0000                	unimp
  7e:	0000                	unimp
  80:	0600                	addi	s0,sp,768
  82:	01c6                	slli	gp,gp,0x11
  84:	0001                	nop
  86:	0000                	unimp
  88:	0000                	unimp
  8a:	01d8                	addi	a4,sp,196
  8c:	0001                	nop
  8e:	0000                	unimp
  90:	0000                	unimp
  92:	da06                	sw	ra,52(sp)
  94:	0101                	addi	sp,sp,0
  96:	0000                	unimp
  98:	0000                	unimp
  9a:	e600                	sd	s0,8(a2)
  9c:	0101                	addi	sp,sp,0
  9e:	0000                	unimp
  a0:	0000                	unimp
  a2:	0000                	unimp
  a4:	0806                	slli	a6,a6,0x1
  a6:	0102                	c.slli64	sp
  a8:	0000                	unimp
  aa:	0000                	unimp
  ac:	1a00                	addi	s0,sp,304
  ae:	0102                	c.slli64	sp
  b0:	0000                	unimp
  b2:	0000                	unimp
  b4:	0600                	addi	s0,sp,768
  b6:	021c                	addi	a5,sp,256
  b8:	0001                	nop
  ba:	0000                	unimp
  bc:	0000                	unimp
  be:	0228                	addi	a0,sp,264
  c0:	0001                	nop
  c2:	0000                	unimp
  c4:	0000                	unimp
  c6:	4900                	lw	s0,16(a0)
  c8:	0002                	c.slli64	zero
  ca:	0500                	addi	s0,sp,640
  cc:	0800                	addi	s0,sp,16
  ce:	0000                	unimp
  d0:	0000                	unimp
  d2:	0600                	addi	s0,sp,768
  d4:	0270                	addi	a2,sp,268
  d6:	0001                	nop
  d8:	0000                	unimp
  da:	0000                	unimp
  dc:	0278                	addi	a4,sp,268
  de:	0001                	nop
  e0:	0000                	unimp
  e2:	0000                	unimp
  e4:	7806                	ld	a6,96(sp)
  e6:	0102                	c.slli64	sp
  e8:	0000                	unimp
  ea:	0000                	unimp
  ec:	7a00                	ld	s0,48(a2)
  ee:	0102                	c.slli64	sp
  f0:	0000                	unimp
  f2:	0000                	unimp
  f4:	0000                	unimp
  f6:	7806                	ld	a6,96(sp)
  f8:	0102                	c.slli64	sp
  fa:	0000                	unimp
  fc:	0000                	unimp
  fe:	7800                	ld	s0,48(s0)
 100:	0102                	c.slli64	sp
 102:	0000                	unimp
 104:	0000                	unimp
 106:	0600                	addi	s0,sp,768
 108:	027a                	slli	tp,tp,0x1e
 10a:	0001                	nop
 10c:	0000                	unimp
 10e:	0000                	unimp
 110:	0280                	addi	s0,sp,320
 112:	0001                	nop
 114:	0000                	unimp
 116:	0000                	unimp
 118:	0600                	addi	s0,sp,768
 11a:	028a                	slli	t0,t0,0x2
 11c:	0001                	nop
 11e:	0000                	unimp
 120:	0000                	unimp
 122:	028c                	addi	a1,sp,320
 124:	0001                	nop
 126:	0000                	unimp
 128:	0000                	unimp
 12a:	9806                	add	a6,a6,ra
 12c:	0102                	c.slli64	sp
 12e:	0000                	unimp
 130:	0000                	unimp
 132:	9a00                	.2byte	0x9a00
 134:	0102                	c.slli64	sp
 136:	0000                	unimp
 138:	0000                	unimp
 13a:	0000                	unimp
 13c:	b606                	.2byte	0xb606
 13e:	0102                	c.slli64	sp
 140:	0000                	unimp
 142:	0000                	unimp
 144:	b800                	.2byte	0xb800
 146:	0102                	c.slli64	sp
 148:	0000                	unimp
 14a:	0000                	unimp
 14c:	0600                	addi	s0,sp,768
 14e:	02c4                	addi	s1,sp,324
 150:	0001                	nop
 152:	0000                	unimp
 154:	0000                	unimp
 156:	02c6                	slli	t0,t0,0x11
 158:	0001                	nop
 15a:	0000                	unimp
 15c:	0000                	unimp
 15e:	0600                	addi	s0,sp,768
 160:	02f2                	slli	t0,t0,0x1c
 162:	0001                	nop
 164:	0000                	unimp
 166:	0000                	unimp
 168:	02f2                	slli	t0,t0,0x1c
 16a:	0001                	nop
 16c:	0000                	unimp
 16e:	0000                	unimp
 170:	f406                	sd	ra,40(sp)
 172:	0102                	c.slli64	sp
 174:	0000                	unimp
 176:	0000                	unimp
 178:	f800                	sd	s0,48(s0)
 17a:	0102                	c.slli64	sp
 17c:	0000                	unimp
 17e:	0000                	unimp
 180:	0600                	addi	s0,sp,768
 182:	02fe                	slli	t0,t0,0x1f
 184:	0001                	nop
 186:	0000                	unimp
 188:	0000                	unimp
 18a:	0302                	c.slli64	t1
 18c:	0001                	nop
 18e:	0000                	unimp
 190:	0000                	unimp
 192:	0600                	addi	s0,sp,768
 194:	0302                	c.slli64	t1
 196:	0001                	nop
 198:	0000                	unimp
 19a:	0000                	unimp
 19c:	0304                	addi	s1,sp,384
 19e:	0001                	nop
 1a0:	0000                	unimp
 1a2:	0000                	unimp
 1a4:	0406                	slli	s0,s0,0x1
 1a6:	00000103          	lb	sp,0(zero) # 0 <ROM_BASE-0x10000>
 1aa:	0000                	unimp
 1ac:	0800                	addi	s0,sp,16
 1ae:	00000103          	lb	sp,0(zero) # 0 <ROM_BASE-0x10000>
 1b2:	0000                	unimp
 1b4:	0000                	unimp
 1b6:	0406                	slli	s0,s0,0x1
 1b8:	00000103          	lb	sp,0(zero) # 0 <ROM_BASE-0x10000>
 1bc:	0000                	unimp
 1be:	0400                	addi	s0,sp,512
 1c0:	00000103          	lb	sp,0(zero) # 0 <ROM_BASE-0x10000>
 1c4:	0000                	unimp
 1c6:	0600                	addi	s0,sp,768
 1c8:	0308                	addi	a0,sp,384
 1ca:	0001                	nop
 1cc:	0000                	unimp
 1ce:	0000                	unimp
 1d0:	030e                	slli	t1,t1,0x3
 1d2:	0001                	nop
 1d4:	0000                	unimp
 1d6:	0000                	unimp
 1d8:	0600                	addi	s0,sp,768
 1da:	0318                	addi	a4,sp,384
 1dc:	0001                	nop
 1de:	0000                	unimp
 1e0:	0000                	unimp
 1e2:	031c                	addi	a5,sp,384
 1e4:	0001                	nop
 1e6:	0000                	unimp
 1e8:	0000                	unimp
 1ea:	1c06                	slli	s8,s8,0x21
 1ec:	00000103          	lb	sp,0(zero) # 0 <ROM_BASE-0x10000>
 1f0:	0000                	unimp
 1f2:	1e00                	addi	s0,sp,816
 1f4:	00000103          	lb	sp,0(zero) # 0 <ROM_BASE-0x10000>
 1f8:	0000                	unimp
 1fa:	0000                	unimp
 1fc:	2206                	.2byte	0x2206
 1fe:	00000103          	lb	sp,0(zero) # 0 <ROM_BASE-0x10000>
 202:	0000                	unimp
 204:	2400                	.2byte	0x2400
 206:	00000103          	lb	sp,0(zero) # 0 <ROM_BASE-0x10000>
 20a:	0000                	unimp
 20c:	0600                	addi	s0,sp,768
 20e:	0326                	slli	t1,t1,0x9
 210:	0001                	nop
 212:	0000                	unimp
 214:	0000                	unimp
 216:	0328                	addi	a0,sp,392
 218:	0001                	nop
 21a:	0000                	unimp
 21c:	0000                	unimp
 21e:	0600                	addi	s0,sp,768
 220:	0324                	addi	s1,sp,392
 222:	0001                	nop
 224:	0000                	unimp
 226:	0000                	unimp
 228:	0326                	slli	t1,t1,0x9
 22a:	0001                	nop
 22c:	0000                	unimp
 22e:	0000                	unimp
 230:	2806                	.2byte	0x2806
 232:	00000103          	lb	sp,0(zero) # 0 <ROM_BASE-0x10000>
 236:	0000                	unimp
 238:	2800                	.2byte	0x2800
 23a:	00000103          	lb	sp,0(zero) # 0 <ROM_BASE-0x10000>
 23e:	0000                	unimp
 240:	0000                	unimp
 242:	4e06                	lw	t3,64(sp)
 244:	00000103          	lb	sp,0(zero) # 0 <ROM_BASE-0x10000>
 248:	0000                	unimp
 24a:	4e00                	lw	s0,24(a2)
 24c:	00000103          	lb	sp,0(zero) # 0 <ROM_BASE-0x10000>
 250:	0000                	unimp
 252:	0600                	addi	s0,sp,768
 254:	0352                	slli	t1,t1,0x14
 256:	0001                	nop
 258:	0000                	unimp
 25a:	0000                	unimp
 25c:	035a                	slli	t1,t1,0x16
 25e:	0001                	nop
 260:	0000                	unimp
 262:	0000                	unimp
 264:	0600                	addi	s0,sp,768
 266:	0378                	addi	a4,sp,396
 268:	0001                	nop
 26a:	0000                	unimp
 26c:	0000                	unimp
 26e:	038a                	slli	t2,t2,0x2
 270:	0001                	nop
 272:	0000                	unimp
 274:	0000                	unimp
 276:	c406                	sw	ra,8(sp)
 278:	00000103          	lb	sp,0(zero) # 0 <ROM_BASE-0x10000>
 27c:	0000                	unimp
 27e:	d200                	sw	s0,32(a2)
 280:	00000103          	lb	sp,0(zero) # 0 <ROM_BASE-0x10000>
 284:	0000                	unimp
 286:	0000                	unimp
 288:	7806                	ld	a6,96(sp)
 28a:	00000103          	lb	sp,0(zero) # 0 <ROM_BASE-0x10000>
 28e:	0000                	unimp
 290:	7c00                	ld	s0,56(s0)
 292:	00000103          	lb	sp,0(zero) # 0 <ROM_BASE-0x10000>
 296:	0000                	unimp
 298:	0600                	addi	s0,sp,768
 29a:	03cc                	addi	a1,sp,452
 29c:	0001                	nop
 29e:	0000                	unimp
 2a0:	0000                	unimp
 2a2:	03d0                	addi	a2,sp,452
 2a4:	0001                	nop
 2a6:	0000                	unimp
 2a8:	0000                	unimp
 2aa:	0600                	addi	s0,sp,768
 2ac:	039a                	slli	t2,t2,0x6
 2ae:	0001                	nop
 2b0:	0000                	unimp
 2b2:	0000                	unimp
 2b4:	039e                	slli	t2,t2,0x7
 2b6:	0001                	nop
 2b8:	0000                	unimp
 2ba:	0000                	unimp
 2bc:	9e06                	add	t3,t3,ra
 2be:	00000103          	lb	sp,0(zero) # 0 <ROM_BASE-0x10000>
 2c2:	0000                	unimp
 2c4:	a000                	.2byte	0xa000
 2c6:	00000103          	lb	sp,0(zero) # 0 <ROM_BASE-0x10000>
 2ca:	0000                	unimp
 2cc:	0000                	unimp
 2ce:	a406                	.2byte	0xa406
 2d0:	00000103          	lb	sp,0(zero) # 0 <ROM_BASE-0x10000>
 2d4:	0000                	unimp
 2d6:	b400                	.2byte	0xb400
 2d8:	00000103          	lb	sp,0(zero) # 0 <ROM_BASE-0x10000>
 2dc:	0000                	unimp
 2de:	0600                	addi	s0,sp,768
 2e0:	03d2                	slli	t2,t2,0x14
 2e2:	0001                	nop
 2e4:	0000                	unimp
 2e6:	0000                	unimp
 2e8:	03e8                	addi	a0,sp,460
 2ea:	0001                	nop
 2ec:	0000                	unimp
 2ee:	0000                	unimp
 2f0:	0600                	addi	s0,sp,768
 2f2:	03a4                	addi	s1,sp,456
 2f4:	0001                	nop
 2f6:	0000                	unimp
 2f8:	0000                	unimp
 2fa:	03ac                	addi	a1,sp,456
 2fc:	0001                	nop
 2fe:	0000                	unimp
 300:	0000                	unimp
 302:	d206                	sw	ra,36(sp)
 304:	00000103          	lb	sp,0(zero) # 0 <ROM_BASE-0x10000>
 308:	0000                	unimp
 30a:	d400                	sw	s0,40(s0)
 30c:	00000103          	lb	sp,0(zero) # 0 <ROM_BASE-0x10000>
 310:	0000                	unimp
 312:	0000                	unimp
 314:	0094                	addi	a3,sp,64
 316:	0000                	unimp
 318:	0005                	c.nop	1
 31a:	0008                	.2byte	0x8
 31c:	0000                	unimp
 31e:	0000                	unimp
 320:	e006                	sd	ra,0(sp)
 322:	0105                	addi	sp,sp,1
 324:	0000                	unimp
 326:	0000                	unimp
 328:	e000                	sd	s0,0(s0)
 32a:	0105                	addi	sp,sp,1
 32c:	0000                	unimp
 32e:	0000                	unimp
 330:	0600                	addi	s0,sp,768
 332:	05e2                	slli	a1,a1,0x18
 334:	0001                	nop
 336:	0000                	unimp
 338:	0000                	unimp
 33a:	05ea                	slli	a1,a1,0x1a
 33c:	0001                	nop
 33e:	0000                	unimp
 340:	0000                	unimp
 342:	0600                	addi	s0,sp,768
 344:	068a                	slli	a3,a3,0x2
 346:	0001                	nop
 348:	0000                	unimp
 34a:	0000                	unimp
 34c:	068a                	slli	a3,a3,0x2
 34e:	0001                	nop
 350:	0000                	unimp
 352:	0000                	unimp
 354:	8c06                	mv	s8,ra
 356:	0106                	slli	sp,sp,0x1
 358:	0000                	unimp
 35a:	0000                	unimp
 35c:	a000                	.2byte	0xa000
 35e:	0106                	slli	sp,sp,0x1
 360:	0000                	unimp
 362:	0000                	unimp
 364:	0000                	unimp
 366:	e006                	sd	ra,0(sp)
 368:	0106                	slli	sp,sp,0x1
 36a:	0000                	unimp
 36c:	0000                	unimp
 36e:	5800                	lw	s0,48(s0)
 370:	00000107          	.4byte	0x107
 374:	0000                	unimp
 376:	0600                	addi	s0,sp,768
 378:	07b6                	slli	a5,a5,0xd
 37a:	0001                	nop
 37c:	0000                	unimp
 37e:	0000                	unimp
 380:	07ba                	slli	a5,a5,0xe
 382:	0001                	nop
 384:	0000                	unimp
 386:	0000                	unimp
 388:	0600                	addi	s0,sp,768
 38a:	0702                	c.slli64	a4
 38c:	0001                	nop
 38e:	0000                	unimp
 390:	0000                	unimp
 392:	0702                	c.slli64	a4
 394:	0001                	nop
 396:	0000                	unimp
 398:	0000                	unimp
 39a:	0406                	slli	s0,s0,0x1
 39c:	00000107          	.4byte	0x107
 3a0:	0000                	unimp
 3a2:	1e00                	addi	s0,sp,816
 3a4:	00000107          	.4byte	0x107
 3a8:	0000                	unimp
 3aa:	0000                	unimp
 3ac:	00000093          	li	ra,0
 3b0:	0005                	c.nop	1
 3b2:	0008                	.2byte	0x8
 3b4:	0000                	unimp
 3b6:	0000                	unimp
 3b8:	3606                	.2byte	0x3606
 3ba:	0109                	addi	sp,sp,2
 3bc:	0000                	unimp
 3be:	0000                	unimp
 3c0:	3800                	.2byte	0x3800
 3c2:	0109                	addi	sp,sp,2
 3c4:	0000                	unimp
 3c6:	0000                	unimp
 3c8:	0600                	addi	s0,sp,768
 3ca:	093a                	slli	s2,s2,0xe
 3cc:	0001                	nop
 3ce:	0000                	unimp
 3d0:	0000                	unimp
 3d2:	09f0                	addi	a2,sp,220
 3d4:	0001                	nop
 3d6:	0000                	unimp
 3d8:	0000                	unimp
 3da:	f206                	sd	ra,288(sp)
 3dc:	0109                	addi	sp,sp,2
 3de:	0000                	unimp
 3e0:	0000                	unimp
 3e2:	f600                	sd	s0,40(a2)
 3e4:	0109                	addi	sp,sp,2
 3e6:	0000                	unimp
 3e8:	0000                	unimp
 3ea:	0000                	unimp
 3ec:	3606                	.2byte	0x3606
 3ee:	0109                	addi	sp,sp,2
 3f0:	0000                	unimp
 3f2:	0000                	unimp
 3f4:	3800                	.2byte	0x3800
 3f6:	0109                	addi	sp,sp,2
 3f8:	0000                	unimp
 3fa:	0000                	unimp
 3fc:	0600                	addi	s0,sp,768
 3fe:	095e                	slli	s2,s2,0x17
 400:	0001                	nop
 402:	0000                	unimp
 404:	0000                	unimp
 406:	095e                	slli	s2,s2,0x17
 408:	0001                	nop
 40a:	0000                	unimp
 40c:	0000                	unimp
 40e:	6006                	.2byte	0x6006
 410:	0109                	addi	sp,sp,2
 412:	0000                	unimp
 414:	0000                	unimp
 416:	7200                	ld	s0,32(a2)
 418:	0109                	addi	sp,sp,2
 41a:	0000                	unimp
 41c:	0000                	unimp
 41e:	0000                	unimp
 420:	a206                	.2byte	0xa206
 422:	0109                	addi	sp,sp,2
 424:	0000                	unimp
 426:	0000                	unimp
 428:	a600                	.2byte	0xa600
 42a:	0109                	addi	sp,sp,2
 42c:	0000                	unimp
 42e:	0000                	unimp
 430:	0600                	addi	s0,sp,768
 432:	09da                	slli	s3,s3,0x16
 434:	0001                	nop
 436:	0000                	unimp
 438:	0000                	unimp
 43a:	09e8                	addi	a0,sp,220
 43c:	0001                	nop
 43e:	0000                	unimp
 440:	0000                	unimp
	...

Disassembly of section .debug_frame:

0000000000000000 <.debug_frame>:
   0:	000c                	.2byte	0xc
   2:	0000                	unimp
   4:	ffff                	.2byte	0xffff
   6:	ffff                	.2byte	0xffff
   8:	7c010003          	lb	zero,1984(sp)
   c:	0d01                	addi	s10,s10,0 # 18000 <_RODATA_END_+0x63d7>
   e:	0002                	c.slli64	zero
  10:	0024                	addi	s1,sp,8
  12:	0000                	unimp
  14:	0000                	unimp
  16:	0000                	unimp
  18:	0a7e                	slli	s4,s4,0x1f
  1a:	0001                	nop
  1c:	0000                	unimp
  1e:	0000                	unimp
  20:	0034                	addi	a3,sp,8
  22:	0000                	unimp
  24:	0000                	unimp
  26:	0000                	unimp
  28:	0e48                	addi	a0,sp,788
  2a:	4a10                	lw	a2,16(a2)
  2c:	0281                	addi	t0,t0,0
  2e:	c15c                	sw	a5,4(a0)
  30:	0e44                	addi	s1,sp,788
  32:	0000                	unimp
  34:	0000                	unimp
  36:	0000                	unimp
  38:	0014                	.2byte	0x14
  3a:	0000                	unimp
  3c:	0000                	unimp
  3e:	0000                	unimp
  40:	0100                	addi	s0,sp,128
  42:	0001                	nop
  44:	0000                	unimp
  46:	0000                	unimp
  48:	0002                	c.slli64	zero
  4a:	0000                	unimp
  4c:	0000                	unimp
  4e:	0000                	unimp
  50:	000c                	.2byte	0xc
  52:	0000                	unimp
  54:	ffff                	.2byte	0xffff
  56:	ffff                	.2byte	0xffff
  58:	7c010003          	lb	zero,1984(sp)
  5c:	0d01                	addi	s10,s10,0
  5e:	0002                	c.slli64	zero
  60:	0014                	.2byte	0x14
  62:	0000                	unimp
  64:	0050                	addi	a2,sp,4
  66:	0000                	unimp
  68:	0102                	c.slli64	sp
  6a:	0001                	nop
  6c:	0000                	unimp
  6e:	0000                	unimp
  70:	0006                	c.slli	zero,0x1
  72:	0000                	unimp
  74:	0000                	unimp
  76:	0000                	unimp
  78:	0014                	.2byte	0x14
  7a:	0000                	unimp
  7c:	0050                	addi	a2,sp,4
  7e:	0000                	unimp
  80:	0108                	addi	a0,sp,128
  82:	0001                	nop
  84:	0000                	unimp
  86:	0000                	unimp
  88:	0006                	c.slli	zero,0x1
  8a:	0000                	unimp
  8c:	0000                	unimp
  8e:	0000                	unimp
  90:	0014                	.2byte	0x14
  92:	0000                	unimp
  94:	0050                	addi	a2,sp,4
  96:	0000                	unimp
  98:	010e                	slli	sp,sp,0x3
  9a:	0001                	nop
  9c:	0000                	unimp
  9e:	0000                	unimp
  a0:	000e                	c.slli	zero,0x3
  a2:	0000                	unimp
  a4:	0000                	unimp
  a6:	0000                	unimp
  a8:	0014                	.2byte	0x14
  aa:	0000                	unimp
  ac:	0050                	addi	a2,sp,4
  ae:	0000                	unimp
  b0:	011c                	addi	a5,sp,128
  b2:	0001                	nop
  b4:	0000                	unimp
  b6:	0000                	unimp
  b8:	0014                	.2byte	0x14
  ba:	0000                	unimp
  bc:	0000                	unimp
  be:	0000                	unimp
  c0:	0014                	.2byte	0x14
  c2:	0000                	unimp
  c4:	0050                	addi	a2,sp,4
  c6:	0000                	unimp
  c8:	0130                	addi	a2,sp,136
  ca:	0001                	nop
  cc:	0000                	unimp
  ce:	0000                	unimp
  d0:	0044                	addi	s1,sp,4
  d2:	0000                	unimp
  d4:	0000                	unimp
  d6:	0000                	unimp
  d8:	002c                	addi	a1,sp,8
  da:	0000                	unimp
  dc:	0050                	addi	a2,sp,4
  de:	0000                	unimp
  e0:	0174                	addi	a3,sp,140
  e2:	0001                	nop
  e4:	0000                	unimp
  e6:	0000                	unimp
  e8:	001e                	c.slli	zero,0x7
  ea:	0000                	unimp
  ec:	0000                	unimp
  ee:	0000                	unimp
  f0:	0e42                	slli	t3,t3,0x10
  f2:	4410                	lw	a2,8(s0)
  f4:	0488                	addi	a0,sp,576
  f6:	0281                	addi	t0,t0,0
  f8:	0a4a                	slli	s4,s4,0x12
  fa:	42c1                	li	t0,16
  fc:	42c8                	lw	a0,4(a3)
  fe:	000e                	c.slli	zero,0x3
 100:	0b42                	slli	s6,s6,0x10
 102:	0000                	unimp
 104:	0000                	unimp
 106:	0000                	unimp
 108:	0014                	.2byte	0x14
 10a:	0000                	unimp
 10c:	0050                	addi	a2,sp,4
 10e:	0000                	unimp
 110:	0192                	slli	gp,gp,0x4
 112:	0001                	nop
 114:	0000                	unimp
 116:	0000                	unimp
 118:	0024                	addi	s1,sp,8
 11a:	0000                	unimp
 11c:	0000                	unimp
 11e:	0000                	unimp
 120:	002c                	addi	a1,sp,8
 122:	0000                	unimp
 124:	0050                	addi	a2,sp,4
 126:	0000                	unimp
 128:	01b6                	slli	gp,gp,0xd
 12a:	0001                	nop
 12c:	0000                	unimp
 12e:	0000                	unimp
 130:	0040                	addi	s0,sp,4
 132:	0000                	unimp
 134:	0000                	unimp
 136:	0000                	unimp
 138:	0e42                	slli	t3,t3,0x10
 13a:	4830                	lw	a2,80(s0)
 13c:	0488                	addi	a0,sp,576
 13e:	0689                	addi	a3,a3,2
 140:	0892                	slli	a7,a7,0x4
 142:	0281                	addi	t0,t0,0
 144:	c16c                	sw	a1,68(a0)
 146:	c842                	sw	a6,16(sp)
 148:	c942                	sw	a6,144(sp)
 14a:	d242                	sw	a6,36(sp)
 14c:	0e42                	slli	t3,t3,0x10
 14e:	0000                	unimp
 150:	002c                	addi	a1,sp,8
 152:	0000                	unimp
 154:	0050                	addi	a2,sp,4
 156:	0000                	unimp
 158:	01f6                	slli	gp,gp,0x1d
 15a:	0001                	nop
 15c:	0000                	unimp
 15e:	0000                	unimp
 160:	0042                	c.slli	zero,0x10
 162:	0000                	unimp
 164:	0000                	unimp
 166:	0000                	unimp
 168:	0e42                	slli	t3,t3,0x10
 16a:	4830                	lw	a2,80(s0)
 16c:	0488                	addi	a0,sp,576
 16e:	0689                	addi	a3,a3,2
 170:	0892                	slli	a7,a7,0x4
 172:	0281                	addi	t0,t0,0
 174:	c16e                	sw	s11,128(sp)
 176:	c842                	sw	a6,16(sp)
 178:	c942                	sw	a6,144(sp)
 17a:	d242                	sw	a6,36(sp)
 17c:	0e42                	slli	t3,t3,0x10
 17e:	0000                	unimp
 180:	0024                	addi	s1,sp,8
 182:	0000                	unimp
 184:	0050                	addi	a2,sp,4
 186:	0000                	unimp
 188:	0238                	addi	a4,sp,264
 18a:	0001                	nop
 18c:	0000                	unimp
 18e:	0000                	unimp
 190:	001c                	.2byte	0x1c
 192:	0000                	unimp
 194:	0000                	unimp
 196:	0000                	unimp
 198:	0e42                	slli	t3,t3,0x10
 19a:	4420                	lw	s0,72(s0)
 19c:	0281                	addi	t0,t0,0
 19e:	c152                	sw	s4,128(sp)
 1a0:	0e42                	slli	t3,t3,0x10
 1a2:	0000                	unimp
 1a4:	0000                	unimp
 1a6:	0000                	unimp
 1a8:	000c                	.2byte	0xc
 1aa:	0000                	unimp
 1ac:	ffff                	.2byte	0xffff
 1ae:	ffff                	.2byte	0xffff
 1b0:	7c010003          	lb	zero,1984(sp)
 1b4:	0d01                	addi	s10,s10,0
 1b6:	0002                	c.slli64	zero
 1b8:	0014                	.2byte	0x14
 1ba:	0000                	unimp
 1bc:	01a8                	addi	a0,sp,200
 1be:	0000                	unimp
 1c0:	0254                	addi	a3,sp,260
 1c2:	0001                	nop
 1c4:	0000                	unimp
 1c6:	0000                	unimp
 1c8:	0004                	.2byte	0x4
 1ca:	0000                	unimp
 1cc:	0000                	unimp
 1ce:	0000                	unimp
 1d0:	0014                	.2byte	0x14
 1d2:	0000                	unimp
 1d4:	01a8                	addi	a0,sp,200
 1d6:	0000                	unimp
 1d8:	0258                	addi	a4,sp,260
 1da:	0001                	nop
 1dc:	0000                	unimp
 1de:	0000                	unimp
 1e0:	0004                	.2byte	0x4
 1e2:	0000                	unimp
 1e4:	0000                	unimp
 1e6:	0000                	unimp
 1e8:	002c                	addi	a1,sp,8
 1ea:	0000                	unimp
 1ec:	01a8                	addi	a0,sp,200
 1ee:	0000                	unimp
 1f0:	025c                	addi	a5,sp,260
 1f2:	0001                	nop
 1f4:	0000                	unimp
 1f6:	0000                	unimp
 1f8:	0096                	slli	ra,ra,0x5
 1fa:	0000                	unimp
 1fc:	0000                	unimp
 1fe:	0000                	unimp
 200:	0e46                	slli	t3,t3,0x11
 202:	4a20                	lw	s0,80(a2)
 204:	0281                	addi	t0,t0,0
 206:	0488                	addi	a0,sp,576
 208:	0689                	addi	a3,a3,2
 20a:	7602                	ld	a2,32(sp)
 20c:	42c8                	lw	a0,4(a3)
 20e:	42c1                	li	t0,16
 210:	4ac9                	li	s5,18
 212:	000e                	c.slli	zero,0x3
 214:	0000                	unimp
 216:	0000                	unimp
 218:	002c                	addi	a1,sp,8
 21a:	0000                	unimp
 21c:	01a8                	addi	a0,sp,200
 21e:	0000                	unimp
 220:	02f2                	slli	t0,t0,0x1c
 222:	0001                	nop
 224:	0000                	unimp
 226:	0000                	unimp
 228:	0076                	c.slli	zero,0x1d
 22a:	0000                	unimp
 22c:	0000                	unimp
 22e:	0000                	unimp
 230:	0e42                	slli	t3,t3,0x10
 232:	4a20                	lw	s0,80(a2)
 234:	0281                	addi	t0,t0,0
 236:	0488                	addi	a0,sp,576
 238:	0689                	addi	a3,a3,2
 23a:	5202                	lw	tp,32(sp)
 23c:	42c1                	li	t0,16
 23e:	52c8                	lw	a0,36(a3)
 240:	42c9                	li	t0,18
 242:	000e                	c.slli	zero,0x3
 244:	0000                	unimp
 246:	0000                	unimp
 248:	0014                	.2byte	0x14
 24a:	0000                	unimp
 24c:	01a8                	addi	a0,sp,200
 24e:	0000                	unimp
 250:	0368                	addi	a0,sp,396
 252:	0001                	nop
 254:	0000                	unimp
 256:	0000                	unimp
 258:	0084                	addi	s1,sp,64
 25a:	0000                	unimp
 25c:	0000                	unimp
 25e:	0000                	unimp
 260:	000c                	.2byte	0xc
 262:	0000                	unimp
 264:	ffff                	.2byte	0xffff
 266:	ffff                	.2byte	0xffff
 268:	7c010003          	lb	zero,1984(sp)
 26c:	0d01                	addi	s10,s10,0
 26e:	0002                	c.slli64	zero
 270:	0014                	.2byte	0x14
 272:	0000                	unimp
 274:	0260                	addi	s0,sp,268
 276:	0000                	unimp
 278:	03ec                	addi	a1,sp,460
 27a:	0001                	nop
 27c:	0000                	unimp
 27e:	0000                	unimp
 280:	0006                	c.slli	zero,0x1
 282:	0000                	unimp
 284:	0000                	unimp
 286:	0000                	unimp
 288:	0034                	addi	a3,sp,8
 28a:	0000                	unimp
 28c:	0260                	addi	s0,sp,268
 28e:	0000                	unimp
 290:	03f2                	slli	t2,t2,0x1c
 292:	0001                	nop
 294:	0000                	unimp
 296:	0000                	unimp
 298:	006e                	c.slli	zero,0x1b
 29a:	0000                	unimp
 29c:	0000                	unimp
 29e:	0000                	unimp
 2a0:	0e42                	slli	t3,t3,0x10
 2a2:	4620                	lw	s0,72(a2)
 2a4:	0281                	addi	t0,t0,0
 2a6:	0488                	addi	a0,sp,576
 2a8:	0689                	addi	a3,a3,2
 2aa:	9246                	add	tp,tp,a7
 2ac:	0208                	addi	a0,sp,256
 2ae:	c156                	sw	s5,128(sp)
 2b0:	c842                	sw	a6,16(sp)
 2b2:	c942                	sw	a6,144(sp)
 2b4:	d242                	sw	a6,36(sp)
 2b6:	0e42                	slli	t3,t3,0x10
	...
 2c0:	002c                	addi	a1,sp,8
 2c2:	0000                	unimp
 2c4:	0260                	addi	s0,sp,268
 2c6:	0000                	unimp
 2c8:	0460                	addi	s0,sp,524
 2ca:	0001                	nop
 2cc:	0000                	unimp
 2ce:	0000                	unimp
 2d0:	0042                	c.slli	zero,0x10
 2d2:	0000                	unimp
 2d4:	0000                	unimp
 2d6:	0000                	unimp
 2d8:	0e42                	slli	t3,t3,0x10
 2da:	4220                	lw	s0,64(a2)
 2dc:	0689                	addi	a3,a3,2
 2de:	814e                	mv	sp,s3
 2e0:	8802                	jr	a6
 2e2:	6004                	ld	s1,0(s0)
 2e4:	42c8                	lw	a0,4(a3)
 2e6:	42c1                	li	t0,16
 2e8:	4ac9                	li	s5,18
 2ea:	000e                	c.slli	zero,0x3
 2ec:	0000                	unimp
 2ee:	0000                	unimp
 2f0:	0034                	addi	a3,sp,8
 2f2:	0000                	unimp
 2f4:	0260                	addi	s0,sp,268
 2f6:	0000                	unimp
 2f8:	04a2                	slli	s1,s1,0x8
 2fa:	0001                	nop
 2fc:	0000                	unimp
 2fe:	0000                	unimp
 300:	004c                	addi	a1,sp,4
 302:	0000                	unimp
 304:	0000                	unimp
 306:	0000                	unimp
 308:	0e42                	slli	t3,t3,0x10
 30a:	4220                	lw	s0,64(a2)
 30c:	0488                	addi	a0,sp,576
 30e:	9248                	.2byte	0x9248
 310:	8108                	.2byte	0x8108
 312:	8902                	jr	s2
 314:	7206                	ld	tp,96(sp)
 316:	c10a                	sw	sp,128(sp)
 318:	c842                	sw	a6,16(sp)
 31a:	c942                	sw	a6,144(sp)
 31c:	d242                	sw	a6,36(sp)
 31e:	0e42                	slli	t3,t3,0x10
 320:	4200                	lw	s0,0(a2)
 322:	0000000b          	.4byte	0xb
 326:	0000                	unimp
 328:	002c                	addi	a1,sp,8
 32a:	0000                	unimp
 32c:	0260                	addi	s0,sp,268
 32e:	0000                	unimp
 330:	04ee                	slli	s1,s1,0x1b
 332:	0001                	nop
 334:	0000                	unimp
 336:	0000                	unimp
 338:	005a                	c.slli	zero,0x16
 33a:	0000                	unimp
 33c:	0000                	unimp
 33e:	0000                	unimp
 340:	0e42                	slli	t3,t3,0x10
 342:	5220                	lw	s0,96(a2)
 344:	0281                	addi	t0,t0,0
 346:	0488                	addi	a0,sp,576
 348:	0689                	addi	a3,a3,2
 34a:	0892                	slli	a7,a7,0x4
 34c:	3c02                	.2byte	0x3c02
 34e:	42c1                	li	t0,16
 350:	42c8                	lw	a0,4(a3)
 352:	42c9                	li	t0,18
 354:	42d2                	lw	t0,20(sp)
 356:	000e                	c.slli	zero,0x3
 358:	0024                	addi	s1,sp,8
 35a:	0000                	unimp
 35c:	0260                	addi	s0,sp,268
 35e:	0000                	unimp
 360:	0548                	addi	a0,sp,644
 362:	0001                	nop
 364:	0000                	unimp
 366:	0000                	unimp
 368:	003a                	c.slli	zero,0xe
 36a:	0000                	unimp
 36c:	0000                	unimp
 36e:	0000                	unimp
 370:	0e42                	slli	t3,t3,0x10
 372:	4e10                	lw	a2,24(a2)
 374:	0281                	addi	t0,t0,0
 376:	0488                	addi	a0,sp,576
 378:	c15a                	sw	s6,128(sp)
 37a:	c846                	sw	a7,16(sp)
 37c:	0e48                	addi	a0,sp,788
 37e:	0000                	unimp
 380:	002c                	addi	a1,sp,8
 382:	0000                	unimp
 384:	0260                	addi	s0,sp,268
 386:	0000                	unimp
 388:	0582                	c.slli64	a1
 38a:	0001                	nop
 38c:	0000                	unimp
 38e:	0000                	unimp
 390:	0048                	addi	a0,sp,4
 392:	0000                	unimp
 394:	0000                	unimp
 396:	0000                	unimp
 398:	0e42                	slli	t3,t3,0x10
 39a:	4620                	lw	s0,72(a2)
 39c:	0689                	addi	a3,a3,2
 39e:	0281                	addi	t0,t0,0
 3a0:	0488                	addi	a0,sp,576
 3a2:	3002                	.2byte	0x3002
 3a4:	46c1                	li	a3,16
 3a6:	42c8                	lw	a0,4(a3)
 3a8:	46c9                	li	a3,18
 3aa:	000e                	c.slli	zero,0x3
 3ac:	0000                	unimp
 3ae:	0000                	unimp
 3b0:	0024                	addi	s1,sp,8
 3b2:	0000                	unimp
 3b4:	0260                	addi	s0,sp,268
 3b6:	0000                	unimp
 3b8:	05ca                	slli	a1,a1,0x12
 3ba:	0001                	nop
 3bc:	0000                	unimp
 3be:	0000                	unimp
 3c0:	0044                	addi	s1,sp,4
 3c2:	0000                	unimp
 3c4:	0000                	unimp
 3c6:	0000                	unimp
 3c8:	0e42                	slli	t3,t3,0x10
 3ca:	4410                	lw	a2,8(s0)
 3cc:	0281                	addi	t0,t0,0
 3ce:	0488                	addi	a0,sp,576
 3d0:	3602                	.2byte	0x3602
 3d2:	42c1                	li	t0,16
 3d4:	44c8                	lw	a0,12(s1)
 3d6:	000e                	c.slli	zero,0x3
 3d8:	0014                	.2byte	0x14
 3da:	0000                	unimp
 3dc:	0260                	addi	s0,sp,268
 3de:	0000                	unimp
 3e0:	060e                	slli	a2,a2,0x3
 3e2:	0001                	nop
 3e4:	0000                	unimp
 3e6:	0000                	unimp
 3e8:	0022                	c.slli	zero,0x8
 3ea:	0000                	unimp
 3ec:	0000                	unimp
 3ee:	0000                	unimp
 3f0:	0014                	.2byte	0x14
 3f2:	0000                	unimp
 3f4:	0260                	addi	s0,sp,268
 3f6:	0000                	unimp
 3f8:	0630                	addi	a2,sp,776
 3fa:	0001                	nop
 3fc:	0000                	unimp
 3fe:	0000                	unimp
 400:	003a                	c.slli	zero,0xe
 402:	0000                	unimp
 404:	0000                	unimp
 406:	0000                	unimp
 408:	004c                	addi	a1,sp,4
 40a:	0000                	unimp
 40c:	0260                	addi	s0,sp,268
 40e:	0000                	unimp
 410:	066a                	slli	a2,a2,0x1a
 412:	0001                	nop
 414:	0000                	unimp
 416:	0000                	unimp
 418:	0150                	addi	a2,sp,132
 41a:	0000                	unimp
 41c:	0000                	unimp
 41e:	0000                	unimp
 420:	0e42                	slli	t3,t3,0x10
 422:	01d0                	addi	a2,sp,196
 424:	9242                	add	tp,tp,a6
 426:	5408                	lw	a0,40(s0)
 428:	0488                	addi	a0,sp,576
 42a:	0689                	addi	a3,a3,2
 42c:	0281                	addi	t0,t0,0
 42e:	0c940a93          	addi	s5,s0,201 # 1a0c9 <_RODATA_END_+0x84a0>
 432:	0e95                	addi	t4,t4,5
 434:	1096                	slli	ra,ra,0x25
 436:	1e031297          	auipc	t0,0x1e031
 43a:	0a01                	addi	s4,s4,0 # ffffffffffffa000 <_RODATA_END_+0xfffffffffffe83d7>
 43c:	44c1                	li	s1,16
 43e:	42c8                	lw	a0,4(a3)
 440:	42c9                	li	t0,18
 442:	42d2                	lw	t0,20(sp)
 444:	42d442d3          	.4byte	0x42d442d3
 448:	42d5                	li	t0,21
 44a:	42d6                	lw	t0,84(sp)
 44c:	000e42d7          	.4byte	0xe42d7
 450:	0b42                	slli	s6,s6,0x10
 452:	0000                	unimp
 454:	0000                	unimp
 456:	0000                	unimp
 458:	000c                	.2byte	0xc
 45a:	0000                	unimp
 45c:	ffff                	.2byte	0xffff
 45e:	ffff                	.2byte	0xffff
 460:	7c010003          	lb	zero,1984(sp)
 464:	0d01                	addi	s10,s10,0
 466:	0002                	c.slli64	zero
 468:	0054                	addi	a3,sp,4
 46a:	0000                	unimp
 46c:	0458                	addi	a4,sp,516
 46e:	0000                	unimp
 470:	07ba                	slli	a5,a5,0xe
 472:	0001                	nop
 474:	0000                	unimp
 476:	0000                	unimp
 478:	02c4                	addi	s1,sp,324
 47a:	0000                	unimp
 47c:	0000                	unimp
 47e:	0000                	unimp
 480:	0e42                	slli	t3,t3,0x10
 482:	5450                	lw	a2,44(s0)
 484:	0488                	addi	a0,sp,576
 486:	0c94                	addi	a3,sp,592
 488:	0281                	addi	t0,t0,0 # 1e031436 <_RODATA_END_+0x1e01f80d>
 48a:	0689                	addi	a3,a3,2
 48c:	0892                	slli	a7,a7,0x4
 48e:	0e950a93          	addi	s5,a0,233 # 1a0e9 <_RODATA_END_+0x84c0>
 492:	1096                	slli	ra,ra,0x25
 494:	14981297          	auipc	t0,0x14981
 498:	0c42                	slli	s8,s8,0x10
 49a:	0008                	.2byte	0x8
 49c:	0a5a                	slli	s4,s4,0x16
 49e:	020c                	addi	a1,sp,256
 4a0:	4250                	lw	a2,4(a2)
 4a2:	44c1                	li	s1,16
 4a4:	42c8                	lw	a0,4(a3)
 4a6:	42c9                	li	t0,18
 4a8:	42d2                	lw	t0,20(sp)
 4aa:	42d442d3          	.4byte	0x42d442d3
 4ae:	42d5                	li	t0,21
 4b0:	42d6                	lw	t0,84(sp)
 4b2:	42d842d7          	.4byte	0x42d842d7
 4b6:	000e                	c.slli	zero,0x3
 4b8:	0b42                	slli	s6,s6,0x10
 4ba:	0000                	unimp
 4bc:	0000                	unimp
	...

Disassembly of section .debug_loclists:

0000000000000000 <.debug_loclists>:
       0:	038d                	addi	t2,t2,3
       2:	0000                	unimp
       4:	0005                	c.nop	1
       6:	0008                	.2byte	0x8
       8:	0000                	unimp
       a:	0000                	unimp
       c:	01023807          	.4byte	0x1023807
      10:	0000                	unimp
      12:	0000                	unimp
      14:	4100                	lw	s0,0(a0)
      16:	0102                	c.slli64	sp
      18:	0000                	unimp
      1a:	0000                	unimp
      1c:	0100                	addi	s0,sp,128
      1e:	075a                	slli	a4,a4,0x16
      20:	0241                	addi	tp,tp,16 # ffffffffffff8010 <_RODATA_END_+0xfffffffffffe63e7>
      22:	0001                	nop
      24:	0000                	unimp
      26:	0000                	unimp
      28:	0254                	addi	a3,sp,260
      2a:	0001                	nop
      2c:	0000                	unimp
      2e:	0000                	unimp
      30:	a304                	.2byte	0xa304
      32:	5a01                	li	s4,-32
      34:	009f f607 0101      	.byte	0x9f, 0x00, 0x07, 0xf6, 0x01, 0x01
      3a:	0000                	unimp
      3c:	0000                	unimp
      3e:	0800                	addi	s0,sp,16
      40:	0102                	c.slli64	sp
      42:	0000                	unimp
      44:	0000                	unimp
      46:	0100                	addi	s0,sp,128
      48:	075a                	slli	a4,a4,0x16
      4a:	0208                	addi	a0,sp,256
      4c:	0001                	nop
      4e:	0000                	unimp
      50:	0000                	unimp
      52:	0232                	slli	tp,tp,0xc
      54:	0001                	nop
      56:	0000                	unimp
      58:	0000                	unimp
      5a:	5901                	li	s2,-32
      5c:	01023207          	.4byte	0x1023207
      60:	0000                	unimp
      62:	0000                	unimp
      64:	3800                	.2byte	0x3800
      66:	0102                	c.slli64	sp
      68:	0000                	unimp
      6a:	0000                	unimp
      6c:	0400                	addi	s0,sp,512
      6e:	9f5a01a3          	sb	s5,-1565(s4)
      72:	0700                	addi	s0,sp,896
      74:	01f6                	slli	gp,gp,0x1d
      76:	0001                	nop
      78:	0000                	unimp
      7a:	0000                	unimp
      7c:	0208                	addi	a0,sp,256
      7e:	0001                	nop
      80:	0000                	unimp
      82:	0000                	unimp
      84:	3702                	.2byte	0x3702
      86:	009f 0807 0102      	.byte	0x9f, 0x00, 0x07, 0x08, 0x02, 0x01
      8c:	0000                	unimp
      8e:	0000                	unimp
      90:	1c00                	addi	s0,sp,560
      92:	0102                	c.slli64	sp
      94:	0000                	unimp
      96:	0000                	unimp
      98:	0c00                	addi	s0,sp,528
      9a:	0079                	c.nop	30
      9c:	0078                	addi	a4,sp,12
      9e:	ff0c                	sd	a1,56(a4)
      a0:	ffff                	.2byte	0xffff
      a2:	1aff                	.2byte	0x1aff
      a4:	9f25                	addw	a4,a4,s1
      a6:	0700                	addi	s0,sp,896
      a8:	01b6                	slli	gp,gp,0xd
      aa:	0001                	nop
      ac:	0000                	unimp
      ae:	0000                	unimp
      b0:	01c6                	slli	gp,gp,0x11
      b2:	0001                	nop
      b4:	0000                	unimp
      b6:	0000                	unimp
      b8:	5a01                	li	s4,-32
      ba:	0101c607          	.4byte	0x101c607
      be:	0000                	unimp
      c0:	0000                	unimp
      c2:	f600                	sd	s0,40(a2)
      c4:	0101                	addi	sp,sp,0
      c6:	0000                	unimp
      c8:	0000                	unimp
      ca:	0400                	addi	s0,sp,512
      cc:	9f5a01a3          	sb	s5,-1565(s4)
      d0:	0700                	addi	s0,sp,896
      d2:	01b6                	slli	gp,gp,0xd
      d4:	0001                	nop
      d6:	0000                	unimp
      d8:	0000                	unimp
      da:	01c6                	slli	gp,gp,0x11
      dc:	0001                	nop
      de:	0000                	unimp
      e0:	0000                	unimp
      e2:	3302                	.2byte	0x3302
      e4:	009f c607 0101      	.byte	0x9f, 0x00, 0x07, 0xc6, 0x01, 0x01
      ea:	0000                	unimp
      ec:	0000                	unimp
      ee:	da00                	sw	s0,48(a2)
      f0:	0101                	addi	sp,sp,0
      f2:	0000                	unimp
      f4:	0000                	unimp
      f6:	0600                	addi	s0,sp,768
      f8:	0079                	c.nop	30
      fa:	0078                	addi	a4,sp,12
      fc:	9f25                	addw	a4,a4,s1
      fe:	0700                	addi	s0,sp,896
     100:	0192                	slli	gp,gp,0x4
     102:	0001                	nop
     104:	0000                	unimp
     106:	0000                	unimp
     108:	01a6                	slli	gp,gp,0x9
     10a:	0001                	nop
     10c:	0000                	unimp
     10e:	0000                	unimp
     110:	5a01                	li	s4,-32
     112:	0101a607          	.4byte	0x101a607
     116:	0000                	unimp
     118:	0000                	unimp
     11a:	b600                	.2byte	0xb600
     11c:	0101                	addi	sp,sp,0
     11e:	0000                	unimp
     120:	0000                	unimp
     122:	0400                	addi	s0,sp,512
     124:	9f5a01a3          	sb	s5,-1565(s4)
     128:	0700                	addi	s0,sp,896
     12a:	0174                	addi	a3,sp,140
     12c:	0001                	nop
     12e:	0000                	unimp
     130:	0000                	unimp
     132:	017c                	addi	a5,sp,140
     134:	0001                	nop
     136:	0000                	unimp
     138:	0000                	unimp
     13a:	5a01                	li	s4,-32
     13c:	01017c07          	.4byte	0x1017c07
     140:	0000                	unimp
     142:	0000                	unimp
     144:	9200                	.2byte	0x9200
     146:	0101                	addi	sp,sp,0
     148:	0000                	unimp
     14a:	0000                	unimp
     14c:	0400                	addi	s0,sp,512
     14e:	9f5a01a3          	sb	s5,-1565(s4)
     152:	0700                	addi	s0,sp,896
     154:	017c                	addi	a5,sp,140
     156:	0001                	nop
     158:	0000                	unimp
     15a:	0000                	unimp
     15c:	0186                	slli	gp,gp,0x1
     15e:	0001                	nop
     160:	0000                	unimp
     162:	0000                	unimp
     164:	5801                	li	a6,-32
     166:	01018a07          	.4byte	0x1018a07
     16a:	0000                	unimp
     16c:	0000                	unimp
     16e:	9200                	.2byte	0x9200
     170:	0101                	addi	sp,sp,0
     172:	0000                	unimp
     174:	0000                	unimp
     176:	0100                	addi	s0,sp,128
     178:	0058                	addi	a4,sp,4
     17a:	01013007          	.4byte	0x1013007
     17e:	0000                	unimp
     180:	0000                	unimp
     182:	3800                	.2byte	0x3800
     184:	0101                	addi	sp,sp,0
     186:	0000                	unimp
     188:	0000                	unimp
     18a:	0100                	addi	s0,sp,128
     18c:	075a                	slli	a4,a4,0x16
     18e:	0138                	addi	a4,sp,136
     190:	0001                	nop
     192:	0000                	unimp
     194:	0000                	unimp
     196:	0174                	addi	a3,sp,140
     198:	0001                	nop
     19a:	0000                	unimp
     19c:	0000                	unimp
     19e:	a304                	.2byte	0xa304
     1a0:	5a01                	li	s4,-32
     1a2:	009f 3007 0101      	.byte	0x9f, 0x00, 0x07, 0x30, 0x01, 0x01
     1a8:	0000                	unimp
     1aa:	0000                	unimp
     1ac:	3400                	.2byte	0x3400
     1ae:	0101                	addi	sp,sp,0
     1b0:	0000                	unimp
     1b2:	0000                	unimp
     1b4:	0100                	addi	s0,sp,128
     1b6:	0134075b          	.4byte	0x134075b
     1ba:	0001                	nop
     1bc:	0000                	unimp
     1be:	0000                	unimp
     1c0:	0174                	addi	a3,sp,140
     1c2:	0001                	nop
     1c4:	0000                	unimp
     1c6:	0000                	unimp
     1c8:	a304                	.2byte	0xa304
     1ca:	5b01                	li	s6,-32
     1cc:	009f 3807 0101      	.byte	0x9f, 0x00, 0x07, 0x38, 0x01, 0x01
     1d2:	0000                	unimp
     1d4:	0000                	unimp
     1d6:	5000                	lw	s0,32(s0)
     1d8:	0101                	addi	sp,sp,0
     1da:	0000                	unimp
     1dc:	0000                	unimp
     1de:	0100                	addi	s0,sp,128
     1e0:	075a                	slli	a4,a4,0x16
     1e2:	0150                	addi	a2,sp,132
     1e4:	0001                	nop
     1e6:	0000                	unimp
     1e8:	0000                	unimp
     1ea:	0174                	addi	a3,sp,140
     1ec:	0001                	nop
     1ee:	0000                	unimp
     1f0:	0000                	unimp
     1f2:	5a01a307          	.4byte	0x5a01a307
     1f6:	9f1b007b          	.4byte	0x9f1b007b
     1fa:	0700                	addi	s0,sp,896
     1fc:	0138                	addi	a4,sp,136
     1fe:	0001                	nop
     200:	0000                	unimp
     202:	0000                	unimp
     204:	0140                	addi	s0,sp,132
     206:	0001                	nop
     208:	0000                	unimp
     20a:	0000                	unimp
     20c:	3002                	.2byte	0x3002
     20e:	009f 3807 0101      	.byte	0x9f, 0x00, 0x07, 0x38, 0x01, 0x01
     214:	0000                	unimp
     216:	0000                	unimp
     218:	4000                	lw	s0,0(s0)
     21a:	0101                	addi	sp,sp,0
     21c:	0000                	unimp
     21e:	0000                	unimp
     220:	0600                	addi	s0,sp,768
     222:	040c                	addi	a1,sp,512
     224:	0000                	unimp
     226:	9f10                	.2byte	0x9f10
     228:	0700                	addi	s0,sp,896
     22a:	0140                	addi	s0,sp,132
     22c:	0001                	nop
     22e:	0000                	unimp
     230:	0000                	unimp
     232:	0148                	addi	a0,sp,132
     234:	0001                	nop
     236:	0000                	unimp
     238:	0000                	unimp
     23a:	9f800903          	lb	s2,-1544(zero) # fffffffffffff9f8 <_RODATA_END_+0xfffffffffffeddcf>
     23e:	0700                	addi	s0,sp,896
     240:	0140                	addi	s0,sp,132
     242:	0001                	nop
     244:	0000                	unimp
     246:	0000                	unimp
     248:	0148                	addi	a0,sp,132
     24a:	0001                	nop
     24c:	0000                	unimp
     24e:	0000                	unimp
     250:	0c06                	slli	s8,s8,0x1
     252:	000c                	.2byte	0xc
     254:	1000                	addi	s0,sp,32
     256:	009f 4c07 0101      	.byte	0x9f, 0x00, 0x07, 0x4c, 0x01, 0x01
     25c:	0000                	unimp
     25e:	0000                	unimp
     260:	5400                	lw	s0,40(s0)
     262:	0101                	addi	sp,sp,0
     264:	0000                	unimp
     266:	0000                	unimp
     268:	0100                	addi	s0,sp,128
     26a:	005e                	c.slli	zero,0x17
     26c:	01014c07          	.4byte	0x1014c07
     270:	0000                	unimp
     272:	0000                	unimp
     274:	5400                	lw	s0,40(s0)
     276:	0101                	addi	sp,sp,0
     278:	0000                	unimp
     27a:	0000                	unimp
     27c:	0400                	addi	s0,sp,512
     27e:	4840                	lw	s0,20(s0)
     280:	9f24                	.2byte	0x9f24
     282:	0700                	addi	s0,sp,896
     284:	0158                	addi	a4,sp,132
     286:	0001                	nop
     288:	0000                	unimp
     28a:	0000                	unimp
     28c:	015c                	addi	a5,sp,132
     28e:	0001                	nop
     290:	0000                	unimp
     292:	0000                	unimp
     294:	5a01                	li	s4,-32
     296:	0700                	addi	s0,sp,896
     298:	0158                	addi	a4,sp,132
     29a:	0001                	nop
     29c:	0000                	unimp
     29e:	0000                	unimp
     2a0:	015c                	addi	a5,sp,132
     2a2:	0001                	nop
     2a4:	0000                	unimp
     2a6:	0000                	unimp
     2a8:	0c06                	slli	s8,s8,0x1
     2aa:	0004                	.2byte	0x4
     2ac:	1000                	addi	s0,sp,32
     2ae:	009f 5c07 0101      	.byte	0x9f, 0x00, 0x07, 0x5c, 0x01, 0x01
     2b4:	0000                	unimp
     2b6:	0000                	unimp
     2b8:	6200                	ld	s0,0(a2)
     2ba:	0101                	addi	sp,sp,0
     2bc:	0000                	unimp
     2be:	0000                	unimp
     2c0:	0200                	addi	s0,sp,256
     2c2:	07009f33          	.4byte	0x7009f33
     2c6:	015c                	addi	a5,sp,132
     2c8:	0001                	nop
     2ca:	0000                	unimp
     2cc:	0000                	unimp
     2ce:	0162                	slli	sp,sp,0x18
     2d0:	0001                	nop
     2d2:	0000                	unimp
     2d4:	0000                	unimp
     2d6:	0c06                	slli	s8,s8,0x1
     2d8:	000c                	.2byte	0xc
     2da:	1000                	addi	s0,sp,32
     2dc:	009f 6207 0101      	.byte	0x9f, 0x00, 0x07, 0x62, 0x01, 0x01
     2e2:	0000                	unimp
     2e4:	0000                	unimp
     2e6:	6a00                	ld	s0,16(a2)
     2e8:	0101                	addi	sp,sp,0
     2ea:	0000                	unimp
     2ec:	0000                	unimp
     2ee:	0300                	addi	s0,sp,384
     2f0:	c709                	beqz	a4,2fa <ROM_BASE-0xfd06>
     2f2:	009f 6207 0101      	.byte	0x9f, 0x00, 0x07, 0x62, 0x01, 0x01
     2f8:	0000                	unimp
     2fa:	0000                	unimp
     2fc:	6a00                	ld	s0,16(a2)
     2fe:	0101                	addi	sp,sp,0
     300:	0000                	unimp
     302:	0000                	unimp
     304:	0600                	addi	s0,sp,768
     306:	080c                	addi	a1,sp,16
     308:	0000                	unimp
     30a:	9f10                	.2byte	0x9f10
     30c:	0700                	addi	s0,sp,896
     30e:	016a                	slli	sp,sp,0x1a
     310:	0001                	nop
     312:	0000                	unimp
     314:	0000                	unimp
     316:	0172                	slli	sp,sp,0x1c
     318:	0001                	nop
     31a:	0000                	unimp
     31c:	0000                	unimp
     31e:	9f200803          	lb	a6,-1550(zero) # fffffffffffff9f2 <_RODATA_END_+0xfffffffffffeddc9>
     322:	0700                	addi	s0,sp,896
     324:	016a                	slli	sp,sp,0x1a
     326:	0001                	nop
     328:	0000                	unimp
     32a:	0000                	unimp
     32c:	0172                	slli	sp,sp,0x1c
     32e:	0001                	nop
     330:	0000                	unimp
     332:	0000                	unimp
     334:	0c06                	slli	s8,s8,0x1
     336:	0010                	.2byte	0x10
     338:	1000                	addi	s0,sp,32
     33a:	009f 2a07 0101      	.byte	0x9f, 0x00, 0x07, 0x2a, 0x01, 0x01
     340:	0000                	unimp
     342:	0000                	unimp
     344:	2e00                	.2byte	0x2e00
     346:	0101                	addi	sp,sp,0
     348:	0000                	unimp
     34a:	0000                	unimp
     34c:	0100                	addi	s0,sp,128
     34e:	005a                	c.slli	zero,0x16
     350:	01012a07          	.4byte	0x1012a07
     354:	0000                	unimp
     356:	0000                	unimp
     358:	2e00                	.2byte	0x2e00
     35a:	0101                	addi	sp,sp,0
     35c:	0000                	unimp
     35e:	0000                	unimp
     360:	0400                	addi	s0,sp,512
     362:	4840                	lw	s0,20(s0)
     364:	9f24                	.2byte	0x9f24
     366:	0700                	addi	s0,sp,896
     368:	0108                	addi	a0,sp,128
     36a:	0001                	nop
     36c:	0000                	unimp
     36e:	0000                	unimp
     370:	010c                	addi	a1,sp,128
     372:	0001                	nop
     374:	0000                	unimp
     376:	0000                	unimp
     378:	5a01                	li	s4,-32
     37a:	01010c07          	.4byte	0x1010c07
     37e:	0000                	unimp
     380:	0000                	unimp
     382:	0e00                	addi	s0,sp,784
     384:	0101                	addi	sp,sp,0
     386:	0000                	unimp
     388:	0000                	unimp
     38a:	0400                	addi	s0,sp,512
     38c:	9f5a01a3          	sb	s5,-1565(s4)
     390:	6900                	ld	s0,16(a0)
     392:	0005                	c.nop	1
     394:	0500                	addi	s0,sp,640
     396:	0800                	addi	s0,sp,16
     398:	0000                	unimp
     39a:	0000                	unimp
     39c:	0700                	addi	s0,sp,896
     39e:	0368                	addi	a0,sp,396
     3a0:	0001                	nop
     3a2:	0000                	unimp
     3a4:	0000                	unimp
     3a6:	03a8                	addi	a0,sp,456
     3a8:	0001                	nop
     3aa:	0000                	unimp
     3ac:	0000                	unimp
     3ae:	5a01                	li	s4,-32
     3b0:	0103a807          	.4byte	0x103a807
     3b4:	0000                	unimp
     3b6:	0000                	unimp
     3b8:	c400                	sw	s0,8(s0)
     3ba:	00000103          	lb	sp,0(zero) # 0 <ROM_BASE-0x10000>
     3be:	0000                	unimp
     3c0:	0400                	addi	s0,sp,512
     3c2:	9f5a01a3          	sb	s5,-1565(s4)
     3c6:	0103c407          	.4byte	0x103c407
     3ca:	0000                	unimp
     3cc:	0000                	unimp
     3ce:	d200                	sw	s0,32(a2)
     3d0:	00000103          	lb	sp,0(zero) # 0 <ROM_BASE-0x10000>
     3d4:	0000                	unimp
     3d6:	0100                	addi	s0,sp,128
     3d8:	075a                	slli	a4,a4,0x16
     3da:	03d2                	slli	t2,t2,0x14
     3dc:	0001                	nop
     3de:	0000                	unimp
     3e0:	0000                	unimp
     3e2:	03e8                	addi	a0,sp,460
     3e4:	0001                	nop
     3e6:	0000                	unimp
     3e8:	0000                	unimp
     3ea:	a304                	.2byte	0xa304
     3ec:	5a01                	li	s4,-32
     3ee:	079f 03e8 0001      	.byte	0x9f, 0x07, 0xe8, 0x03, 0x01, 0x00
     3f4:	0000                	unimp
     3f6:	0000                	unimp
     3f8:	03ea                	slli	t2,t2,0x1a
     3fa:	0001                	nop
     3fc:	0000                	unimp
     3fe:	0000                	unimp
     400:	5a01                	li	s4,-32
     402:	0103ea07          	.4byte	0x103ea07
     406:	0000                	unimp
     408:	0000                	unimp
     40a:	ec00                	sd	s0,24(s0)
     40c:	00000103          	lb	sp,0(zero) # 0 <ROM_BASE-0x10000>
     410:	0000                	unimp
     412:	0400                	addi	s0,sp,512
     414:	9f5a01a3          	sb	s5,-1565(s4)
     418:	0700                	addi	s0,sp,896
     41a:	03a0                	addi	s0,sp,456
     41c:	0001                	nop
     41e:	0000                	unimp
     420:	0000                	unimp
     422:	03a2                	slli	t2,t2,0x8
     424:	0001                	nop
     426:	0000                	unimp
     428:	0000                	unimp
     42a:	5f01                	li	t5,-32
     42c:	0103d407          	.4byte	0x103d407
     430:	0000                	unimp
     432:	0000                	unimp
     434:	d600                	sw	s0,40(a2)
     436:	00000103          	lb	sp,0(zero) # 0 <ROM_BASE-0x10000>
     43a:	0000                	unimp
     43c:	0100                	addi	s0,sp,128
     43e:	005e                	c.slli	zero,0x17
     440:	01037807          	.4byte	0x1037807
     444:	0000                	unimp
     446:	0000                	unimp
     448:	7e00                	ld	s0,56(a2)
     44a:	00000103          	lb	sp,0(zero) # 0 <ROM_BASE-0x10000>
     44e:	0000                	unimp
     450:	0200                	addi	s0,sp,256
     452:	9f30                	.2byte	0x9f30
     454:	01037e07          	.4byte	0x1037e07
     458:	0000                	unimp
     45a:	0000                	unimp
     45c:	8a00                	.2byte	0x8a00
     45e:	00000103          	lb	sp,0(zero) # 0 <ROM_BASE-0x10000>
     462:	0000                	unimp
     464:	0100                	addi	s0,sp,128
     466:	075f 038a 0001      	.byte	0x5f, 0x07, 0x8a, 0x03, 0x01, 0x00
     46c:	0000                	unimp
     46e:	0000                	unimp
     470:	0394                	addi	a3,sp,448
     472:	0001                	nop
     474:	0000                	unimp
     476:	0000                	unimp
     478:	5e01                	li	t3,-32
     47a:	0103c407          	.4byte	0x103c407
     47e:	0000                	unimp
     480:	0000                	unimp
     482:	ce00                	sw	s0,24(a2)
     484:	00000103          	lb	sp,0(zero) # 0 <ROM_BASE-0x10000>
     488:	0000                	unimp
     48a:	0100                	addi	s0,sp,128
     48c:	005f cc07 0103      	.byte	0x5f, 0x00, 0x07, 0xcc, 0x03, 0x01
     492:	0000                	unimp
     494:	0000                	unimp
     496:	d000                	sw	s0,32(s0)
     498:	00000103          	lb	sp,0(zero) # 0 <ROM_BASE-0x10000>
     49c:	0000                	unimp
     49e:	0100                	addi	s0,sp,128
     4a0:	005e                	c.slli	zero,0x17
     4a2:	0103cc07          	.4byte	0x103cc07
     4a6:	0000                	unimp
     4a8:	0000                	unimp
     4aa:	d000                	sw	s0,32(s0)
     4ac:	00000103          	lb	sp,0(zero) # 0 <ROM_BASE-0x10000>
     4b0:	0000                	unimp
     4b2:	0600                	addi	s0,sp,768
     4b4:	680c                	ld	a1,16(s0)
     4b6:	0000                	unimp
     4b8:	9f20                	.2byte	0x9f20
     4ba:	0700                	addi	s0,sp,896
     4bc:	038a                	slli	t2,t2,0x2
     4be:	0001                	nop
     4c0:	0000                	unimp
     4c2:	0000                	unimp
     4c4:	038c                	addi	a1,sp,448
     4c6:	0001                	nop
     4c8:	0000                	unimp
     4ca:	0000                	unimp
     4cc:	0806                	slli	a6,a6,0x1
     4ce:	7f32                	ld	t5,296(sp)
     4d0:	1c00                	addi	s0,sp,560
     4d2:	079f 038c 0001      	.byte	0x9f, 0x07, 0x8c, 0x03, 0x01, 0x00
     4d8:	0000                	unimp
     4da:	0000                	unimp
     4dc:	038e                	slli	t2,t2,0x3
     4de:	0001                	nop
     4e0:	0000                	unimp
     4e2:	0000                	unimp
     4e4:	0806                	slli	a6,a6,0x1
     4e6:	1c007f33          	.4byte	0x1c007f33
     4ea:	009f b007 0103      	.byte	0x9f, 0x00, 0x07, 0xb0, 0x03, 0x01
     4f0:	0000                	unimp
     4f2:	0000                	unimp
     4f4:	b800                	.2byte	0xb800
     4f6:	00000103          	lb	sp,0(zero) # 0 <ROM_BASE-0x10000>
     4fa:	0000                	unimp
     4fc:	0100                	addi	s0,sp,128
     4fe:	075f 03b8 0001      	.byte	0x5f, 0x07, 0xb8, 0x03, 0x01, 0x00
     504:	0000                	unimp
     506:	0000                	unimp
     508:	03c4                	addi	s1,sp,452
     50a:	0001                	nop
     50c:	0000                	unimp
     50e:	0000                	unimp
     510:	5d01                	li	s10,-32
     512:	0103d207          	.4byte	0x103d207
     516:	0000                	unimp
     518:	0000                	unimp
     51a:	d800                	sw	s0,48(s0)
     51c:	00000103          	lb	sp,0(zero) # 0 <ROM_BASE-0x10000>
     520:	0000                	unimp
     522:	0100                	addi	s0,sp,128
     524:	075f 03d8 0001      	.byte	0x5f, 0x07, 0xd8, 0x03, 0x01, 0x00
     52a:	0000                	unimp
     52c:	0000                	unimp
     52e:	03e2                	slli	t2,t2,0x18
     530:	0001                	nop
     532:	0000                	unimp
     534:	0000                	unimp
     536:	9f017f03          	.4byte	0x9f017f03
     53a:	0700                	addi	s0,sp,896
     53c:	0370                	addi	a2,sp,396
     53e:	0001                	nop
     540:	0000                	unimp
     542:	0000                	unimp
     544:	0378                	addi	a4,sp,396
     546:	0001                	nop
     548:	0000                	unimp
     54a:	0000                	unimp
     54c:	9ffe0903          	lb	s2,-1537(t3) # 189ff <_RODATA_END_+0x6dd6>
     550:	0700                	addi	s0,sp,896
     552:	0370                	addi	a2,sp,396
     554:	0001                	nop
     556:	0000                	unimp
     558:	0000                	unimp
     55a:	0378                	addi	a4,sp,396
     55c:	0001                	nop
     55e:	0000                	unimp
     560:	0000                	unimp
     562:	0c06                	slli	s8,s8,0x1
     564:	0070                	addi	a2,sp,12
     566:	2000                	.2byte	0x2000
     568:	009f 9007 0103      	.byte	0x9f, 0x00, 0x07, 0x90, 0x03, 0x01
     56e:	0000                	unimp
     570:	0000                	unimp
     572:	9e00                	.2byte	0x9e00
     574:	00000103          	lb	sp,0(zero) # 0 <ROM_BASE-0x10000>
     578:	0000                	unimp
     57a:	0400                	addi	s0,sp,512
     57c:	060a                	slli	a2,a2,0x2
     57e:	9f01                	subw	a4,a4,s0
     580:	0700                	addi	s0,sp,896
     582:	0390                	addi	a2,sp,448
     584:	0001                	nop
     586:	0000                	unimp
     588:	0000                	unimp
     58a:	039e                	slli	t2,t2,0x7
     58c:	0001                	nop
     58e:	0000                	unimp
     590:	0000                	unimp
     592:	0c06                	slli	s8,s8,0x1
     594:	0060                	addi	s0,sp,12
     596:	2000                	.2byte	0x2000
     598:	009f b407 0103      	.byte	0x9f, 0x00, 0x07, 0xb4, 0x03, 0x01
     59e:	0000                	unimp
     5a0:	0000                	unimp
     5a2:	bc00                	.2byte	0xbc00
     5a4:	00000103          	lb	sp,0(zero) # 0 <ROM_BASE-0x10000>
     5a8:	0000                	unimp
     5aa:	0300                	addi	s0,sp,384
     5ac:	ff09                	bnez	a4,4c6 <ROM_BASE-0xfb3a>
     5ae:	009f b407 0103      	.byte	0x9f, 0x00, 0x07, 0xb4, 0x03, 0x01
     5b4:	0000                	unimp
     5b6:	0000                	unimp
     5b8:	bc00                	.2byte	0xbc00
     5ba:	00000103          	lb	sp,0(zero) # 0 <ROM_BASE-0x10000>
     5be:	0000                	unimp
     5c0:	0600                	addi	s0,sp,768
     5c2:	700c                	ld	a1,32(s0)
     5c4:	0000                	unimp
     5c6:	9f20                	.2byte	0x9f20
     5c8:	0700                	addi	s0,sp,896
     5ca:	03bc                	addi	a5,sp,456
     5cc:	0001                	nop
     5ce:	0000                	unimp
     5d0:	0000                	unimp
     5d2:	03c0                	addi	s0,sp,452
     5d4:	0001                	nop
     5d6:	0000                	unimp
     5d8:	0000                	unimp
     5da:	3602                	.2byte	0x3602
     5dc:	009f bc07 0103      	.byte	0x9f, 0x00, 0x07, 0xbc, 0x03, 0x01
     5e2:	0000                	unimp
     5e4:	0000                	unimp
     5e6:	c000                	sw	s0,0(s0)
     5e8:	00000103          	lb	sp,0(zero) # 0 <ROM_BASE-0x10000>
     5ec:	0000                	unimp
     5ee:	0600                	addi	s0,sp,768
     5f0:	600c                	ld	a1,0(s0)
     5f2:	0000                	unimp
     5f4:	9f20                	.2byte	0x9f20
     5f6:	0700                	addi	s0,sp,896
     5f8:	02f2                	slli	t0,t0,0x1c
     5fa:	0001                	nop
     5fc:	0000                	unimp
     5fe:	0000                	unimp
     600:	0330                	addi	a2,sp,392
     602:	0001                	nop
     604:	0000                	unimp
     606:	0000                	unimp
     608:	5a01                	li	s4,-32
     60a:	01033007          	.4byte	0x1033007
     60e:	0000                	unimp
     610:	0000                	unimp
     612:	6800                	ld	s0,16(s0)
     614:	00000103          	lb	sp,0(zero) # 0 <ROM_BASE-0x10000>
     618:	0000                	unimp
     61a:	0400                	addi	s0,sp,512
     61c:	9f5a01a3          	sb	s5,-1565(s4)
     620:	0700                	addi	s0,sp,896
     622:	0328                	addi	a0,sp,392
     624:	0001                	nop
     626:	0000                	unimp
     628:	0000                	unimp
     62a:	0364                	addi	s1,sp,396
     62c:	0001                	nop
     62e:	0000                	unimp
     630:	0000                	unimp
     632:	5901                	li	s2,-32
     634:	0700                	addi	s0,sp,896
     636:	0304                	addi	s1,sp,384
     638:	0001                	nop
     63a:	0000                	unimp
     63c:	0000                	unimp
     63e:	0308                	addi	a0,sp,384
     640:	0001                	nop
     642:	0000                	unimp
     644:	0000                	unimp
     646:	3002                	.2byte	0x3002
     648:	079f 0308 0001      	.byte	0x9f, 0x07, 0x08, 0x03, 0x01, 0x00
     64e:	0000                	unimp
     650:	0000                	unimp
     652:	030a                	slli	t1,t1,0x2
     654:	0001                	nop
     656:	0000                	unimp
     658:	0000                	unimp
     65a:	0806                	slli	a6,a6,0x1
     65c:	7f64                	ld	s1,248(a4)
     65e:	1c00                	addi	s0,sp,560
     660:	079f 030a 0001      	.byte	0x9f, 0x07, 0x0a, 0x03, 0x01, 0x00
     666:	0000                	unimp
     668:	0000                	unimp
     66a:	030c                	addi	a1,sp,384
     66c:	0001                	nop
     66e:	0000                	unimp
     670:	0000                	unimp
     672:	0806                	slli	a6,a6,0x1
     674:	7f65                	lui	t5,0xffff9
     676:	1c00                	addi	s0,sp,560
     678:	009f f207 0102      	.byte	0x9f, 0x00, 0x07, 0xf2, 0x02, 0x01
     67e:	0000                	unimp
     680:	0000                	unimp
     682:	0200                	addi	s0,sp,256
     684:	00000103          	lb	sp,0(zero) # 0 <ROM_BASE-0x10000>
     688:	0000                	unimp
     68a:	0300                	addi	s0,sp,384
     68c:	fe09                	bnez	a2,5a6 <ROM_BASE-0xfa5a>
     68e:	009f f207 0102      	.byte	0x9f, 0x00, 0x07, 0xf2, 0x02, 0x01
     694:	0000                	unimp
     696:	0000                	unimp
     698:	0200                	addi	s0,sp,256
     69a:	00000103          	lb	sp,0(zero) # 0 <ROM_BASE-0x10000>
     69e:	0000                	unimp
     6a0:	0600                	addi	s0,sp,768
     6a2:	700c                	ld	a1,32(s0)
     6a4:	0000                	unimp
     6a6:	9f20                	.2byte	0x9f20
     6a8:	0700                	addi	s0,sp,896
     6aa:	0302                	c.slli64	t1
     6ac:	0001                	nop
     6ae:	0000                	unimp
     6b0:	0000                	unimp
     6b2:	0304                	addi	s1,sp,384
     6b4:	0001                	nop
     6b6:	0000                	unimp
     6b8:	0000                	unimp
     6ba:	5a01                	li	s4,-32
     6bc:	0700                	addi	s0,sp,896
     6be:	0302                	c.slli64	t1
     6c0:	0001                	nop
     6c2:	0000                	unimp
     6c4:	0000                	unimp
     6c6:	0304                	addi	s1,sp,384
     6c8:	0001                	nop
     6ca:	0000                	unimp
     6cc:	0000                	unimp
     6ce:	0c06                	slli	s8,s8,0x1
     6d0:	0068                	addi	a0,sp,12
     6d2:	2000                	.2byte	0x2000
     6d4:	009f 0e07 0103      	.byte	0x9f, 0x00, 0x07, 0x0e, 0x03, 0x01
     6da:	0000                	unimp
     6dc:	0000                	unimp
     6de:	1c00                	addi	s0,sp,560
     6e0:	00000103          	lb	sp,0(zero) # 0 <ROM_BASE-0x10000>
     6e4:	0000                	unimp
     6e6:	0400                	addi	s0,sp,512
     6e8:	060a                	slli	a2,a2,0x2
     6ea:	9f01                	subw	a4,a4,s0
     6ec:	0700                	addi	s0,sp,896
     6ee:	030e                	slli	t1,t1,0x3
     6f0:	0001                	nop
     6f2:	0000                	unimp
     6f4:	0000                	unimp
     6f6:	031c                	addi	a5,sp,384
     6f8:	0001                	nop
     6fa:	0000                	unimp
     6fc:	0000                	unimp
     6fe:	0c06                	slli	s8,s8,0x1
     700:	0060                	addi	s0,sp,12
     702:	2000                	.2byte	0x2000
     704:	009f 2207 0103      	.byte	0x9f, 0x00, 0x07, 0x22, 0x03, 0x01
     70a:	0000                	unimp
     70c:	0000                	unimp
     70e:	2800                	.2byte	0x2800
     710:	00000103          	lb	sp,0(zero) # 0 <ROM_BASE-0x10000>
     714:	0000                	unimp
     716:	0600                	addi	s0,sp,768
     718:	6c0c                	ld	a1,24(s0)
     71a:	0000                	unimp
     71c:	9f20                	.2byte	0x9f20
     71e:	0700                	addi	s0,sp,896
     720:	034e                	slli	t1,t1,0x13
     722:	0001                	nop
     724:	0000                	unimp
     726:	0000                	unimp
     728:	035a                	slli	t1,t1,0x16
     72a:	0001                	nop
     72c:	0000                	unimp
     72e:	0000                	unimp
     730:	9fff0903          	lb	s2,-1537(t5) # ffffffffffff89ff <_RODATA_END_+0xfffffffffffe6dd6>
     734:	0700                	addi	s0,sp,896
     736:	034e                	slli	t1,t1,0x13
     738:	0001                	nop
     73a:	0000                	unimp
     73c:	0000                	unimp
     73e:	035a                	slli	t1,t1,0x16
     740:	0001                	nop
     742:	0000                	unimp
     744:	0000                	unimp
     746:	0c06                	slli	s8,s8,0x1
     748:	0070                	addi	a2,sp,12
     74a:	2000                	.2byte	0x2000
     74c:	009f 5a07 0103      	.byte	0x9f, 0x00, 0x07, 0x5a, 0x03, 0x01
     752:	0000                	unimp
     754:	0000                	unimp
     756:	5e00                	lw	s0,56(a2)
     758:	00000103          	lb	sp,0(zero) # 0 <ROM_BASE-0x10000>
     75c:	0000                	unimp
     75e:	0200                	addi	s0,sp,256
     760:	9f36                	add	t5,t5,a3
     762:	0700                	addi	s0,sp,896
     764:	035a                	slli	t1,t1,0x16
     766:	0001                	nop
     768:	0000                	unimp
     76a:	0000                	unimp
     76c:	035e                	slli	t1,t1,0x17
     76e:	0001                	nop
     770:	0000                	unimp
     772:	0000                	unimp
     774:	0c06                	slli	s8,s8,0x1
     776:	0060                	addi	s0,sp,12
     778:	2000                	.2byte	0x2000
     77a:	009f 9a07 0102      	.byte	0x9f, 0x00, 0x07, 0x9a, 0x02, 0x01
     780:	0000                	unimp
     782:	0000                	unimp
     784:	b800                	.2byte	0xb800
     786:	0102                	c.slli64	sp
     788:	0000                	unimp
     78a:	0000                	unimp
     78c:	0100                	addi	s0,sp,128
     78e:	0759                	addi	a4,a4,22
     790:	02c6                	slli	t0,t0,0x11
     792:	0001                	nop
     794:	0000                	unimp
     796:	0000                	unimp
     798:	02e6                	slli	t0,t0,0x19
     79a:	0001                	nop
     79c:	0000                	unimp
     79e:	0000                	unimp
     7a0:	5901                	li	s2,-32
     7a2:	0700                	addi	s0,sp,896
     7a4:	0278                	addi	a4,sp,268
     7a6:	0001                	nop
     7a8:	0000                	unimp
     7aa:	0000                	unimp
     7ac:	027a                	slli	tp,tp,0x1e
     7ae:	0001                	nop
     7b0:	0000                	unimp
     7b2:	0000                	unimp
     7b4:	3002                	.2byte	0x3002
     7b6:	079f 027a 0001      	.byte	0x9f, 0x07, 0x7a, 0x02, 0x01, 0x00
     7bc:	0000                	unimp
     7be:	0000                	unimp
     7c0:	027c                	addi	a5,sp,268
     7c2:	0001                	nop
     7c4:	0000                	unimp
     7c6:	0000                	unimp
     7c8:	3a05                	addiw	s4,s4,-31
     7ca:	007f                	.2byte	0x7f
     7cc:	9f1c                	.2byte	0x9f1c
     7ce:	01027c07          	.4byte	0x1027c07
     7d2:	0000                	unimp
     7d4:	0000                	unimp
     7d6:	7e00                	ld	s0,56(a2)
     7d8:	0102                	c.slli64	sp
     7da:	0000                	unimp
     7dc:	0000                	unimp
     7de:	0500                	addi	s0,sp,640
     7e0:	1c007f3b          	.4byte	0x1c007f3b
     7e4:	009f 7007 0102      	.byte	0x9f, 0x00, 0x07, 0x70, 0x02, 0x01
     7ea:	0000                	unimp
     7ec:	0000                	unimp
     7ee:	7800                	ld	s0,48(s0)
     7f0:	0102                	c.slli64	sp
     7f2:	0000                	unimp
     7f4:	0000                	unimp
     7f6:	0200                	addi	s0,sp,256
     7f8:	9f3a                	add	t5,t5,a4
     7fa:	0700                	addi	s0,sp,896
     7fc:	0270                	addi	a2,sp,268
     7fe:	0001                	nop
     800:	0000                	unimp
     802:	0000                	unimp
     804:	0278                	addi	a4,sp,268
     806:	0001                	nop
     808:	0000                	unimp
     80a:	0000                	unimp
     80c:	0c06                	slli	s8,s8,0x1
     80e:	0040                	addi	s0,sp,4
     810:	2000                	.2byte	0x2000
     812:	009f 8007 0102      	.byte	0x9f, 0x00, 0x07, 0x80, 0x02, 0x01
     818:	0000                	unimp
     81a:	0000                	unimp
     81c:	8a00                	.2byte	0x8a00
     81e:	0102                	c.slli64	sp
     820:	0000                	unimp
     822:	0000                	unimp
     824:	0400                	addi	s0,sp,512
     826:	040a                	slli	s0,s0,0x2
     828:	9f01                	subw	a4,a4,s0
     82a:	0700                	addi	s0,sp,896
     82c:	0280                	addi	s0,sp,320
     82e:	0001                	nop
     830:	0000                	unimp
     832:	0000                	unimp
     834:	028a                	slli	t0,t0,0x2
     836:	0001                	nop
     838:	0000                	unimp
     83a:	0000                	unimp
     83c:	0c06                	slli	s8,s8,0x1
     83e:	0060                	addi	s0,sp,12
     840:	2000                	.2byte	0x2000
     842:	009f 8a07 0102      	.byte	0x9f, 0x00, 0x07, 0x8a, 0x02, 0x01
     848:	0000                	unimp
     84a:	0000                	unimp
     84c:	9a00                	.2byte	0x9a00
     84e:	0102                	c.slli64	sp
     850:	0000                	unimp
     852:	0000                	unimp
     854:	0600                	addi	s0,sp,768
     856:	640c                	ld	a1,8(s0)
     858:	0000                	unimp
     85a:	9f20                	.2byte	0x9f20
     85c:	0700                	addi	s0,sp,896
     85e:	02b0                	addi	a2,sp,328
     860:	0001                	nop
     862:	0000                	unimp
     864:	0000                	unimp
     866:	02b6                	slli	t0,t0,0xd
     868:	0001                	nop
     86a:	0000                	unimp
     86c:	0000                	unimp
     86e:	0a04                	addi	s1,sp,272
     870:	0166                	slli	sp,sp,0x19
     872:	009f b007 0102      	.byte	0x9f, 0x00, 0x07, 0xb0, 0x02, 0x01
     878:	0000                	unimp
     87a:	0000                	unimp
     87c:	b600                	.2byte	0xb600
     87e:	0102                	c.slli64	sp
     880:	0000                	unimp
     882:	0000                	unimp
     884:	0600                	addi	s0,sp,768
     886:	600c                	ld	a1,0(s0)
     888:	0000                	unimp
     88a:	9f20                	.2byte	0x9f20
     88c:	0700                	addi	s0,sp,896
     88e:	02b6                	slli	t0,t0,0xd
     890:	0001                	nop
     892:	0000                	unimp
     894:	0000                	unimp
     896:	02c6                	slli	t0,t0,0x11
     898:	0001                	nop
     89a:	0000                	unimp
     89c:	0000                	unimp
     89e:	0c06                	slli	s8,s8,0x1
     8a0:	0064                	addi	s1,sp,12
     8a2:	2000                	.2byte	0x2000
     8a4:	009f dc07 0102      	.byte	0x9f, 0x00, 0x07, 0xdc, 0x02, 0x01
     8aa:	0000                	unimp
     8ac:	0000                	unimp
     8ae:	e000                	sd	s0,0(s0)
     8b0:	0102                	c.slli64	sp
     8b2:	0000                	unimp
     8b4:	0000                	unimp
     8b6:	0200                	addi	s0,sp,256
     8b8:	9f36                	add	t5,t5,a3
     8ba:	0700                	addi	s0,sp,896
     8bc:	02dc                	addi	a5,sp,324
     8be:	0001                	nop
     8c0:	0000                	unimp
     8c2:	0000                	unimp
     8c4:	02e0                	addi	s0,sp,332
     8c6:	0001                	nop
     8c8:	0000                	unimp
     8ca:	0000                	unimp
     8cc:	0c06                	slli	s8,s8,0x1
     8ce:	0060                	addi	s0,sp,12
     8d0:	2000                	.2byte	0x2000
     8d2:	009f 5807 0102      	.byte	0x9f, 0x00, 0x07, 0x58, 0x02, 0x01
     8d8:	0000                	unimp
     8da:	0000                	unimp
     8dc:	5a00                	lw	s0,48(a2)
     8de:	0102                	c.slli64	sp
     8e0:	0000                	unimp
     8e2:	0000                	unimp
     8e4:	0100                	addi	s0,sp,128
     8e6:	075a                	slli	a4,a4,0x16
     8e8:	025a                	slli	tp,tp,0x16
     8ea:	0001                	nop
     8ec:	0000                	unimp
     8ee:	0000                	unimp
     8f0:	025c                	addi	a5,sp,260
     8f2:	0001                	nop
     8f4:	0000                	unimp
     8f6:	0000                	unimp
     8f8:	a304                	.2byte	0xa304
     8fa:	5a01                	li	s4,-32
     8fc:	009f 06ed 0000      	.byte	0x9f, 0x00, 0xed, 0x06, 0x00, 0x00
     902:	0005                	c.nop	1
     904:	0008                	.2byte	0x8
     906:	0000                	unimp
     908:	0000                	unimp
     90a:	01066a07          	.4byte	0x1066a07
     90e:	0000                	unimp
     910:	0000                	unimp
     912:	a600                	.2byte	0xa600
     914:	0106                	slli	sp,sp,0x1
     916:	0000                	unimp
     918:	0000                	unimp
     91a:	0100                	addi	s0,sp,128
     91c:	075a                	slli	a4,a4,0x16
     91e:	06a6                	slli	a3,a3,0x9
     920:	0001                	nop
     922:	0000                	unimp
     924:	0000                	unimp
     926:	06e8                	addi	a0,sp,844
     928:	0001                	nop
     92a:	0000                	unimp
     92c:	0000                	unimp
     92e:	5901                	li	s2,-32
     930:	0106e807          	.4byte	0x106e807
     934:	0000                	unimp
     936:	0000                	unimp
     938:	7000                	ld	s0,32(s0)
     93a:	00000107          	.4byte	0x107
     93e:	0000                	unimp
     940:	0400                	addi	s0,sp,512
     942:	9f5a01a3          	sb	s5,-1565(s4)
     946:	01077007          	.4byte	0x1077007
     94a:	0000                	unimp
     94c:	0000                	unimp
     94e:	9e00                	.2byte	0x9e00
     950:	00000107          	.4byte	0x107
     954:	0000                	unimp
     956:	0100                	addi	s0,sp,128
     958:	0759                	addi	a4,a4,22
     95a:	079e                	slli	a5,a5,0x7
     95c:	0001                	nop
     95e:	0000                	unimp
     960:	0000                	unimp
     962:	07ba                	slli	a5,a5,0xe
     964:	0001                	nop
     966:	0000                	unimp
     968:	0000                	unimp
     96a:	a304                	.2byte	0xa304
     96c:	5a01                	li	s4,-32
     96e:	009f 6a07 0106      	.byte	0x9f, 0x00, 0x07, 0x6a, 0x06, 0x01
     974:	0000                	unimp
     976:	0000                	unimp
     978:	a400                	.2byte	0xa400
     97a:	0106                	slli	sp,sp,0x1
     97c:	0000                	unimp
     97e:	0000                	unimp
     980:	0100                	addi	s0,sp,128
     982:	06a4075b          	.4byte	0x6a4075b
     986:	0001                	nop
     988:	0000                	unimp
     98a:	0000                	unimp
     98c:	07ba                	slli	a5,a5,0xe
     98e:	0001                	nop
     990:	0000                	unimp
     992:	0000                	unimp
     994:	a304                	.2byte	0xa304
     996:	5b01                	li	s6,-32
     998:	009f 6a07 0106      	.byte	0x9f, 0x00, 0x07, 0x6a, 0x06, 0x01
     99e:	0000                	unimp
     9a0:	0000                	unimp
     9a2:	8e00                	.2byte	0x8e00
     9a4:	0106                	slli	sp,sp,0x1
     9a6:	0000                	unimp
     9a8:	0000                	unimp
     9aa:	0100                	addi	s0,sp,128
     9ac:	075c                	addi	a5,sp,900
     9ae:	068e                	slli	a3,a3,0x3
     9b0:	0001                	nop
     9b2:	0000                	unimp
     9b4:	0000                	unimp
     9b6:	07ba                	slli	a5,a5,0xe
     9b8:	0001                	nop
     9ba:	0000                	unimp
     9bc:	0000                	unimp
     9be:	a304                	.2byte	0xa304
     9c0:	5c01                	li	s8,-32
     9c2:	009f 6a07 0106      	.byte	0x9f, 0x00, 0x07, 0x6a, 0x06, 0x01
     9c8:	0000                	unimp
     9ca:	0000                	unimp
     9cc:	a600                	.2byte	0xa600
     9ce:	0106                	slli	sp,sp,0x1
     9d0:	0000                	unimp
     9d2:	0000                	unimp
     9d4:	0100                	addi	s0,sp,128
     9d6:	075a                	slli	a4,a4,0x16
     9d8:	06a6                	slli	a3,a3,0x9
     9da:	0001                	nop
     9dc:	0000                	unimp
     9de:	0000                	unimp
     9e0:	06e8                	addi	a0,sp,844
     9e2:	0001                	nop
     9e4:	0000                	unimp
     9e6:	0000                	unimp
     9e8:	5901                	li	s2,-32
     9ea:	0106f607          	.4byte	0x106f607
     9ee:	0000                	unimp
     9f0:	0000                	unimp
     9f2:	9e00                	.2byte	0x9e00
     9f4:	00000107          	.4byte	0x107
     9f8:	0000                	unimp
     9fa:	0100                	addi	s0,sp,128
     9fc:	0759                	addi	a4,a4,22
     9fe:	07b6                	slli	a5,a5,0xd
     a00:	0001                	nop
     a02:	0000                	unimp
     a04:	0000                	unimp
     a06:	07ba                	slli	a5,a5,0xe
     a08:	0001                	nop
     a0a:	0000                	unimp
     a0c:	0000                	unimp
     a0e:	5901                	li	s2,-32
     a10:	0700                	addi	s0,sp,896
     a12:	068a                	slli	a3,a3,0x2
     a14:	0001                	nop
     a16:	0000                	unimp
     a18:	0000                	unimp
     a1a:	07a8                	addi	a0,sp,968
     a1c:	0001                	nop
     a1e:	0000                	unimp
     a20:	0000                	unimp
     a22:	6201                	.2byte	0x6201
     a24:	0107b607          	.4byte	0x107b607
     a28:	0000                	unimp
     a2a:	0000                	unimp
     a2c:	ba00                	.2byte	0xba00
     a2e:	00000107          	.4byte	0x107
     a32:	0000                	unimp
     a34:	0100                	addi	s0,sp,128
     a36:	0062                	c.slli	zero,0x18
     a38:	01068a07          	.4byte	0x1068a07
     a3c:	0000                	unimp
     a3e:	0000                	unimp
     a40:	6000                	ld	s0,0(s0)
     a42:	00000107          	.4byte	0x107
     a46:	0000                	unimp
     a48:	0200                	addi	s0,sp,256
     a4a:	9f30                	.2byte	0x9f30
     a4c:	01076007          	.4byte	0x1076007
     a50:	0000                	unimp
     a52:	0000                	unimp
     a54:	7000                	ld	s0,32(s0)
     a56:	00000107          	.4byte	0x107
     a5a:	0000                	unimp
     a5c:	0100                	addi	s0,sp,128
     a5e:	0758                	addi	a4,sp,900
     a60:	0770                	addi	a2,sp,908
     a62:	0001                	nop
     a64:	0000                	unimp
     a66:	0000                	unimp
     a68:	079e                	slli	a5,a5,0x7
     a6a:	0001                	nop
     a6c:	0000                	unimp
     a6e:	0000                	unimp
     a70:	3002                	.2byte	0x3002
     a72:	079f 07b6 0001      	.byte	0x9f, 0x07, 0xb6, 0x07, 0x01, 0x00
     a78:	0000                	unimp
     a7a:	0000                	unimp
     a7c:	07ba                	slli	a5,a5,0xe
     a7e:	0001                	nop
     a80:	0000                	unimp
     a82:	0000                	unimp
     a84:	3002                	.2byte	0x3002
     a86:	009f a007 0106      	.byte	0x9f, 0x00, 0x07, 0xa0, 0x06, 0x01
     a8c:	0000                	unimp
     a8e:	0000                	unimp
     a90:	aa00                	.2byte	0xaa00
     a92:	0106                	slli	sp,sp,0x1
     a94:	0000                	unimp
     a96:	0000                	unimp
     a98:	0200                	addi	s0,sp,256
     a9a:	9f30                	.2byte	0x9f30
     a9c:	0106aa07          	.4byte	0x106aa07
     aa0:	0000                	unimp
     aa2:	0000                	unimp
     aa4:	b500                	.2byte	0xb500
     aa6:	0106                	slli	sp,sp,0x1
     aa8:	0000                	unimp
     aaa:	0000                	unimp
     aac:	0100                	addi	s0,sp,128
     aae:	075a                	slli	a4,a4,0x16
     ab0:	06b6                	slli	a3,a3,0xd
     ab2:	0001                	nop
     ab4:	0000                	unimp
     ab6:	0000                	unimp
     ab8:	06c1                	addi	a3,a3,16
     aba:	0001                	nop
     abc:	0000                	unimp
     abe:	0000                	unimp
     ac0:	5a01                	li	s4,-32
     ac2:	0106c207          	.4byte	0x106c207
     ac6:	0000                	unimp
     ac8:	0000                	unimp
     aca:	c900                	sw	s0,16(a0)
     acc:	0106                	slli	sp,sp,0x1
     ace:	0000                	unimp
     ad0:	0000                	unimp
     ad2:	0100                	addi	s0,sp,128
     ad4:	075a                	slli	a4,a4,0x16
     ad6:	06ca                	slli	a3,a3,0x12
     ad8:	0001                	nop
     ada:	0000                	unimp
     adc:	0000                	unimp
     ade:	06d2                	slli	a3,a3,0x14
     ae0:	0001                	nop
     ae2:	0000                	unimp
     ae4:	0000                	unimp
     ae6:	5a01                	li	s4,-32
     ae8:	0106d207          	.4byte	0x106d207
     aec:	0000                	unimp
     aee:	0000                	unimp
     af0:	dd00                	sw	s0,56(a0)
     af2:	0106                	slli	sp,sp,0x1
     af4:	0000                	unimp
     af6:	0000                	unimp
     af8:	0100                	addi	s0,sp,128
     afa:	005c                	addi	a5,sp,4
     afc:	01068a07          	.4byte	0x1068a07
     b00:	0000                	unimp
     b02:	0000                	unimp
     b04:	9200                	.2byte	0x9200
     b06:	0106                	slli	sp,sp,0x1
     b08:	0000                	unimp
     b0a:	0000                	unimp
     b0c:	0200                	addi	s0,sp,256
     b0e:	9f30                	.2byte	0x9f30
     b10:	01069207          	.4byte	0x1069207
     b14:	0000                	unimp
     b16:	0000                	unimp
     b18:	9a00                	.2byte	0x9a00
     b1a:	0106                	slli	sp,sp,0x1
     b1c:	0000                	unimp
     b1e:	0000                	unimp
     b20:	0100                	addi	s0,sp,128
     b22:	075f 069a 0001      	.byte	0x5f, 0x07, 0x9a, 0x06, 0x01, 0x00
     b28:	0000                	unimp
     b2a:	0000                	unimp
     b2c:	069c                	addi	a5,sp,832
     b2e:	0001                	nop
     b30:	0000                	unimp
     b32:	0000                	unimp
     b34:	9f017f03          	.4byte	0x9f017f03
     b38:	0700                	addi	s0,sp,896
     b3a:	0770                	addi	a2,sp,908
     b3c:	0001                	nop
     b3e:	0000                	unimp
     b40:	0000                	unimp
     b42:	0774                	addi	a3,sp,908
     b44:	0001                	nop
     b46:	0000                	unimp
     b48:	0000                	unimp
     b4a:	3002                	.2byte	0x3002
     b4c:	079f 0774 0001      	.byte	0x9f, 0x07, 0x74, 0x07, 0x01, 0x00
     b52:	0000                	unimp
     b54:	0000                	unimp
     b56:	0778                	addi	a4,sp,908
     b58:	0001                	nop
     b5a:	0000                	unimp
     b5c:	0000                	unimp
     b5e:	3102                	.2byte	0x3102
     b60:	079f 0778 0001      	.byte	0x9f, 0x07, 0x78, 0x07, 0x01, 0x00
     b66:	0000                	unimp
     b68:	0000                	unimp
     b6a:	077c                	addi	a5,sp,908
     b6c:	0001                	nop
     b6e:	0000                	unimp
     b70:	0000                	unimp
     b72:	3202                	.2byte	0x3202
     b74:	079f 077c 0001      	.byte	0x9f, 0x07, 0x7c, 0x07, 0x01, 0x00
     b7a:	0000                	unimp
     b7c:	0000                	unimp
     b7e:	0780                	addi	s0,sp,960
     b80:	0001                	nop
     b82:	0000                	unimp
     b84:	0000                	unimp
     b86:	3302                	.2byte	0x3302
     b88:	079f 0780 0001      	.byte	0x9f, 0x07, 0x80, 0x07, 0x01, 0x00
     b8e:	0000                	unimp
     b90:	0000                	unimp
     b92:	0784                	addi	s1,sp,960
     b94:	0001                	nop
     b96:	0000                	unimp
     b98:	0000                	unimp
     b9a:	3402                	.2byte	0x3402
     b9c:	079f 0784 0001      	.byte	0x9f, 0x07, 0x84, 0x07, 0x01, 0x00
     ba2:	0000                	unimp
     ba4:	0000                	unimp
     ba6:	0788                	addi	a0,sp,960
     ba8:	0001                	nop
     baa:	0000                	unimp
     bac:	0000                	unimp
     bae:	3502                	.2byte	0x3502
     bb0:	079f 0788 0001      	.byte	0x9f, 0x07, 0x88, 0x07, 0x01, 0x00
     bb6:	0000                	unimp
     bb8:	0000                	unimp
     bba:	078c                	addi	a1,sp,960
     bbc:	0001                	nop
     bbe:	0000                	unimp
     bc0:	0000                	unimp
     bc2:	3602                	.2byte	0x3602
     bc4:	079f 078c 0001      	.byte	0x9f, 0x07, 0x8c, 0x07, 0x01, 0x00
     bca:	0000                	unimp
     bcc:	0000                	unimp
     bce:	0790                	addi	a2,sp,960
     bd0:	0001                	nop
     bd2:	0000                	unimp
     bd4:	0000                	unimp
     bd6:	3702                	.2byte	0x3702
     bd8:	079f 0790 0001      	.byte	0x9f, 0x07, 0x90, 0x07, 0x01, 0x00
     bde:	0000                	unimp
     be0:	0000                	unimp
     be2:	079e                	slli	a5,a5,0x7
     be4:	0001                	nop
     be6:	0000                	unimp
     be8:	0000                	unimp
     bea:	3802                	.2byte	0x3802
     bec:	009f f607 0106      	.byte	0x9f, 0x00, 0x07, 0xf6, 0x06, 0x01
     bf2:	0000                	unimp
     bf4:	0000                	unimp
     bf6:	4200                	lw	s0,0(a2)
     bf8:	00000107          	.4byte	0x107
     bfc:	0000                	unimp
     bfe:	0100                	addi	s0,sp,128
     c00:	0058                	addi	a4,sp,4
     c02:	01073407          	.4byte	0x1073407
     c06:	0000                	unimp
     c08:	0000                	unimp
     c0a:	3800                	.2byte	0x3800
     c0c:	00000107          	.4byte	0x107
     c10:	0000                	unimp
     c12:	0100                	addi	s0,sp,128
     c14:	07380763          	beq	a6,s3,c82 <ROM_BASE-0xf37e>
     c18:	0001                	nop
     c1a:	0000                	unimp
     c1c:	0000                	unimp
     c1e:	073c                	addi	a5,sp,904
     c20:	0001                	nop
     c22:	0000                	unimp
     c24:	0000                	unimp
     c26:	7a09                	lui	s4,0xfffe2
     c28:	0800                	addi	s0,sp,16
     c2a:	1aff                	.2byte	0x1aff
     c2c:	9f210083          	lb	ra,-1550(sp)
     c30:	0700                	addi	s0,sp,896
     c32:	06f6                	slli	a3,a3,0x1d
     c34:	0001                	nop
     c36:	0000                	unimp
     c38:	0000                	unimp
     c3a:	0726                	slli	a4,a4,0x9
     c3c:	0001                	nop
     c3e:	0000                	unimp
     c40:	0000                	unimp
     c42:	8606                	mv	a2,ra
     c44:	7900                	ld	s0,48(a0)
     c46:	1c00                	addi	s0,sp,560
     c48:	079f 0726 0001      	.byte	0x9f, 0x07, 0x26, 0x07, 0x01, 0x00
     c4e:	0000                	unimp
     c50:	0000                	unimp
     c52:	0770                	addi	a2,sp,908
     c54:	0001                	nop
     c56:	0000                	unimp
     c58:	0000                	unimp
     c5a:	0a04                	addi	s1,sp,272
     c5c:	0200                	addi	s0,sp,256
     c5e:	079f 07b6 0001      	.byte	0x9f, 0x07, 0xb6, 0x07, 0x01, 0x00
     c64:	0000                	unimp
     c66:	0000                	unimp
     c68:	07ba                	slli	a5,a5,0xe
     c6a:	0001                	nop
     c6c:	0000                	unimp
     c6e:	0000                	unimp
     c70:	0a04                	addi	s1,sp,272
     c72:	0200                	addi	s0,sp,256
     c74:	009f f607 0106      	.byte	0x9f, 0x00, 0x07, 0xf6, 0x06, 0x01
     c7a:	0000                	unimp
     c7c:	0000                	unimp
     c7e:	7000                	ld	s0,32(s0)
     c80:	00000107          	.4byte	0x107
     c84:	0000                	unimp
     c86:	0300                	addi	s0,sp,384
     c88:	4008                	lw	a0,0(s0)
     c8a:	079f 07b6 0001      	.byte	0x9f, 0x07, 0xb6, 0x07, 0x01, 0x00
     c90:	0000                	unimp
     c92:	0000                	unimp
     c94:	07ba                	slli	a5,a5,0xe
     c96:	0001                	nop
     c98:	0000                	unimp
     c9a:	0000                	unimp
     c9c:	9f400803          	lb	a6,-1548(zero) # fffffffffffff9f4 <_RODATA_END_+0xfffffffffffeddcb>
     ca0:	0700                	addi	s0,sp,896
     ca2:	0702                	c.slli64	a4
     ca4:	0001                	nop
     ca6:	0000                	unimp
     ca8:	0000                	unimp
     caa:	0708                	addi	a0,sp,896
     cac:	0001                	nop
     cae:	0000                	unimp
     cb0:	0000                	unimp
     cb2:	3002                	.2byte	0x3002
     cb4:	079f 0708 0001      	.byte	0x9f, 0x07, 0x08, 0x07, 0x01, 0x00
     cba:	0000                	unimp
     cbc:	0000                	unimp
     cbe:	0714                	addi	a3,sp,896
     cc0:	0001                	nop
     cc2:	0000                	unimp
     cc4:	0000                	unimp
     cc6:	6301                	.2byte	0x6301
     cc8:	0700                	addi	s0,sp,896
     cca:	0630                	addi	a2,sp,776
     ccc:	0001                	nop
     cce:	0000                	unimp
     cd0:	0000                	unimp
     cd2:	0638                	addi	a4,sp,776
     cd4:	0001                	nop
     cd6:	0000                	unimp
     cd8:	0000                	unimp
     cda:	5a01                	li	s4,-32
     cdc:	01063807          	.4byte	0x1063807
     ce0:	0000                	unimp
     ce2:	0000                	unimp
     ce4:	3e00                	.2byte	0x3e00
     ce6:	0106                	slli	sp,sp,0x1
     ce8:	0000                	unimp
     cea:	0000                	unimp
     cec:	0400                	addi	s0,sp,512
     cee:	9f5a01a3          	sb	s5,-1565(s4) # fffffffffffe19e3 <_RODATA_END_+0xfffffffffffcfdba>
     cf2:	01063e07          	.4byte	0x1063e07
     cf6:	0000                	unimp
     cf8:	0000                	unimp
     cfa:	4200                	lw	s0,0(a2)
     cfc:	0106                	slli	sp,sp,0x1
     cfe:	0000                	unimp
     d00:	0000                	unimp
     d02:	1800                	addi	s0,sp,48
     d04:	385a01a3          	sb	t0,899(s4)
     d08:	1414                	addi	a3,sp,544
     d0a:	0a24                	addi	s1,sp,280
     d0c:	ffff                	.2byte	0xffff
     d0e:	171a                	slli	a4,a4,0x26
     d10:	0a16                	slli	s4,s4,0x5
     d12:	ffff                	.2byte	0xffff
     d14:	161a                	slli	a2,a2,0x26
     d16:	231f 2510 9f21      	.byte	0x1f, 0x23, 0x10, 0x25, 0x21, 0x9f
     d1c:	01064207          	.4byte	0x1064207
     d20:	0000                	unimp
     d22:	0000                	unimp
     d24:	6600                	ld	s0,8(a2)
     d26:	0106                	slli	sp,sp,0x1
     d28:	0000                	unimp
     d2a:	0000                	unimp
     d2c:	0100                	addi	s0,sp,128
     d2e:	005a                	c.slli	zero,0x16
     d30:	0105e007          	.4byte	0x105e007
     d34:	0000                	unimp
     d36:	0000                	unimp
     d38:	e200                	sd	s0,0(a2)
     d3a:	0105                	addi	sp,sp,1
     d3c:	0000                	unimp
     d3e:	0000                	unimp
     d40:	0200                	addi	s0,sp,256
     d42:	9f30                	.2byte	0x9f30
     d44:	0105e207          	.4byte	0x105e207
     d48:	0000                	unimp
     d4a:	0000                	unimp
     d4c:	e400                	sd	s0,8(s0)
     d4e:	0105                	addi	sp,sp,1
     d50:	0000                	unimp
     d52:	0000                	unimp
     d54:	0500                	addi	s0,sp,640
     d56:	783a                	ld	a6,424(sp)
     d58:	1c00                	addi	s0,sp,560
     d5a:	009f a207 0105      	.byte	0x9f, 0x00, 0x07, 0xa2, 0x05, 0x01
     d60:	0000                	unimp
     d62:	0000                	unimp
     d64:	a800                	.2byte	0xa800
     d66:	0105                	addi	sp,sp,1
     d68:	0000                	unimp
     d6a:	0000                	unimp
     d6c:	0100                	addi	s0,sp,128
     d6e:	005a                	c.slli	zero,0x16
     d70:	01055e07          	.4byte	0x1055e07
     d74:	0000                	unimp
     d76:	0000                	unimp
     d78:	7800                	ld	s0,48(s0)
     d7a:	0105                	addi	sp,sp,1
     d7c:	0000                	unimp
     d7e:	0000                	unimp
     d80:	0100                	addi	s0,sp,128
     d82:	0058                	addi	a4,sp,4
     d84:	01050807          	.4byte	0x1050807
     d88:	0000                	unimp
     d8a:	0000                	unimp
     d8c:	4400                	lw	s0,8(s0)
     d8e:	0105                	addi	sp,sp,1
     d90:	0000                	unimp
     d92:	0000                	unimp
     d94:	0100                	addi	s0,sp,128
     d96:	0062                	c.slli	zero,0x18
     d98:	01051607          	.4byte	0x1051607
     d9c:	0000                	unimp
     d9e:	0000                	unimp
     da0:	2e00                	.2byte	0x2e00
     da2:	0105                	addi	sp,sp,1
     da4:	0000                	unimp
     da6:	0000                	unimp
     da8:	0100                	addi	s0,sp,128
     daa:	0059                	c.nop	22
     dac:	01051c07          	.4byte	0x1051c07
     db0:	0000                	unimp
     db2:	0000                	unimp
     db4:	3400                	.2byte	0x3400
     db6:	0105                	addi	sp,sp,1
     db8:	0000                	unimp
     dba:	0000                	unimp
     dbc:	0100                	addi	s0,sp,128
     dbe:	0058                	addi	a4,sp,4
     dc0:	0104a207          	.4byte	0x104a207
     dc4:	0000                	unimp
     dc6:	0000                	unimp
     dc8:	b400                	.2byte	0xb400
     dca:	0104                	addi	s1,sp,128
     dcc:	0000                	unimp
     dce:	0000                	unimp
     dd0:	0400                	addi	s0,sp,512
     dd2:	100a                	c.slli	zero,0x22
     dd4:	b4079f27          	.4byte	0xb4079f27
     dd8:	0104                	addi	s1,sp,128
     dda:	0000                	unimp
     ddc:	0000                	unimp
     dde:	c200                	sw	s0,0(a2)
     de0:	0104                	addi	s1,sp,128
     de2:	0000                	unimp
     de4:	0000                	unimp
     de6:	0100                	addi	s0,sp,128
     de8:	0058                	addi	a4,sp,4
     dea:	0104a207          	.4byte	0x104a207
     dee:	0000                	unimp
     df0:	0000                	unimp
     df2:	c400                	sw	s0,8(s0)
     df4:	0104                	addi	s1,sp,128
     df6:	0000                	unimp
     df8:	0000                	unimp
     dfa:	0300                	addi	s0,sp,384
     dfc:	ff09                	bnez	a4,d16 <ROM_BASE-0xf2ea>
     dfe:	079f 04c4 0001      	.byte	0x9f, 0x07, 0xc4, 0x04, 0x01, 0x00
     e04:	0000                	unimp
     e06:	0000                	unimp
     e08:	04e4                	addi	s1,sp,588
     e0a:	0001                	nop
     e0c:	0000                	unimp
     e0e:	0000                	unimp
     e10:	5901                	li	s2,-32
     e12:	0104ea07          	.4byte	0x104ea07
     e16:	0000                	unimp
     e18:	0000                	unimp
     e1a:	ee00                	sd	s0,24(a2)
     e1c:	0104                	addi	s1,sp,128
     e1e:	0000                	unimp
     e20:	0000                	unimp
     e22:	0100                	addi	s0,sp,128
     e24:	0059                	c.nop	22
     e26:	01046007          	.4byte	0x1046007
     e2a:	0000                	unimp
     e2c:	0000                	unimp
     e2e:	6a00                	ld	s0,16(a2)
     e30:	0104                	addi	s1,sp,128
     e32:	0000                	unimp
     e34:	0000                	unimp
     e36:	0100                	addi	s0,sp,128
     e38:	075a                	slli	a4,a4,0x16
     e3a:	046a                	slli	s0,s0,0x1a
     e3c:	0001                	nop
     e3e:	0000                	unimp
     e40:	0000                	unimp
     e42:	0496                	slli	s1,s1,0x5
     e44:	0001                	nop
     e46:	0000                	unimp
     e48:	0000                	unimp
     e4a:	5901                	li	s2,-32
     e4c:	01049607          	.4byte	0x1049607
     e50:	0000                	unimp
     e52:	0000                	unimp
     e54:	a200                	.2byte	0xa200
     e56:	0104                	addi	s1,sp,128
     e58:	0000                	unimp
     e5a:	0000                	unimp
     e5c:	0400                	addi	s0,sp,512
     e5e:	9f5a01a3          	sb	s5,-1565(s4)
     e62:	0700                	addi	s0,sp,896
     e64:	0460                	addi	s0,sp,524
     e66:	0001                	nop
     e68:	0000                	unimp
     e6a:	0000                	unimp
     e6c:	00010477          	.4byte	0x10477
     e70:	0000                	unimp
     e72:	0000                	unimp
     e74:	5b01                	li	s6,-32
     e76:	01047707          	.4byte	0x1047707
     e7a:	0000                	unimp
     e7c:	0000                	unimp
     e7e:	a200                	.2byte	0xa200
     e80:	0104                	addi	s1,sp,128
     e82:	0000                	unimp
     e84:	0000                	unimp
     e86:	0400                	addi	s0,sp,512
     e88:	9f5b01a3          	sb	s5,-1565(s6)
     e8c:	0700                	addi	s0,sp,896
     e8e:	03f2                	slli	t2,t2,0x1c
     e90:	0001                	nop
     e92:	0000                	unimp
     e94:	0000                	unimp
     e96:	0405                	addi	s0,s0,1
     e98:	0001                	nop
     e9a:	0000                	unimp
     e9c:	0000                	unimp
     e9e:	5a01                	li	s4,-32
     ea0:	01040507          	.4byte	0x1040507
     ea4:	0000                	unimp
     ea6:	0000                	unimp
     ea8:	6000                	ld	s0,0(s0)
     eaa:	0104                	addi	s1,sp,128
     eac:	0000                	unimp
     eae:	0000                	unimp
     eb0:	0400                	addi	s0,sp,512
     eb2:	9f5a01a3          	sb	s5,-1565(s4)
     eb6:	0700                	addi	s0,sp,896
     eb8:	03f2                	slli	t2,t2,0x1c
     eba:	0001                	nop
     ebc:	0000                	unimp
     ebe:	0000                	unimp
     ec0:	0405                	addi	s0,s0,1
     ec2:	0001                	nop
     ec4:	0000                	unimp
     ec6:	0000                	unimp
     ec8:	5b01                	li	s6,-32
     eca:	01040507          	.4byte	0x1040507
     ece:	0000                	unimp
     ed0:	0000                	unimp
     ed2:	6000                	ld	s0,0(s0)
     ed4:	0104                	addi	s1,sp,128
     ed6:	0000                	unimp
     ed8:	0000                	unimp
     eda:	0400                	addi	s0,sp,512
     edc:	9f5b01a3          	sb	s5,-1565(s6)
     ee0:	0700                	addi	s0,sp,896
     ee2:	03f2                	slli	t2,t2,0x1c
     ee4:	0001                	nop
     ee6:	0000                	unimp
     ee8:	0000                	unimp
     eea:	0405                	addi	s0,s0,1
     eec:	0001                	nop
     eee:	0000                	unimp
     ef0:	0000                	unimp
     ef2:	5c01                	li	s8,-32
     ef4:	01040507          	.4byte	0x1040507
     ef8:	0000                	unimp
     efa:	0000                	unimp
     efc:	6000                	ld	s0,0(s0)
     efe:	0104                	addi	s1,sp,128
     f00:	0000                	unimp
     f02:	0000                	unimp
     f04:	0400                	addi	s0,sp,512
     f06:	9f5c01a3          	sb	s5,-1565(s8) # 1c9e3 <_RODATA_END_+0xadba>
     f0a:	0700                	addi	s0,sp,896
     f0c:	043c                	addi	a5,sp,520
     f0e:	0001                	nop
     f10:	0000                	unimp
     f12:	0000                	unimp
     f14:	0440                	addi	s0,sp,516
     f16:	0001                	nop
     f18:	0000                	unimp
     f1a:	0000                	unimp
     f1c:	9f640803          	lb	a6,-1546(s0)
     f20:	01044007          	.4byte	0x1044007
     f24:	0000                	unimp
     f26:	0000                	unimp
     f28:	5000                	lw	s0,32(s0)
     f2a:	0104                	addi	s1,sp,128
     f2c:	0000                	unimp
     f2e:	0000                	unimp
     f30:	0100                	addi	s0,sp,128
     f32:	0758                	addi	a4,sp,900
     f34:	0450                	addi	a2,sp,516
     f36:	0001                	nop
     f38:	0000                	unimp
     f3a:	0000                	unimp
     f3c:	0452                	slli	s0,s0,0x14
     f3e:	0001                	nop
     f40:	0000                	unimp
     f42:	0000                	unimp
     f44:	9f7f7803          	.4byte	0x9f7f7803
     f48:	01045207          	.4byte	0x1045207
     f4c:	0000                	unimp
     f4e:	0000                	unimp
     f50:	5800                	lw	s0,48(s0)
     f52:	0104                	addi	s1,sp,128
     f54:	0000                	unimp
     f56:	0000                	unimp
     f58:	0100                	addi	s0,sp,128
     f5a:	0058                	addi	a4,sp,4
     f5c:	01060e07          	.4byte	0x1060e07
     f60:	0000                	unimp
     f62:	0000                	unimp
     f64:	1800                	addi	s0,sp,48
     f66:	0106                	slli	sp,sp,0x1
     f68:	0000                	unimp
     f6a:	0000                	unimp
     f6c:	0100                	addi	s0,sp,128
     f6e:	075a                	slli	a4,a4,0x16
     f70:	0618                	addi	a4,sp,768
     f72:	0001                	nop
     f74:	0000                	unimp
     f76:	0000                	unimp
     f78:	0630                	addi	a2,sp,776
     f7a:	0001                	nop
     f7c:	0000                	unimp
     f7e:	0000                	unimp
     f80:	a304                	.2byte	0xa304
     f82:	5a01                	li	s4,-32
     f84:	009f 0e07 0106      	.byte	0x9f, 0x00, 0x07, 0x0e, 0x06, 0x01
     f8a:	0000                	unimp
     f8c:	0000                	unimp
     f8e:	1000                	addi	s0,sp,32
     f90:	0106                	slli	sp,sp,0x1
     f92:	0000                	unimp
     f94:	0000                	unimp
     f96:	0100                	addi	s0,sp,128
     f98:	0610075b          	.4byte	0x610075b
     f9c:	0001                	nop
     f9e:	0000                	unimp
     fa0:	0000                	unimp
     fa2:	0630                	addi	a2,sp,776
     fa4:	0001                	nop
     fa6:	0000                	unimp
     fa8:	0000                	unimp
     faa:	a304                	.2byte	0xa304
     fac:	5b01                	li	s6,-32
     fae:	009f 1007 0106      	.byte	0x9f, 0x00, 0x07, 0x10, 0x06, 0x01
     fb4:	0000                	unimp
     fb6:	0000                	unimp
     fb8:	2000                	.2byte	0x2000
     fba:	0106                	slli	sp,sp,0x1
     fbc:	0000                	unimp
     fbe:	0000                	unimp
     fc0:	0100                	addi	s0,sp,128
     fc2:	0620075b          	.4byte	0x620075b
     fc6:	0001                	nop
     fc8:	0000                	unimp
     fca:	0000                	unimp
     fcc:	0628                	addi	a0,sp,776
     fce:	0001                	nop
     fd0:	0000                	unimp
     fd2:	0000                	unimp
     fd4:	5a01                	li	s4,-32
     fd6:	01062807          	.4byte	0x1062807
     fda:	0000                	unimp
     fdc:	0000                	unimp
     fde:	2a00                	.2byte	0x2a00
     fe0:	0106                	slli	sp,sp,0x1
     fe2:	0000                	unimp
     fe4:	0000                	unimp
     fe6:	0600                	addi	s0,sp,768
     fe8:	007a                	c.slli	zero,0x1e
     fea:	007f                	.2byte	0x7f
     fec:	be009f27          	.4byte	0xbe009f27
     ff0:	0002                	c.slli64	zero
     ff2:	0500                	addi	s0,sp,640
     ff4:	0800                	addi	s0,sp,16
     ff6:	0000                	unimp
     ff8:	0000                	unimp
     ffa:	0700                	addi	s0,sp,896
     ffc:	07ba                	slli	a5,a5,0xe
     ffe:	0001                	nop
    1000:	0000                	unimp
    1002:	0000                	unimp
    1004:	000107d7          	.4byte	0x107d7
    1008:	0000                	unimp
    100a:	0000                	unimp
    100c:	5a01                	li	s4,-32
    100e:	0107d707          	.4byte	0x107d707
    1012:	0000                	unimp
    1014:	0000                	unimp
    1016:	fa00                	sd	s0,48(a2)
    1018:	00000107          	.4byte	0x107
    101c:	0000                	unimp
    101e:	0100                	addi	s0,sp,128
    1020:	0764                	addi	s1,sp,908
    1022:	07fa                	slli	a5,a5,0x1e
    1024:	0001                	nop
    1026:	0000                	unimp
    1028:	0000                	unimp
    102a:	0806                	slli	a6,a6,0x1
    102c:	0001                	nop
    102e:	0000                	unimp
    1030:	0000                	unimp
    1032:	a304                	.2byte	0xa304
    1034:	5a01                	li	s4,-32
    1036:	079f 0806 0001      	.byte	0x9f, 0x07, 0x06, 0x08, 0x01, 0x00
    103c:	0000                	unimp
    103e:	0000                	unimp
    1040:	0a7e                	slli	s4,s4,0x1f
    1042:	0001                	nop
    1044:	0000                	unimp
    1046:	0000                	unimp
    1048:	6401                	.2byte	0x6401
    104a:	0700                	addi	s0,sp,896
    104c:	07ba                	slli	a5,a5,0xe
    104e:	0001                	nop
    1050:	0000                	unimp
    1052:	0000                	unimp
    1054:	000107d7          	.4byte	0x107d7
    1058:	0000                	unimp
    105a:	0000                	unimp
    105c:	5b01                	li	s6,-32
    105e:	0107d707          	.4byte	0x107d707
    1062:	0000                	unimp
    1064:	0000                	unimp
    1066:	7e00                	ld	s0,56(a2)
    1068:	010a                	slli	sp,sp,0x2
    106a:	0000                	unimp
    106c:	0000                	unimp
    106e:	0400                	addi	s0,sp,512
    1070:	9f5b01a3          	sb	s5,-1565(s6)
    1074:	0700                	addi	s0,sp,896
    1076:	07d8                	addi	a4,sp,964
    1078:	0001                	nop
    107a:	0000                	unimp
    107c:	0000                	unimp
    107e:	07de                	slli	a5,a5,0x17
    1080:	0001                	nop
    1082:	0000                	unimp
    1084:	0000                	unimp
    1086:	5a01                	li	s4,-32
    1088:	01080607          	.4byte	0x1080607
    108c:	0000                	unimp
    108e:	0000                	unimp
    1090:	0a00                	addi	s0,sp,272
    1092:	0108                	addi	a0,sp,128
    1094:	0000                	unimp
    1096:	0000                	unimp
    1098:	0100                	addi	s0,sp,128
    109a:	005a                	c.slli	zero,0x16
    109c:	01082007          	.4byte	0x1082007
    10a0:	0000                	unimp
    10a2:	0000                	unimp
    10a4:	4a00                	lw	s0,16(a2)
    10a6:	0108                	addi	a0,sp,128
    10a8:	0000                	unimp
    10aa:	0000                	unimp
    10ac:	0200                	addi	s0,sp,256
    10ae:	0072                	c.slli	zero,0x1c
    10b0:	01084a07          	.4byte	0x1084a07
    10b4:	0000                	unimp
    10b6:	0000                	unimp
    10b8:	5200                	lw	s0,32(a2)
    10ba:	0108                	addi	a0,sp,128
    10bc:	0000                	unimp
    10be:	0000                	unimp
    10c0:	0300                	addi	s0,sp,384
    10c2:	b078                	.2byte	0xb078
    10c4:	0852077b          	.4byte	0x852077b
    10c8:	0001                	nop
    10ca:	0000                	unimp
    10cc:	0000                	unimp
    10ce:	0924                	addi	s1,sp,152
    10d0:	0001                	nop
    10d2:	0000                	unimp
    10d4:	0000                	unimp
    10d6:	7202                	ld	tp,32(sp)
    10d8:	0700                	addi	s0,sp,896
    10da:	0924                	addi	s1,sp,152
    10dc:	0001                	nop
    10de:	0000                	unimp
    10e0:	0000                	unimp
    10e2:	0930                	addi	a2,sp,152
    10e4:	0001                	nop
    10e6:	0000                	unimp
    10e8:	0000                	unimp
    10ea:	8202                	jr	tp
    10ec:	0700                	addi	s0,sp,896
    10ee:	0930                	addi	a2,sp,152
    10f0:	0001                	nop
    10f2:	0000                	unimp
    10f4:	0000                	unimp
    10f6:	0a7e                	slli	s4,s4,0x1f
    10f8:	0001                	nop
    10fa:	0000                	unimp
    10fc:	0000                	unimp
    10fe:	7bb07803          	.4byte	0x7bb07803
    1102:	0700                	addi	s0,sp,896
    1104:	0822                	slli	a6,a6,0x8
    1106:	0001                	nop
    1108:	0000                	unimp
    110a:	0000                	unimp
    110c:	0828                	addi	a0,sp,24
    110e:	0001                	nop
    1110:	0000                	unimp
    1112:	0000                	unimp
    1114:	5a01                	li	s4,-32
    1116:	01085207          	.4byte	0x1085207
    111a:	0000                	unimp
    111c:	0000                	unimp
    111e:	5600                	lw	s0,40(a2)
    1120:	0108                	addi	a0,sp,128
    1122:	0000                	unimp
    1124:	0000                	unimp
    1126:	0100                	addi	s0,sp,128
    1128:	075a                	slli	a4,a4,0x16
    112a:	0930                	addi	a2,sp,152
    112c:	0001                	nop
    112e:	0000                	unimp
    1130:	0000                	unimp
    1132:	093a                	slli	s2,s2,0xe
    1134:	0001                	nop
    1136:	0000                	unimp
    1138:	0000                	unimp
    113a:	5a01                	li	s4,-32
    113c:	010a1e07          	.4byte	0x10a1e07
    1140:	0000                	unimp
    1142:	0000                	unimp
    1144:	2400                	.2byte	0x2400
    1146:	010a                	slli	sp,sp,0x2
    1148:	0000                	unimp
    114a:	0000                	unimp
    114c:	0100                	addi	s0,sp,128
    114e:	075a                	slli	a4,a4,0x16
    1150:	0a48                	addi	a0,sp,276
    1152:	0001                	nop
    1154:	0000                	unimp
    1156:	0000                	unimp
    1158:	0a4c                	addi	a1,sp,276
    115a:	0001                	nop
    115c:	0000                	unimp
    115e:	0000                	unimp
    1160:	5a01                	li	s4,-32
    1162:	010a7007          	.4byte	0x10a7007
    1166:	0000                	unimp
    1168:	0000                	unimp
    116a:	7400                	ld	s0,40(s0)
    116c:	010a                	slli	sp,sp,0x2
    116e:	0000                	unimp
    1170:	0000                	unimp
    1172:	0100                	addi	s0,sp,128
    1174:	005a                	c.slli	zero,0x16
    1176:	01085207          	.4byte	0x1085207
    117a:	0000                	unimp
    117c:	0000                	unimp
    117e:	2400                	.2byte	0x2400
    1180:	0109                	addi	sp,sp,2
    1182:	0000                	unimp
    1184:	0000                	unimp
    1186:	0100                	addi	s0,sp,128
    1188:	0752                	slli	a4,a4,0x14
    118a:	0924                	addi	s1,sp,152
    118c:	0001                	nop
    118e:	0000                	unimp
    1190:	0000                	unimp
    1192:	0930                	addi	a2,sp,152
    1194:	0001                	nop
    1196:	0000                	unimp
    1198:	0000                	unimp
    119a:	6201                	.2byte	0x6201
    119c:	01093007          	.4byte	0x1093007
    11a0:	0000                	unimp
    11a2:	0000                	unimp
    11a4:	7e00                	ld	s0,56(a2)
    11a6:	010a                	slli	sp,sp,0x2
    11a8:	0000                	unimp
    11aa:	0000                	unimp
    11ac:	0400                	addi	s0,sp,512
    11ae:	b078                	.2byte	0xb078
    11b0:	07009f7b          	.4byte	0x7009f7b
    11b4:	09fe                	slli	s3,s3,0x1f
    11b6:	0001                	nop
    11b8:	0000                	unimp
    11ba:	0000                	unimp
    11bc:	0a48                	addi	a0,sp,276
    11be:	0001                	nop
    11c0:	0000                	unimp
    11c2:	0000                	unimp
    11c4:	5201                	li	tp,-32
    11c6:	010a7007          	.4byte	0x10a7007
    11ca:	0000                	unimp
    11cc:	0000                	unimp
    11ce:	7e00                	ld	s0,56(a2)
    11d0:	010a                	slli	sp,sp,0x2
    11d2:	0000                	unimp
    11d4:	0000                	unimp
    11d6:	0100                	addi	s0,sp,128
    11d8:	0052                	c.slli	zero,0x14
    11da:	01093a07          	.4byte	0x1093a07
    11de:	0000                	unimp
    11e0:	0000                	unimp
    11e2:	f200                	sd	s0,32(a2)
    11e4:	0109                	addi	sp,sp,2
    11e6:	0000                	unimp
    11e8:	0000                	unimp
    11ea:	0100                	addi	s0,sp,128
    11ec:	0062                	c.slli	zero,0x18
    11ee:	01095a07          	.4byte	0x1095a07
    11f2:	0000                	unimp
    11f4:	0000                	unimp
    11f6:	a600                	.2byte	0xa600
    11f8:	0109                	addi	sp,sp,2
    11fa:	0000                	unimp
    11fc:	0000                	unimp
    11fe:	0100                	addi	s0,sp,128
    1200:	0768                	addi	a0,sp,908
    1202:	09a6                	slli	s3,s3,0x9
    1204:	0001                	nop
    1206:	0000                	unimp
    1208:	0000                	unimp
    120a:	09fa                	slli	s3,s3,0x1e
    120c:	0001                	nop
    120e:	0000                	unimp
    1210:	0000                	unimp
    1212:	9f607903          	.4byte	0x9f607903
    1216:	0109fa07          	.4byte	0x109fa07
    121a:	0000                	unimp
    121c:	0000                	unimp
    121e:	4800                	lw	s0,16(s0)
    1220:	010a                	slli	sp,sp,0x2
    1222:	0000                	unimp
    1224:	0000                	unimp
    1226:	0400                	addi	s0,sp,512
    1228:	8088                	.2byte	0x8088
    122a:	9f7f                	.2byte	0x9f7f
    122c:	010a7007          	.4byte	0x10a7007
    1230:	0000                	unimp
    1232:	0000                	unimp
    1234:	7e00                	ld	s0,56(a2)
    1236:	010a                	slli	sp,sp,0x2
    1238:	0000                	unimp
    123a:	0000                	unimp
    123c:	0400                	addi	s0,sp,512
    123e:	8088                	.2byte	0x8088
    1240:	9f7f                	.2byte	0x9f7f
    1242:	0700                	addi	s0,sp,896
    1244:	095e                	slli	s2,s2,0x17
    1246:	0001                	nop
    1248:	0000                	unimp
    124a:	0000                	unimp
    124c:	0960                	addi	s0,sp,156
    124e:	0001                	nop
    1250:	0000                	unimp
    1252:	0000                	unimp
    1254:	3002                	.2byte	0x3002
    1256:	079f 0960 0001      	.byte	0x9f, 0x07, 0x60, 0x09, 0x01, 0x00
    125c:	0000                	unimp
    125e:	0000                	unimp
    1260:	096a                	slli	s2,s2,0x1a
    1262:	0001                	nop
    1264:	0000                	unimp
    1266:	0000                	unimp
    1268:	6301                	.2byte	0x6301
    126a:	0700                	addi	s0,sp,896
    126c:	097e                	slli	s2,s2,0x1f
    126e:	0001                	nop
    1270:	0000                	unimp
    1272:	0000                	unimp
    1274:	0982                	c.slli64	s3
    1276:	0001                	nop
    1278:	0000                	unimp
    127a:	0000                	unimp
    127c:	3002                	.2byte	0x3002
    127e:	079f 0982 0001      	.byte	0x9f, 0x07, 0x82, 0x09, 0x01, 0x00
    1284:	0000                	unimp
    1286:	0000                	unimp
    1288:	0988                	addi	a0,sp,208
    128a:	0001                	nop
    128c:	0000                	unimp
    128e:	0000                	unimp
    1290:	8306                	mv	t1,ra
    1292:	8800                	.2byte	0x8800
    1294:	1c10                	addi	a2,sp,560
    1296:	009f da07 0109      	.byte	0x9f, 0x00, 0x07, 0xda, 0x09, 0x01
    129c:	0000                	unimp
    129e:	0000                	unimp
    12a0:	e000                	sd	s0,0(s0)
    12a2:	0109                	addi	sp,sp,2
    12a4:	0000                	unimp
    12a6:	0000                	unimp
    12a8:	0600                	addi	s0,sp,768
    12aa:	18790083          	lb	ra,391(s2) # ffffffffffffb187 <_RODATA_END_+0xfffffffffffe955e>
    12ae:	9f1c                	.2byte	0x9f1c
	...
